
servo:     file format elf32-littlearm


Disassembly of section .interp:

00000154 <.interp>:
 154:	62696c2f 	rsbvs	r6, r9, #12032	; 0x2f00
 158:	2d646c2f 	stclcs	12, cr6, [r4, #-188]!	; 0xffffff44
 15c:	756e696c 	strbvc	r6, [lr, #-2412]!	; 0xfffff694
 160:	72612d78 	rsbvc	r2, r1, #120, 26	; 0x1e00
 164:	2e66686d 	cdpcs	8, 6, cr6, cr6, cr13, {3}
 168:	332e6f73 			; <UNDEFINED> instruction: 0x332e6f73
	...

Disassembly of section .note.ABI-tag:

00000170 <.note.ABI-tag>:
 170:	00000004 	andeq	r0, r0, r4
 174:	00000010 	andeq	r0, r0, r0, lsl r0
 178:	00000001 	andeq	r0, r0, r1
 17c:	00554e47 	subseq	r4, r5, r7, asr #28
 180:	00000000 	andeq	r0, r0, r0
 184:	00000003 	andeq	r0, r0, r3
 188:	00000002 	andeq	r0, r0, r2
 18c:	00000000 	andeq	r0, r0, r0

Disassembly of section .note.gnu.build-id:

00000190 <.note.gnu.build-id>:
 190:	00000004 	andeq	r0, r0, r4
 194:	00000014 	andeq	r0, r0, r4, lsl r0
 198:	00000003 	andeq	r0, r0, r3
 19c:	00554e47 	subseq	r4, r5, r7, asr #28
 1a0:	6e0ee79a 	mcrvs	7, 0, lr, cr14, cr10, {4}
 1a4:	8c49f31e 	mcrrhi	3, 1, pc, r9, cr14	; <UNPREDICTABLE>
 1a8:	10e8dc50 	rscne	sp, r8, r0, asr ip
 1ac:	b1ab7936 			; <UNDEFINED> instruction: 0xb1ab7936
 1b0:	5ea6bb14 	vduppl.32	q3, fp

Disassembly of section .gnu.hash:

000001b4 <.gnu.hash>:
 1b4:	00000001 	andeq	r0, r0, r1
 1b8:	00000001 	andeq	r0, r0, r1
 1bc:	00000001 	andeq	r0, r0, r1
	...

Disassembly of section .dynsym:

000001cc <.dynsym>:
	...
 1e0:	00000718 	andeq	r0, r0, r8, lsl r7
 1e4:	00000000 	andeq	r0, r0, r0
 1e8:	000b0003 	andeq	r0, fp, r3
 1ec:	00000000 	andeq	r0, r0, r0
 1f0:	00015000 	andeq	r5, r1, r0
 1f4:	00000000 	andeq	r0, r0, r0
 1f8:	00170003 	andseq	r0, r7, r3
 1fc:	00000054 	andeq	r0, r0, r4, asr r0
	...
 208:	00000012 	andeq	r0, r0, r2, lsl r0
 20c:	00000082 	andeq	r0, r0, r2, lsl #1
	...
 218:	00000012 	andeq	r0, r0, r2, lsl r0
 21c:	00000130 	andeq	r0, r0, r0, lsr r1
	...
 228:	00000022 	andeq	r0, r0, r2, lsr #32
 22c:	0000000f 	andeq	r0, r0, pc
	...
 238:	00000020 	andeq	r0, r0, r0, lsr #32
 23c:	000000a7 	andeq	r0, r0, r7, lsr #1
	...
 248:	00000012 	andeq	r0, r0, r2, lsl r0
 24c:	0000011b 	andeq	r0, r0, fp, lsl r1
	...
 258:	00000012 	andeq	r0, r0, r2, lsl r0
 25c:	000000bc 	strheq	r0, [r0], -ip
	...
 268:	00000012 	andeq	r0, r0, r2, lsl r0
 26c:	0000016e 	andeq	r0, r0, lr, ror #2
	...
 278:	00000011 	andeq	r0, r0, r1, lsl r0
 27c:	000000c0 	andeq	r0, r0, r0, asr #1
	...
 288:	00000012 	andeq	r0, r0, r2, lsl r0
 28c:	000000cb 	andeq	r0, r0, fp, asr #1
	...
 298:	00000012 	andeq	r0, r0, r2, lsl r0
 29c:	00000128 	andeq	r0, r0, r8, lsr #2
	...
 2a8:	00000012 	andeq	r0, r0, r2, lsl r0
 2ac:	0000010d 	andeq	r0, r0, sp, lsl #2
	...
 2b8:	00000011 	andeq	r0, r0, r1, lsl r0
 2bc:	00000122 	andeq	r0, r0, r2, lsr #2
	...
 2c8:	00000012 	andeq	r0, r0, r2, lsl r0
 2cc:	000000c6 	andeq	r0, r0, r6, asr #1
	...
 2d8:	00000012 	andeq	r0, r0, r2, lsl r0
 2dc:	00000148 	andeq	r0, r0, r8, asr #2
	...
 2e8:	00000012 	andeq	r0, r0, r2, lsl r0
 2ec:	0000013f 	andeq	r0, r0, pc, lsr r1
	...
 2f8:	00000012 	andeq	r0, r0, r2, lsl r0
 2fc:	0000002b 	andeq	r0, r0, fp, lsr #32
	...
 308:	00000020 	andeq	r0, r0, r0, lsr #32
 30c:	000000a8 	andeq	r0, r0, r8, lsr #1
	...
 318:	00000012 	andeq	r0, r0, r2, lsl r0
 31c:	000000e2 	andeq	r0, r0, r2, ror #1
	...
 328:	00000012 	andeq	r0, r0, r2, lsl r0
 32c:	000000ad 	andeq	r0, r0, sp, lsr #1
	...
 338:	00000012 	andeq	r0, r0, r2, lsl r0
 33c:	000000e7 	andeq	r0, r0, r7, ror #1
	...
 348:	00000012 	andeq	r0, r0, r2, lsl r0
 34c:	0000006b 	andeq	r0, r0, fp, rrx
	...
 358:	00000012 	andeq	r0, r0, r2, lsl r0
 35c:	0000009a 	muleq	r0, sl, r0
	...
 368:	00000012 	andeq	r0, r0, r2, lsl r0
 36c:	000000f8 	strdeq	r0, [r0], -r8
	...
 378:	00000012 	andeq	r0, r0, r2, lsl r0
 37c:	00000106 	andeq	r0, r0, r6, lsl #2
	...
 388:	00000012 	andeq	r0, r0, r2, lsl r0
 38c:	00000114 	andeq	r0, r0, r4, lsl r1
	...
 398:	00000012 	andeq	r0, r0, r2, lsl r0
 39c:	0000003a 	andeq	r0, r0, sl, lsr r0
	...
 3a8:	00000020 	andeq	r0, r0, r0, lsr #32
 3ac:	000000dc 	ldrdeq	r0, [r0], -ip
	...
 3b8:	00000012 	andeq	r0, r0, r2, lsl r0
 3bc:	00000107 	andeq	r0, r0, r7, lsl #2
	...
 3c8:	00000012 	andeq	r0, r0, r2, lsl r0

Disassembly of section .dynstr:

000003cc <.dynstr>:
 3cc:	62696c00 	rsbvs	r6, r9, #0, 24
 3d0:	5f636367 	svcpl	0x00636367
 3d4:	6f732e73 	svcvs	0x00732e73
 3d8:	5f00312e 	svcpl	0x0000312e
 3dc:	5f4d5449 	svcpl	0x004d5449
 3e0:	65726564 	ldrbvs	r6, [r2, #-1380]!	; 0xfffffa9c
 3e4:	74736967 	ldrbtvc	r6, [r3], #-2407	; 0xfffff699
 3e8:	4d547265 	lfmmi	f7, 2, [r4, #-404]	; 0xfffffe6c
 3ec:	6e6f6c43 	cdpvs	12, 6, cr6, cr15, cr3, {2}
 3f0:	62615465 	rsbvs	r5, r1, #1694498816	; 0x65000000
 3f4:	5f00656c 	svcpl	0x0000656c
 3f8:	6f6d675f 	svcvs	0x006d675f
 3fc:	74735f6e 	ldrbtvc	r5, [r3], #-3950	; 0xfffff092
 400:	5f747261 	svcpl	0x00747261
 404:	495f005f 	ldmdbmi	pc, {r0, r1, r2, r3, r4, r6}^	; <UNPREDICTABLE>
 408:	725f4d54 	subsvc	r4, pc, #84, 26	; 0x1500
 40c:	73696765 	cmnvc	r9, #26476544	; 0x1940000
 410:	54726574 	ldrbtpl	r6, [r2], #-1396	; 0xfffffa8c
 414:	6f6c434d 	svcvs	0x006c434d
 418:	6154656e 	cmpvs	r4, lr, ror #10
 41c:	00656c62 	rsbeq	r6, r5, r2, ror #24
 420:	65615f5f 	strbvs	r5, [r1, #-3935]!	; 0xfffff0a1
 424:	5f696261 	svcpl	0x00696261
 428:	69776e75 	ldmdbvs	r7!, {r0, r2, r4, r5, r6, r9, sl, fp, sp, lr}^
 42c:	635f646e 	cmpvs	pc, #1845493760	; 0x6e000000
 430:	705f7070 	subsvc	r7, pc, r0, ror r0	; <UNPREDICTABLE>
 434:	5f003072 	svcpl	0x00003072
 438:	6165615f 	cmnvs	r5, pc, asr r1
 43c:	755f6962 	ldrbvc	r6, [pc, #-2402]	; fffffae2 <__bss_end__+0xfffeaa76>
 440:	6e69776e 	cdpvs	7, 6, cr7, cr9, cr14, {3}
 444:	70635f64 	rsbvc	r5, r3, r4, ror #30
 448:	72705f70 	rsbsvc	r5, r0, #112, 30	; 0x1c0
 44c:	5f5f0031 	svcpl	0x005f0031
 450:	62616561 	rsbvs	r6, r1, #406847488	; 0x18400000
 454:	69755f69 	ldmdbvs	r5!, {r0, r3, r5, r6, r8, r9, sl, fp, ip, lr}^
 458:	00766964 	rsbseq	r6, r6, r4, ror #18
 45c:	6362696c 	cmnvs	r2, #108, 18	; 0x1b0000
 460:	2e6f732e 	cdpcs	3, 6, cr7, cr15, cr14, {1}
 464:	5f5f0036 	svcpl	0x005f0036
 468:	6e697270 	mcrvs	2, 3, r7, cr9, cr0, {3}
 46c:	635f6674 	cmpvs	pc, #116, 12	; 0x7400000
 470:	66006b68 	strvs	r6, [r0], -r8, ror #22
 474:	6e65706f 	cdpvs	0, 6, cr7, cr5, cr15, {3}
 478:	736f7000 	cmnvc	pc, #0
 47c:	6d5f7869 	ldclvs	8, cr7, [pc, #-420]	; 2e0 <_init-0x438>
 480:	6c616d65 	stclvs	13, cr6, [r1], #-404	; 0xfffffe6c
 484:	006e6769 	rsbeq	r6, lr, r9, ror #14
 488:	6f6e616e 	svcvs	0x006e616e
 48c:	65656c73 	strbvs	r6, [r5, #-3187]!	; 0xfffff38d
 490:	75700070 	ldrbvc	r0, [r0, #-112]!	; 0xffffff90
 494:	5f007374 	svcpl	0x00007374
 498:	6174735f 	cmnvs	r4, pc, asr r3
 49c:	635f6b63 	cmpvs	pc, #101376	; 0x18c00
 4a0:	665f6b68 	ldrbvs	r6, [pc], -r8, ror #22
 4a4:	006c6961 	rsbeq	r6, ip, r1, ror #18
 4a8:	726f6261 	rsbvc	r6, pc, #268435462	; 0x10000006
 4ac:	6d6d0074 	stclvs	0, cr0, [sp, #-464]!	; 0xfffffe30
 4b0:	5f007061 	svcpl	0x00007061
 4b4:	7272655f 	rsbsvc	r6, r2, #398458880	; 0x17c00000
 4b8:	6c5f6f6e 	mrrcvs	15, 6, r6, pc, cr14	; <UNPREDICTABLE>
 4bc:	7461636f 	strbtvc	r6, [r1], #-879	; 0xfffffc91
 4c0:	006e6f69 	rsbeq	r6, lr, r9, ror #30
 4c4:	70665f5f 	rsbvc	r5, r6, pc, asr pc
 4c8:	746e6972 	strbtvc	r6, [lr], #-2418	; 0xfffff68e
 4cc:	68635f66 	stmdavs	r3!, {r1, r2, r5, r6, r8, r9, sl, fp, ip, lr}^
 4d0:	6366006b 	cmnvs	r6, #107	; 0x6b
 4d4:	65736f6c 	ldrbvs	r6, [r3, #-3948]!	; 0xfffff094
 4d8:	64747300 	ldrbtvs	r7, [r4], #-768	; 0xfffffd00
 4dc:	00727265 	rsbseq	r7, r2, r5, ror #4
 4e0:	6d6e756d 	cfstr64vs	mvdx7, [lr, #-436]!	; 0xfffffe4c
 4e4:	67007061 	strvs	r7, [r0, -r1, rrx]
 4e8:	69757465 	ldmdbvs	r5!, {r0, r2, r5, r6, sl, ip, sp, lr}^
 4ec:	72660064 	rsbvc	r0, r6, #100	; 0x64
 4f0:	00646165 	rsbeq	r6, r4, r5, ror #2
 4f4:	65746567 	ldrbvs	r6, [r4, #-1383]!	; 0xfffffa99
 4f8:	00646975 	rsbeq	r6, r4, r5, ror r9
 4fc:	78635f5f 	stmdavc	r3!, {r0, r1, r2, r3, r4, r6, r8, r9, sl, fp, ip, lr}^
 500:	69665f61 	stmdbvs	r6!, {r0, r5, r6, r8, r9, sl, fp, ip, lr}^
 504:	696c616e 	stmdbvs	ip!, {r1, r2, r3, r5, r6, r8, sp, lr}^
 508:	7300657a 	movwvc	r6, #1402	; 0x57a
 50c:	72657274 	rsbvc	r7, r5, #116, 4	; 0x40000007
 510:	00726f72 	rsbseq	r6, r2, r2, ror pc
 514:	696c5f5f 	stmdbvs	ip!, {r0, r1, r2, r3, r4, r6, r8, r9, sl, fp, ip, lr}^
 518:	735f6362 	cmpvc	pc, #-2013265919	; 0x88000001
 51c:	74726174 	ldrbtvc	r6, [r2], #-372	; 0xfffffe8c
 520:	69616d5f 	stmdbvs	r1!, {r0, r1, r2, r3, r4, r6, r8, sl, fp, sp, lr}^
 524:	646c006e 	strbtvs	r0, [ip], #-110	; 0xffffff92
 528:	6e696c2d 	cdpvs	12, 6, cr6, cr9, cr13, {1}
 52c:	612d7875 			; <UNDEFINED> instruction: 0x612d7875
 530:	66686d72 			; <UNDEFINED> instruction: 0x66686d72
 534:	2e6f732e 	cdpcs	3, 6, cr7, cr15, cr14, {1}
 538:	5f5f0033 	svcpl	0x005f0033
 53c:	63617473 	cmnvs	r1, #1929379840	; 0x73000000
 540:	68635f6b 	stmdavs	r3!, {r0, r1, r3, r5, r6, r8, r9, sl, fp, ip, lr}^
 544:	75675f6b 	strbvc	r5, [r7, #-3947]!	; 0xfffff095
 548:	00647261 	rsbeq	r7, r4, r1, ror #4
 54c:	42494c47 	submi	r4, r9, #18176	; 0x4700
 550:	2e325f43 	cdpcs	15, 3, cr5, cr2, cr3, {2}
 554:	43470034 	movtmi	r0, #28724	; 0x7034
 558:	2e335f43 	cdpcs	15, 3, cr5, cr3, cr3, {2}
 55c:	Address 0x0000055c is out of bounds.


Disassembly of section .gnu.version:

0000055e <.gnu.version>:
 55e:	00000000 	andeq	r0, r0, r0
 562:	00020000 	andeq	r0, r2, r0
 566:	00030002 	andeq	r0, r3, r2
 56a:	00030000 	andeq	r0, r3, r0
 56e:	00030003 	andeq	r0, r3, r3
 572:	00030004 	andeq	r0, r3, r4
 576:	00030003 	andeq	r0, r3, r3
 57a:	00030003 	andeq	r0, r3, r3
 57e:	00030003 	andeq	r0, r3, r3
 582:	00000003 	andeq	r0, r0, r3
 586:	00030003 	andeq	r0, r3, r3
 58a:	00030003 	andeq	r0, r3, r3
 58e:	00030002 	andeq	r0, r3, r2
 592:	00030003 	andeq	r0, r3, r3
 596:	00000003 	andeq	r0, r0, r3
 59a:	00030003 	andeq	r0, r3, r3

Disassembly of section .gnu.version_r:

000005a0 <.gnu.version_r>:
 5a0:	00010001 	andeq	r0, r1, r1
 5a4:	0000015a 	andeq	r0, r0, sl, asr r1
 5a8:	00000010 	andeq	r0, r0, r0, lsl r0
 5ac:	00000020 	andeq	r0, r0, r0, lsr #32
 5b0:	0d696914 			; <UNDEFINED> instruction: 0x0d696914
 5b4:	00040000 	andeq	r0, r4, r0
 5b8:	00000180 	andeq	r0, r0, r0, lsl #3
 5bc:	00000000 	andeq	r0, r0, r0
 5c0:	00010001 	andeq	r0, r1, r1
 5c4:	00000090 	muleq	r0, r0, r0
 5c8:	00000010 	andeq	r0, r0, r0, lsl r0
 5cc:	00000020 	andeq	r0, r0, r0, lsr #32
 5d0:	0d696914 			; <UNDEFINED> instruction: 0x0d696914
 5d4:	00030000 	andeq	r0, r3, r0
 5d8:	00000180 	andeq	r0, r0, r0, lsl #3
 5dc:	00000000 	andeq	r0, r0, r0
 5e0:	00010001 	andeq	r0, r1, r1
 5e4:	00000001 	andeq	r0, r0, r1
 5e8:	00000010 	andeq	r0, r0, r0, lsl r0
 5ec:	00000000 	andeq	r0, r0, r0
 5f0:	0b792655 	bleq	1e49f4c <__bss_end__+0x1e34ee0>
 5f4:	00020000 	andeq	r0, r2, r0
 5f8:	0000018a 	andeq	r0, r0, sl, lsl #3
 5fc:	00000000 	andeq	r0, r0, r0

Disassembly of section .rel.dyn:

00000600 <.rel.dyn>:
 600:	00014e64 	andeq	r4, r1, r4, ror #28
 604:	00000017 	andeq	r0, r0, r7, lsl r0
 608:	00014e68 	andeq	r4, r1, r8, ror #28
 60c:	00000017 	andeq	r0, r0, r7, lsl r0
 610:	00014fdc 	ldrdeq	r4, [r1], -ip
 614:	00000017 	andeq	r0, r0, r7, lsl r0
 618:	00014ff4 	strdeq	r4, [r1], -r4	; <UNPREDICTABLE>
 61c:	00000017 	andeq	r0, r0, r7, lsl r0
 620:	00014ff8 	strdeq	r4, [r1], -r8
 624:	00000017 	andeq	r0, r0, r7, lsl r0
 628:	00015004 	andeq	r5, r1, r4
 62c:	00000017 	andeq	r0, r0, r7, lsl r0
 630:	00014fe0 	andeq	r4, r1, r0, ror #31
 634:	00000515 	andeq	r0, r0, r5, lsl r5
 638:	00014fe4 	andeq	r4, r1, r4, ror #31
 63c:	00000615 	andeq	r0, r0, r5, lsl r6
 640:	00014fe8 	andeq	r4, r1, r8, ror #31
 644:	00000a15 	andeq	r0, r0, r5, lsl sl
 648:	00014fec 	andeq	r4, r1, ip, ror #31
 64c:	00000e15 	andeq	r0, r0, r5, lsl lr
 650:	00014ff0 	strdeq	r4, [r1], -r0
 654:	00001315 	andeq	r1, r0, r5, lsl r3
 658:	00014ffc 	strdeq	r4, [r1], -ip
 65c:	00001d15 	andeq	r1, r0, r5, lsl sp

Disassembly of section .rel.plt:

00000660 <.rel.plt>:
 660:	00014f80 	andeq	r4, r1, r0, lsl #31
 664:	00000416 	andeq	r0, r0, r6, lsl r4
 668:	00014f84 	andeq	r4, r1, r4, lsl #31
 66c:	00000516 	andeq	r0, r0, r6, lsl r5
 670:	00014f88 	andeq	r4, r1, r8, lsl #31
 674:	00000716 	andeq	r0, r0, r6, lsl r7
 678:	00014f8c 	andeq	r4, r1, ip, lsl #31
 67c:	00000816 	andeq	r0, r0, r6, lsl r8
 680:	00014f90 	muleq	r1, r0, pc	; <UNPREDICTABLE>
 684:	00000916 	andeq	r0, r0, r6, lsl r9
 688:	00014f94 	muleq	r1, r4, pc	; <UNPREDICTABLE>
 68c:	00000b16 	andeq	r0, r0, r6, lsl fp
 690:	00014f98 	muleq	r1, r8, pc	; <UNPREDICTABLE>
 694:	00000c16 	andeq	r0, r0, r6, lsl ip
 698:	00014f9c 	muleq	r1, ip, pc	; <UNPREDICTABLE>
 69c:	00000d16 	andeq	r0, r0, r6, lsl sp
 6a0:	00014fa0 	andeq	r4, r1, r0, lsr #31
 6a4:	00000f16 	andeq	r0, r0, r6, lsl pc
 6a8:	00014fa4 	andeq	r4, r1, r4, lsr #31
 6ac:	00001016 	andeq	r1, r0, r6, lsl r0
 6b0:	00014fa8 	andeq	r4, r1, r8, lsr #31
 6b4:	00001116 	andeq	r1, r0, r6, lsl r1
 6b8:	00014fac 	andeq	r4, r1, ip, lsr #31
 6bc:	00001216 	andeq	r1, r0, r6, lsl r2
 6c0:	00014fb0 			; <UNDEFINED> instruction: 0x00014fb0
 6c4:	00001316 	andeq	r1, r0, r6, lsl r3
 6c8:	00014fb4 			; <UNDEFINED> instruction: 0x00014fb4
 6cc:	00001416 	andeq	r1, r0, r6, lsl r4
 6d0:	00014fb8 			; <UNDEFINED> instruction: 0x00014fb8
 6d4:	00001516 	andeq	r1, r0, r6, lsl r5
 6d8:	00014fbc 			; <UNDEFINED> instruction: 0x00014fbc
 6dc:	00001616 	andeq	r1, r0, r6, lsl r6
 6e0:	00014fc0 	andeq	r4, r1, r0, asr #31
 6e4:	00001716 	andeq	r1, r0, r6, lsl r7
 6e8:	00014fc4 	andeq	r4, r1, r4, asr #31
 6ec:	00001916 	andeq	r1, r0, r6, lsl r9
 6f0:	00014fc8 	andeq	r4, r1, r8, asr #31
 6f4:	00001a16 	andeq	r1, r0, r6, lsl sl
 6f8:	00014fcc 	andeq	r4, r1, ip, asr #31
 6fc:	00001b16 	andeq	r1, r0, r6, lsl fp
 700:	00014fd0 	ldrdeq	r4, [r1], -r0
 704:	00001c16 	andeq	r1, r0, r6, lsl ip
 708:	00014fd4 	ldrdeq	r4, [r1], -r4	; <UNPREDICTABLE>
 70c:	00001e16 	andeq	r1, r0, r6, lsl lr
 710:	00014fd8 	ldrdeq	r4, [r1], -r8
 714:	00001f16 	andeq	r1, r0, r6, lsl pc

Disassembly of section .init:

00000718 <_init>:
 718:	e92d4008 	push	{r3, lr}
 71c:	eb000090 	bl	964 <call_weak_fn>
 720:	e8bd8008 	pop	{r3, pc}

Disassembly of section .plt:

00000724 <.plt>:
 724:	e52de004 	push	{lr}		; (str lr, [sp, #-4]!)
 728:	e59fe004 	ldr	lr, [pc, #4]	; 734 <.plt+0x10>
 72c:	e08fe00e 	add	lr, pc, lr
 730:	e5bef008 	ldr	pc, [lr, #8]!
 734:	00014840 	andeq	r4, r1, r0, asr #16

00000738 <__aeabi_uidiv@plt>:
 738:	e28fc600 	add	ip, pc, #0, 12
 73c:	e28cca14 	add	ip, ip, #20, 20	; 0x14000
 740:	e5bcf840 	ldr	pc, [ip, #2112]!	; 0x840

00000744 <__cxa_finalize@plt>:
 744:	e28fc600 	add	ip, pc, #0, 12
 748:	e28cca14 	add	ip, ip, #20, 20	; 0x14000
 74c:	e5bcf838 	ldr	pc, [ip, #2104]!	; 0x838

00000750 <fopen@plt>:
 750:	e28fc600 	add	ip, pc, #0, 12
 754:	e28cca14 	add	ip, ip, #20, 20	; 0x14000
 758:	e5bcf830 	ldr	pc, [ip, #2096]!	; 0x830

0000075c <getuid@plt>:
 75c:	e28fc600 	add	ip, pc, #0, 12
 760:	e28cca14 	add	ip, ip, #20, 20	; 0x14000
 764:	e5bcf828 	ldr	pc, [ip, #2088]!	; 0x828

00000768 <nanosleep@plt>:
 768:	e28fc600 	add	ip, pc, #0, 12
 76c:	e28cca14 	add	ip, ip, #20, 20	; 0x14000
 770:	e5bcf820 	ldr	pc, [ip, #2080]!	; 0x820

00000774 <sleep@plt>:
 774:	e28fc600 	add	ip, pc, #0, 12
 778:	e28cca14 	add	ip, ip, #20, 20	; 0x14000
 77c:	e5bcf818 	ldr	pc, [ip, #2072]!	; 0x818

00000780 <__stack_chk_fail@plt>:
 780:	e28fc600 	add	ip, pc, #0, 12
 784:	e28cca14 	add	ip, ip, #20, 20	; 0x14000
 788:	e5bcf810 	ldr	pc, [ip, #2064]!	; 0x810

0000078c <geteuid@plt>:
 78c:	e28fc600 	add	ip, pc, #0, 12
 790:	e28cca14 	add	ip, ip, #20, 20	; 0x14000
 794:	e5bcf808 	ldr	pc, [ip, #2056]!	; 0x808

00000798 <fread@plt>:
 798:	e28fc600 	add	ip, pc, #0, 12
 79c:	e28cca14 	add	ip, ip, #20, 20	; 0x14000
 7a0:	e5bcf800 	ldr	pc, [ip, #2048]!	; 0x800

000007a4 <puts@plt>:
 7a4:	e28fc600 	add	ip, pc, #0, 12
 7a8:	e28cca14 	add	ip, ip, #20, 20	; 0x14000
 7ac:	e5bcf7f8 	ldr	pc, [ip, #2040]!	; 0x7f8

000007b0 <__libc_start_main@plt>:
 7b0:	e28fc600 	add	ip, pc, #0, 12
 7b4:	e28cca14 	add	ip, ip, #20, 20	; 0x14000
 7b8:	e5bcf7f0 	ldr	pc, [ip, #2032]!	; 0x7f0

000007bc <strerror@plt>:
 7bc:	e28fc600 	add	ip, pc, #0, 12
 7c0:	e28cca14 	add	ip, ip, #20, 20	; 0x14000
 7c4:	e5bcf7e8 	ldr	pc, [ip, #2024]!	; 0x7e8

000007c8 <__gmon_start__@plt>:
 7c8:	e28fc600 	add	ip, pc, #0, 12
 7cc:	e28cca14 	add	ip, ip, #20, 20	; 0x14000
 7d0:	e5bcf7e0 	ldr	pc, [ip, #2016]!	; 0x7e0

000007d4 <open@plt>:
 7d4:	e28fc600 	add	ip, pc, #0, 12
 7d8:	e28cca14 	add	ip, ip, #20, 20	; 0x14000
 7dc:	e5bcf7d8 	ldr	pc, [ip, #2008]!	; 0x7d8

000007e0 <mmap@plt>:
 7e0:	e28fc600 	add	ip, pc, #0, 12
 7e4:	e28cca14 	add	ip, ip, #20, 20	; 0x14000
 7e8:	e5bcf7d0 	ldr	pc, [ip, #2000]!	; 0x7d0

000007ec <posix_memalign@plt>:
 7ec:	e28fc600 	add	ip, pc, #0, 12
 7f0:	e28cca14 	add	ip, ip, #20, 20	; 0x14000
 7f4:	e5bcf7c8 	ldr	pc, [ip, #1992]!	; 0x7c8

000007f8 <__errno_location@plt>:
 7f8:	e28fc600 	add	ip, pc, #0, 12
 7fc:	e28cca14 	add	ip, ip, #20, 20	; 0x14000
 800:	e5bcf7c0 	ldr	pc, [ip, #1984]!	; 0x7c0

00000804 <__printf_chk@plt>:
 804:	4778      	bx	pc
 806:	46c0      	nop			; (mov r8, r8)
 808:	e28fc600 	add	ip, pc, #0, 12
 80c:	e28cca14 	add	ip, ip, #20, 20	; 0x14000
 810:	e5bcf7b4 	ldr	pc, [ip, #1972]!	; 0x7b4

00000814 <__fprintf_chk@plt>:
 814:	e28fc600 	add	ip, pc, #0, 12
 818:	e28cca14 	add	ip, ip, #20, 20	; 0x14000
 81c:	e5bcf7ac 	ldr	pc, [ip, #1964]!	; 0x7ac

00000820 <fclose@plt>:
 820:	e28fc600 	add	ip, pc, #0, 12
 824:	e28cca14 	add	ip, ip, #20, 20	; 0x14000
 828:	e5bcf7a4 	ldr	pc, [ip, #1956]!	; 0x7a4

0000082c <munmap@plt>:
 82c:	e28fc600 	add	ip, pc, #0, 12
 830:	e28cca14 	add	ip, ip, #20, 20	; 0x14000
 834:	e5bcf79c 	ldr	pc, [ip, #1948]!	; 0x79c

00000838 <abort@plt>:
 838:	e28fc600 	add	ip, pc, #0, 12
 83c:	e28cca14 	add	ip, ip, #20, 20	; 0x14000
 840:	e5bcf794 	ldr	pc, [ip, #1940]!	; 0x794

00000844 <close@plt>:
 844:	e28fc600 	add	ip, pc, #0, 12
 848:	e28cca14 	add	ip, ip, #20, 20	; 0x14000
 84c:	e5bcf78c 	ldr	pc, [ip, #1932]!	; 0x78c

Disassembly of section .text:

00000850 <main>:
     850:	b570      	push	{r4, r5, r6, lr}
     852:	b086      	sub	sp, #24
     854:	4c29      	ldr	r4, [pc, #164]	; (8fc <main+0xac>)
     856:	4b2a      	ldr	r3, [pc, #168]	; (900 <main+0xb0>)
     858:	447c      	add	r4, pc
     85a:	58e6      	ldr	r6, [r4, r3]
     85c:	6833      	ldr	r3, [r6, #0]
     85e:	9305      	str	r3, [sp, #20]
     860:	f7ff ef7c 	blx	75c <getuid@plt>
     864:	2800      	cmp	r0, #0
     866:	d13c      	bne.n	8e2 <main+0x92>
     868:	4605      	mov	r5, r0
     86a:	f003 fab1 	bl	3dd0 <bcm2835_init>
     86e:	2801      	cmp	r0, #1
     870:	d12c      	bne.n	8cc <main+0x7c>
     872:	ac01      	add	r4, sp, #4
     874:	2140      	movs	r1, #64	; 0x40
     876:	4620      	mov	r0, r4
     878:	f000 f8d8 	bl	a2c <PCA9685Servo::PCA9685Servo(unsigned char)>
     87c:	4620      	mov	r0, r4
     87e:	f44f 712f 	mov.w	r1, #700	; 0x2bc
     882:	f000 f929 	bl	ad8 <PCA9685Servo::SetLeftUs(unsigned short)>
     886:	f44f 6116 	mov.w	r1, #2400	; 0x960
     88a:	4620      	mov	r0, r4
     88c:	f000 f942 	bl	b14 <PCA9685Servo::SetRightUs(unsigned short)>
     890:	4620      	mov	r0, r4
     892:	f001 fa1f 	bl	1cd4 <PCA9685::Dump()>
     896:	481b      	ldr	r0, [pc, #108]	; (904 <main+0xb4>)
     898:	4478      	add	r0, pc
     89a:	f7ff ef84 	blx	7a4 <puts@plt>
     89e:	2250      	movs	r2, #80	; 0x50
     8a0:	210f      	movs	r1, #15
     8a2:	4620      	mov	r0, r4
     8a4:	f000 fa0a 	bl	cbc <PCA9685Servo::SetAngle(unsigned char, unsigned char)>
     8a8:	4817      	ldr	r0, [pc, #92]	; (908 <main+0xb8>)
     8aa:	4478      	add	r0, pc
     8ac:	f7ff ef7a 	blx	7a4 <puts@plt>
     8b0:	4816      	ldr	r0, [pc, #88]	; (90c <main+0xbc>)
     8b2:	4478      	add	r0, pc
     8b4:	f7ff ef76 	blx	7a4 <puts@plt>
     8b8:	2004      	movs	r0, #4
     8ba:	f7ff ef5c 	blx	774 <sleep@plt>
     8be:	4628      	mov	r0, r5
     8c0:	9a05      	ldr	r2, [sp, #20]
     8c2:	6833      	ldr	r3, [r6, #0]
     8c4:	429a      	cmp	r2, r3
     8c6:	d117      	bne.n	8f8 <main+0xa8>
     8c8:	b006      	add	sp, #24
     8ca:	bd70      	pop	{r4, r5, r6, pc}
     8cc:	4b10      	ldr	r3, [pc, #64]	; (910 <main+0xc0>)
     8ce:	2101      	movs	r1, #1
     8d0:	4a10      	ldr	r2, [pc, #64]	; (914 <main+0xc4>)
     8d2:	58e3      	ldr	r3, [r4, r3]
     8d4:	447a      	add	r2, pc
     8d6:	6818      	ldr	r0, [r3, #0]
     8d8:	f7ff ef9c 	blx	814 <__fprintf_chk@plt>
     8dc:	f06f 0001 	mvn.w	r0, #1
     8e0:	e7ee      	b.n	8c0 <main+0x70>
     8e2:	4b0b      	ldr	r3, [pc, #44]	; (910 <main+0xc0>)
     8e4:	2101      	movs	r1, #1
     8e6:	4a0c      	ldr	r2, [pc, #48]	; (918 <main+0xc8>)
     8e8:	58e3      	ldr	r3, [r4, r3]
     8ea:	447a      	add	r2, pc
     8ec:	6818      	ldr	r0, [r3, #0]
     8ee:	f7ff ef92 	blx	814 <__fprintf_chk@plt>
     8f2:	f04f 30ff 	mov.w	r0, #4294967295
     8f6:	e7e3      	b.n	8c0 <main+0x70>
     8f8:	f7ff ef42 	blx	780 <__stack_chk_fail@plt>
     8fc:	00014718 	andeq	r4, r1, r8, lsl r7
     900:	00000074 	andeq	r0, r0, r4, ror r0
     904:	00003858 	andeq	r3, r0, r8, asr r8
     908:	00003862 	andeq	r3, r0, r2, ror #16
     90c:	00003872 	andeq	r3, r0, r2, ror r8
     910:	00000078 	andeq	r0, r0, r8, ror r0
     914:	00003820 	andeq	r3, r0, r0, lsr #16
     918:	000037de 	ldrdeq	r3, [r0], -lr

0000091c <_start>:
     91c:	f04f 0b00 	mov.w	fp, #0
     920:	f04f 0e00 	mov.w	lr, #0
     924:	bc02      	pop	{r1}
     926:	466a      	mov	r2, sp
     928:	b404      	push	{r2}
     92a:	b401      	push	{r0}
     92c:	f8df a024 	ldr.w	sl, [pc, #36]	; 954 <_start+0x38>
     930:	a308      	add	r3, pc, #32	; (adr r3, 954 <_start+0x38>)
     932:	449a      	add	sl, r3
     934:	f8df c020 	ldr.w	ip, [pc, #32]	; 958 <_start+0x3c>
     938:	f85a c00c 	ldr.w	ip, [sl, ip]
     93c:	f84d cd04 	str.w	ip, [sp, #-4]!
     940:	4b06      	ldr	r3, [pc, #24]	; (95c <_start+0x40>)
     942:	f85a 3003 	ldr.w	r3, [sl, r3]
     946:	4806      	ldr	r0, [pc, #24]	; (960 <_start+0x44>)
     948:	f85a 0000 	ldr.w	r0, [sl, r0]
     94c:	f7ff ef30 	blx	7b0 <__libc_start_main@plt>
     950:	f7ff ef72 	blx	838 <abort@plt>
     954:	00014620 	andeq	r4, r1, r0, lsr #12
     958:	00000068 	andeq	r0, r0, r8, rrx
     95c:	00000080 	andeq	r0, r0, r0, lsl #1
     960:	00000084 	andeq	r0, r0, r4, lsl #1

00000964 <call_weak_fn>:
     964:	e59f3014 	ldr	r3, [pc, #20]	; 980 <call_weak_fn+0x1c>
     968:	e59f2014 	ldr	r2, [pc, #20]	; 984 <call_weak_fn+0x20>
     96c:	e08f3003 	add	r3, pc, r3
     970:	e7932002 	ldr	r2, [r3, r2]
     974:	e3520000 	cmp	r2, #0
     978:	012fff1e 	bxeq	lr
     97c:	eaffff91 	b	7c8 <__gmon_start__@plt>
     980:	00014600 	andeq	r4, r1, r0, lsl #12
     984:	0000007c 	andeq	r0, r0, ip, ror r0

00000988 <deregister_tm_clones>:
     988:	4806      	ldr	r0, [pc, #24]	; (9a4 <deregister_tm_clones+0x1c>)
     98a:	4b07      	ldr	r3, [pc, #28]	; (9a8 <deregister_tm_clones+0x20>)
     98c:	4478      	add	r0, pc
     98e:	4a07      	ldr	r2, [pc, #28]	; (9ac <deregister_tm_clones+0x24>)
     990:	447b      	add	r3, pc
     992:	4283      	cmp	r3, r0
     994:	447a      	add	r2, pc
     996:	d003      	beq.n	9a0 <deregister_tm_clones+0x18>
     998:	4b05      	ldr	r3, [pc, #20]	; (9b0 <deregister_tm_clones+0x28>)
     99a:	58d3      	ldr	r3, [r2, r3]
     99c:	b103      	cbz	r3, 9a0 <deregister_tm_clones+0x18>
     99e:	4718      	bx	r3
     9a0:	4770      	bx	lr
     9a2:	bf00      	nop
     9a4:	000146c8 	andeq	r4, r1, r8, asr #13
     9a8:	000146c4 	andeq	r4, r1, r4, asr #13
     9ac:	000145dc 	ldrdeq	r4, [r1], -ip
     9b0:	00000070 	andeq	r0, r0, r0, ror r0

000009b4 <register_tm_clones>:
     9b4:	4808      	ldr	r0, [pc, #32]	; (9d8 <register_tm_clones+0x24>)
     9b6:	4b09      	ldr	r3, [pc, #36]	; (9dc <register_tm_clones+0x28>)
     9b8:	4478      	add	r0, pc
     9ba:	4a09      	ldr	r2, [pc, #36]	; (9e0 <register_tm_clones+0x2c>)
     9bc:	447b      	add	r3, pc
     9be:	1a19      	subs	r1, r3, r0
     9c0:	447a      	add	r2, pc
     9c2:	1089      	asrs	r1, r1, #2
     9c4:	eb01 71d1 	add.w	r1, r1, r1, lsr #31
     9c8:	1049      	asrs	r1, r1, #1
     9ca:	d003      	beq.n	9d4 <register_tm_clones+0x20>
     9cc:	4b05      	ldr	r3, [pc, #20]	; (9e4 <register_tm_clones+0x30>)
     9ce:	58d3      	ldr	r3, [r2, r3]
     9d0:	b103      	cbz	r3, 9d4 <register_tm_clones+0x20>
     9d2:	4718      	bx	r3
     9d4:	4770      	bx	lr
     9d6:	bf00      	nop
     9d8:	0001469c 	muleq	r1, ip, r6
     9dc:	00014698 	muleq	r1, r8, r6
     9e0:	000145b0 			; <UNDEFINED> instruction: 0x000145b0
     9e4:	00000088 	andeq	r0, r0, r8, lsl #1

000009e8 <__do_global_dtors_aux>:
     9e8:	b508      	push	{r3, lr}
     9ea:	4b0a      	ldr	r3, [pc, #40]	; (a14 <__do_global_dtors_aux+0x2c>)
     9ec:	4a0a      	ldr	r2, [pc, #40]	; (a18 <__do_global_dtors_aux+0x30>)
     9ee:	447b      	add	r3, pc
     9f0:	447a      	add	r2, pc
     9f2:	781b      	ldrb	r3, [r3, #0]
     9f4:	b96b      	cbnz	r3, a12 <__do_global_dtors_aux+0x2a>
     9f6:	4b09      	ldr	r3, [pc, #36]	; (a1c <__do_global_dtors_aux+0x34>)
     9f8:	58d3      	ldr	r3, [r2, r3]
     9fa:	b123      	cbz	r3, a06 <__do_global_dtors_aux+0x1e>
     9fc:	4b08      	ldr	r3, [pc, #32]	; (a20 <__do_global_dtors_aux+0x38>)
     9fe:	447b      	add	r3, pc
     a00:	6818      	ldr	r0, [r3, #0]
     a02:	f7ff eea0 	blx	744 <__cxa_finalize@plt>
     a06:	f7ff ffbf 	bl	988 <deregister_tm_clones>
     a0a:	4b06      	ldr	r3, [pc, #24]	; (a24 <__do_global_dtors_aux+0x3c>)
     a0c:	2201      	movs	r2, #1
     a0e:	447b      	add	r3, pc
     a10:	701a      	strb	r2, [r3, #0]
     a12:	bd08      	pop	{r3, pc}
     a14:	00014666 	andeq	r4, r1, r6, ror #12
     a18:	00014580 	andeq	r4, r1, r0, lsl #11
     a1c:	0000006c 	andeq	r0, r0, ip, rrx
     a20:	00014602 	andeq	r4, r1, r2, lsl #12
     a24:	00014646 	andeq	r4, r1, r6, asr #12

00000a28 <frame_dummy>:
     a28:	e7c4      	b.n	9b4 <register_tm_clones>
     a2a:	bf00      	nop

00000a2c <PCA9685Servo::PCA9685Servo(unsigned char)>:
     a2c:	b510      	push	{r4, lr}
     a2e:	4604      	mov	r4, r0
     a30:	f000 f99c 	bl	d6c <PCA9685::PCA9685(unsigned char)>
     a34:	f240 52dc 	movw	r2, #1500	; 0x5dc
     a38:	4620      	mov	r0, r4
     a3a:	80e2      	strh	r2, [r4, #6]
     a3c:	2100      	movs	r1, #0
     a3e:	f44f 737a 	mov.w	r3, #1000	; 0x3e8
     a42:	f2c0 73d0 	movt	r3, #2000	; 0x7d0
     a46:	f8c4 3002 	str.w	r3, [r4, #2]
     a4a:	f000 fd29 	bl	14a0 <PCA9685::SetInvert(bool)>
     a4e:	4620      	mov	r0, r4
     a50:	2101      	movs	r1, #1
     a52:	f000 fd9d 	bl	1590 <PCA9685::SetOutDriver(bool)>
     a56:	4620      	mov	r0, r4
     a58:	2132      	movs	r1, #50	; 0x32
     a5a:	f000 fb31 	bl	10c0 <PCA9685::SetFrequency(unsigned short)>
     a5e:	8863      	ldrh	r3, [r4, #2]
     a60:	eddf 7a1b 	vldr	s15, [pc, #108]	; ad0 <PCA9685Servo::PCA9685Servo(unsigned char)+0xa4>
     a64:	4620      	mov	r0, r4
     a66:	ee07 3a10 	vmov	s14, r3
     a6a:	88a3      	ldrh	r3, [r4, #4]
     a6c:	eddf 4a19 	vldr	s9, [pc, #100]	; ad4 <PCA9685Servo::PCA9685Servo(unsigned char)+0xa8>
     a70:	eeb8 7ac7 	vcvt.f32.s32	s14, s14
     a74:	ee05 3a90 	vmov	s11, r3
     a78:	88e3      	ldrh	r3, [r4, #6]
     a7a:	ee06 3a10 	vmov	s12, r3
     a7e:	ee27 7a27 	vmul.f32	s14, s14, s15
     a82:	eec7 6a24 	vdiv.f32	s13, s14, s9
     a86:	eef8 5ae5 	vcvt.f32.s32	s11, s11
     a8a:	ee65 5aa7 	vmul.f32	s11, s11, s15
     a8e:	ee85 7aa4 	vdiv.f32	s14, s11, s9
     a92:	eeb8 6ac6 	vcvt.f32.s32	s12, s12
     a96:	eeb6 5a00 	vmov.f32	s10, #96	; 0x3f000000  0.5
     a9a:	ee26 6a27 	vmul.f32	s12, s12, s15
     a9e:	ee76 6a85 	vadd.f32	s13, s13, s10
     aa2:	eec6 7a24 	vdiv.f32	s15, s12, s9
     aa6:	eefc 6ae6 	vcvt.u32.f32	s13, s13
     aaa:	ee16 3a90 	vmov	r3, s13
     aae:	ee37 7a05 	vadd.f32	s14, s14, s10
     ab2:	eebc 7ac7 	vcvt.u32.f32	s14, s14
     ab6:	ee77 7a85 	vadd.f32	s15, s15, s10
     aba:	8123      	strh	r3, [r4, #8]
     abc:	ee17 3a10 	vmov	r3, s14
     ac0:	eefc 7ae7 	vcvt.u32.f32	s15, s15
     ac4:	8163      	strh	r3, [r4, #10]
     ac6:	ee17 3a90 	vmov	r3, s15
     aca:	81a3      	strh	r3, [r4, #12]
     acc:	bd10      	pop	{r4, pc}
     ace:	bf00      	nop
     ad0:	434ccccd 	movtmi	ip, #52429	; 0xcccd
     ad4:	447a0000 	ldrbtmi	r0, [sl], #-0

00000ad8 <PCA9685Servo::SetLeftUs(unsigned short)>:
     ad8:	ee07 1a90 	vmov	s15, r1
     adc:	8041      	strh	r1, [r0, #2]
     ade:	ed9f 7a0a 	vldr	s14, [pc, #40]	; b08 <PCA9685Servo::SetLeftUs(unsigned short)+0x30>
     ae2:	eef8 7ae7 	vcvt.f32.s32	s15, s15
     ae6:	eddf 6a09 	vldr	s13, [pc, #36]	; b0c <PCA9685Servo::SetLeftUs(unsigned short)+0x34>
     aea:	ee67 7a87 	vmul.f32	s15, s15, s14
     aee:	ee87 7aa6 	vdiv.f32	s14, s15, s13
     af2:	eef6 7a00 	vmov.f32	s15, #96	; 0x3f000000  0.5
     af6:	ee77 7a27 	vadd.f32	s15, s14, s15
     afa:	eefc 7ae7 	vcvt.u32.f32	s15, s15
     afe:	ee17 3a90 	vmov	r3, s15
     b02:	8103      	strh	r3, [r0, #8]
     b04:	4770      	bx	lr
     b06:	bf00      	nop
     b08:	434ccccd 	movtmi	ip, #52429	; 0xcccd
     b0c:	447a0000 	ldrbtmi	r0, [sl], #-0

00000b10 <PCA9685Servo::GetLeftUs() const>:
     b10:	8840      	ldrh	r0, [r0, #2]
     b12:	4770      	bx	lr

00000b14 <PCA9685Servo::SetRightUs(unsigned short)>:
     b14:	ee07 1a90 	vmov	s15, r1
     b18:	8081      	strh	r1, [r0, #4]
     b1a:	ed9f 7a0a 	vldr	s14, [pc, #40]	; b44 <PCA9685Servo::SetRightUs(unsigned short)+0x30>
     b1e:	eef8 7ae7 	vcvt.f32.s32	s15, s15
     b22:	eddf 6a09 	vldr	s13, [pc, #36]	; b48 <PCA9685Servo::SetRightUs(unsigned short)+0x34>
     b26:	ee67 7a87 	vmul.f32	s15, s15, s14
     b2a:	ee87 7aa6 	vdiv.f32	s14, s15, s13
     b2e:	eef6 7a00 	vmov.f32	s15, #96	; 0x3f000000  0.5
     b32:	ee77 7a27 	vadd.f32	s15, s14, s15
     b36:	eefc 7ae7 	vcvt.u32.f32	s15, s15
     b3a:	ee17 3a90 	vmov	r3, s15
     b3e:	8143      	strh	r3, [r0, #10]
     b40:	4770      	bx	lr
     b42:	bf00      	nop
     b44:	434ccccd 	movtmi	ip, #52429	; 0xcccd
     b48:	447a0000 	ldrbtmi	r0, [sl], #-0

00000b4c <PCA9685Servo::GetRightUs() const>:
     b4c:	8880      	ldrh	r0, [r0, #4]
     b4e:	4770      	bx	lr

00000b50 <PCA9685Servo::SetCenterUs(unsigned short)>:
     b50:	ee07 1a90 	vmov	s15, r1
     b54:	80c1      	strh	r1, [r0, #6]
     b56:	ed9f 7a0a 	vldr	s14, [pc, #40]	; b80 <PCA9685Servo::SetCenterUs(unsigned short)+0x30>
     b5a:	eef8 7ae7 	vcvt.f32.s32	s15, s15
     b5e:	eddf 6a09 	vldr	s13, [pc, #36]	; b84 <PCA9685Servo::SetCenterUs(unsigned short)+0x34>
     b62:	ee67 7a87 	vmul.f32	s15, s15, s14
     b66:	ee87 7aa6 	vdiv.f32	s14, s15, s13
     b6a:	eef6 7a00 	vmov.f32	s15, #96	; 0x3f000000  0.5
     b6e:	ee77 7a27 	vadd.f32	s15, s14, s15
     b72:	eefc 7ae7 	vcvt.u32.f32	s15, s15
     b76:	ee17 3a90 	vmov	r3, s15
     b7a:	8183      	strh	r3, [r0, #12]
     b7c:	4770      	bx	lr
     b7e:	bf00      	nop
     b80:	434ccccd 	movtmi	ip, #52429	; 0xcccd
     b84:	447a0000 	ldrbtmi	r0, [sl], #-0

00000b88 <PCA9685Servo::GetCenterUs() const>:
     b88:	88c0      	ldrh	r0, [r0, #6]
     b8a:	4770      	bx	lr

00000b8c <PCA9685Servo::CalcLeftCount()>:
     b8c:	8843      	ldrh	r3, [r0, #2]
     b8e:	eddf 7a0b 	vldr	s15, [pc, #44]	; bbc <PCA9685Servo::CalcLeftCount()+0x30>
     b92:	ee07 3a10 	vmov	s14, r3
     b96:	eddf 6a0a 	vldr	s13, [pc, #40]	; bc0 <PCA9685Servo::CalcLeftCount()+0x34>
     b9a:	eeb8 7ac7 	vcvt.f32.s32	s14, s14
     b9e:	ee27 7a27 	vmul.f32	s14, s14, s15
     ba2:	eec7 7a26 	vdiv.f32	s15, s14, s13
     ba6:	eeb6 7a00 	vmov.f32	s14, #96	; 0x3f000000  0.5
     baa:	ee77 7a87 	vadd.f32	s15, s15, s14
     bae:	eefc 7ae7 	vcvt.u32.f32	s15, s15
     bb2:	ee17 3a90 	vmov	r3, s15
     bb6:	8103      	strh	r3, [r0, #8]
     bb8:	4770      	bx	lr
     bba:	bf00      	nop
     bbc:	434ccccd 	movtmi	ip, #52429	; 0xcccd
     bc0:	447a0000 	ldrbtmi	r0, [sl], #-0

00000bc4 <PCA9685Servo::CalcRightCount()>:
     bc4:	8883      	ldrh	r3, [r0, #4]
     bc6:	eddf 7a0b 	vldr	s15, [pc, #44]	; bf4 <PCA9685Servo::CalcRightCount()+0x30>
     bca:	ee07 3a10 	vmov	s14, r3
     bce:	eddf 6a0a 	vldr	s13, [pc, #40]	; bf8 <PCA9685Servo::CalcRightCount()+0x34>
     bd2:	eeb8 7ac7 	vcvt.f32.s32	s14, s14
     bd6:	ee27 7a27 	vmul.f32	s14, s14, s15
     bda:	eec7 7a26 	vdiv.f32	s15, s14, s13
     bde:	eeb6 7a00 	vmov.f32	s14, #96	; 0x3f000000  0.5
     be2:	ee77 7a87 	vadd.f32	s15, s15, s14
     be6:	eefc 7ae7 	vcvt.u32.f32	s15, s15
     bea:	ee17 3a90 	vmov	r3, s15
     bee:	8143      	strh	r3, [r0, #10]
     bf0:	4770      	bx	lr
     bf2:	bf00      	nop
     bf4:	434ccccd 	movtmi	ip, #52429	; 0xcccd
     bf8:	447a0000 	ldrbtmi	r0, [sl], #-0

00000bfc <PCA9685Servo::CalcCenterCount()>:
     bfc:	88c3      	ldrh	r3, [r0, #6]
     bfe:	eddf 7a0b 	vldr	s15, [pc, #44]	; c2c <PCA9685Servo::CalcCenterCount()+0x30>
     c02:	ee07 3a10 	vmov	s14, r3
     c06:	eddf 6a0a 	vldr	s13, [pc, #40]	; c30 <PCA9685Servo::CalcCenterCount()+0x34>
     c0a:	eeb8 7ac7 	vcvt.f32.s32	s14, s14
     c0e:	ee27 7a27 	vmul.f32	s14, s14, s15
     c12:	eec7 7a26 	vdiv.f32	s15, s14, s13
     c16:	eeb6 7a00 	vmov.f32	s14, #96	; 0x3f000000  0.5
     c1a:	ee77 7a87 	vadd.f32	s15, s15, s14
     c1e:	eefc 7ae7 	vcvt.u32.f32	s15, s15
     c22:	ee17 3a90 	vmov	r3, s15
     c26:	8183      	strh	r3, [r0, #12]
     c28:	4770      	bx	lr
     c2a:	bf00      	nop
     c2c:	434ccccd 	movtmi	ip, #52429	; 0xcccd
     c30:	447a0000 	ldrbtmi	r0, [sl], #-0

00000c34 <PCA9685Servo::Set(unsigned char, unsigned short)>:
     c34:	8943      	ldrh	r3, [r0, #10]
     c36:	4293      	cmp	r3, r2
     c38:	d303      	bcc.n	c42 <PCA9685Servo::Set(unsigned char, unsigned short)+0xe>
     c3a:	8903      	ldrh	r3, [r0, #8]
     c3c:	4293      	cmp	r3, r2
     c3e:	bf38      	it	cc
     c40:	4613      	movcc	r3, r2
     c42:	461a      	mov	r2, r3
     c44:	f000 bd52 	b.w	16ec <PCA9685::Write(unsigned char, unsigned short)>

00000c48 <PCA9685Servo::Set(unsigned char, unsigned char)>:
     c48:	b410      	push	{r4}
     c4a:	b32a      	cbz	r2, c98 <PCA9685Servo::Set(unsigned char, unsigned char)+0x50>
     c4c:	2a80      	cmp	r2, #128	; 0x80
     c4e:	d02d      	beq.n	cac <PCA9685Servo::Set(unsigned char, unsigned char)+0x64>
     c50:	2aff      	cmp	r2, #255	; 0xff
     c52:	8943      	ldrh	r3, [r0, #10]
     c54:	d025      	beq.n	ca2 <PCA9685Servo::Set(unsigned char, unsigned char)+0x5a>
     c56:	8904      	ldrh	r4, [r0, #8]
     c58:	eeb6 7a00 	vmov.f32	s14, #96	; 0x3f000000  0.5
     c5c:	eddf 7a16 	vldr	s15, [pc, #88]	; cb8 <PCA9685Servo::Set(unsigned char, unsigned char)+0x70>
     c60:	1b1b      	subs	r3, r3, r4
     c62:	ee06 3a90 	vmov	s13, r3
     c66:	eef8 6ae6 	vcvt.f32.s32	s13, s13
     c6a:	ee86 6aa7 	vdiv.f32	s12, s13, s15
     c6e:	ee07 2a90 	vmov	s15, r2
     c72:	ee06 4a90 	vmov	s13, r4
     c76:	f85d 4b04 	ldr.w	r4, [sp], #4
     c7a:	eef8 7ae7 	vcvt.f32.s32	s15, s15
     c7e:	eef8 6ae6 	vcvt.f32.s32	s13, s13
     c82:	ee06 7a27 	vmla.f32	s14, s12, s15
     c86:	ee77 7a26 	vadd.f32	s15, s14, s13
     c8a:	eefc 7ae7 	vcvt.u32.f32	s15, s15
     c8e:	ee17 3a90 	vmov	r3, s15
     c92:	b29a      	uxth	r2, r3
     c94:	f000 bd2a 	b.w	16ec <PCA9685::Write(unsigned char, unsigned short)>
     c98:	8902      	ldrh	r2, [r0, #8]
     c9a:	f85d 4b04 	ldr.w	r4, [sp], #4
     c9e:	f000 bd25 	b.w	16ec <PCA9685::Write(unsigned char, unsigned short)>
     ca2:	461a      	mov	r2, r3
     ca4:	f85d 4b04 	ldr.w	r4, [sp], #4
     ca8:	f000 bd20 	b.w	16ec <PCA9685::Write(unsigned char, unsigned short)>
     cac:	8982      	ldrh	r2, [r0, #12]
     cae:	f85d 4b04 	ldr.w	r4, [sp], #4
     cb2:	f000 bd1b 	b.w	16ec <PCA9685::Write(unsigned char, unsigned short)>
     cb6:	bf00      	nop
     cb8:	437f0000 	cmnmi	pc, #0

00000cbc <PCA9685Servo::SetAngle(unsigned char, unsigned char)>:
     cbc:	b410      	push	{r4}
     cbe:	b37a      	cbz	r2, d20 <PCA9685Servo::SetAngle(unsigned char, unsigned char)+0x64>
     cc0:	2a5a      	cmp	r2, #90	; 0x5a
     cc2:	d04c      	beq.n	d5e <PCA9685Servo::SetAngle(unsigned char, unsigned char)+0xa2>
     cc4:	2ab3      	cmp	r2, #179	; 0xb3
     cc6:	d830      	bhi.n	d2a <PCA9685Servo::SetAngle(unsigned char, unsigned char)+0x6e>
     cc8:	ee07 2a90 	vmov	s15, r2
     ccc:	2a59      	cmp	r2, #89	; 0x59
     cce:	8983      	ldrh	r3, [r0, #12]
     cd0:	eeb8 6ae7 	vcvt.f32.s32	s12, s15
     cd4:	d92e      	bls.n	d34 <PCA9685Servo::SetAngle(unsigned char, unsigned char)+0x78>
     cd6:	8942      	ldrh	r2, [r0, #10]
     cd8:	ed9f 7a23 	vldr	s14, [pc, #140]	; d68 <PCA9685Servo::SetAngle(unsigned char, unsigned char)+0xac>
     cdc:	1ad4      	subs	r4, r2, r3
     cde:	ee07 4a90 	vmov	s15, r4
     ce2:	eef8 7ae7 	vcvt.f32.s32	s15, s15
     ce6:	eec7 5a87 	vdiv.f32	s11, s15, s14
     cea:	ee07 3a90 	vmov	s15, r3
     cee:	eef6 6a00 	vmov.f32	s13, #96	; 0x3f000000  0.5
     cf2:	eef8 7ae7 	vcvt.f32.s32	s15, s15
     cf6:	ee37 7aa7 	vadd.f32	s14, s15, s15
     cfa:	ee07 2a90 	vmov	s15, r2
     cfe:	ee45 6a86 	vmla.f32	s13, s11, s12
     d02:	eef8 7ae7 	vcvt.f32.s32	s15, s15
     d06:	ee77 7a67 	vsub.f32	s15, s14, s15
     d0a:	ee76 7aa7 	vadd.f32	s15, s13, s15
     d0e:	f85d 4b04 	ldr.w	r4, [sp], #4
     d12:	eefc 7ae7 	vcvt.u32.f32	s15, s15
     d16:	ee17 3a90 	vmov	r3, s15
     d1a:	b29a      	uxth	r2, r3
     d1c:	f000 bce6 	b.w	16ec <PCA9685::Write(unsigned char, unsigned short)>
     d20:	8902      	ldrh	r2, [r0, #8]
     d22:	f85d 4b04 	ldr.w	r4, [sp], #4
     d26:	f000 bce1 	b.w	16ec <PCA9685::Write(unsigned char, unsigned short)>
     d2a:	8942      	ldrh	r2, [r0, #10]
     d2c:	f85d 4b04 	ldr.w	r4, [sp], #4
     d30:	f000 bcdc 	b.w	16ec <PCA9685::Write(unsigned char, unsigned short)>
     d34:	8902      	ldrh	r2, [r0, #8]
     d36:	ed9f 7a0c 	vldr	s14, [pc, #48]	; d68 <PCA9685Servo::SetAngle(unsigned char, unsigned char)+0xac>
     d3a:	1a9b      	subs	r3, r3, r2
     d3c:	ee07 3a90 	vmov	s15, r3
     d40:	eef8 7ae7 	vcvt.f32.s32	s15, s15
     d44:	eec7 6a87 	vdiv.f32	s13, s15, s14
     d48:	ee07 2a10 	vmov	s14, r2
     d4c:	eef6 7a00 	vmov.f32	s15, #96	; 0x3f000000  0.5
     d50:	eeb8 7ac7 	vcvt.f32.s32	s14, s14
     d54:	ee46 7a86 	vmla.f32	s15, s13, s12
     d58:	ee77 7a87 	vadd.f32	s15, s15, s14
     d5c:	e7d7      	b.n	d0e <PCA9685Servo::SetAngle(unsigned char, unsigned char)+0x52>
     d5e:	8982      	ldrh	r2, [r0, #12]
     d60:	f85d 4b04 	ldr.w	r4, [sp], #4
     d64:	f000 bcc2 	b.w	16ec <PCA9685::Write(unsigned char, unsigned short)>
     d68:	42b40000 	adcsmi	r0, r4, #0

00000d6c <PCA9685::PCA9685(unsigned char)>:
     d6c:	4b4c      	ldr	r3, [pc, #304]	; (ea0 <PCA9685::PCA9685(unsigned char)+0x134>)
     d6e:	4a4d      	ldr	r2, [pc, #308]	; (ea4 <PCA9685::PCA9685(unsigned char)+0x138>)
     d70:	447b      	add	r3, pc
     d72:	e92d 4ff0 	stmdb	sp!, {r4, r5, r6, r7, r8, r9, sl, fp, lr}
     d76:	b085      	sub	sp, #20
     d78:	f853 a002 	ldr.w	sl, [r3, r2]
     d7c:	4605      	mov	r5, r0
     d7e:	f10d 0910 	add.w	r9, sp, #16
     d82:	f04f 0800 	mov.w	r8, #0
     d86:	ae01      	add	r6, sp, #4
     d88:	f44f 57d4 	mov.w	r7, #6784	; 0x1a80
     d8c:	f8da 3000 	ldr.w	r3, [sl]
     d90:	f2c0 0706 	movt	r7, #6
     d94:	7001      	strb	r1, [r0, #0]
     d96:	46c3      	mov	fp, r8
     d98:	2406      	movs	r4, #6
     d9a:	9303      	str	r3, [sp, #12]
     d9c:	f002 f8bc 	bl	2f18 <bcm2835_i2c_begin>
     da0:	7828      	ldrb	r0, [r5, #0]
     da2:	f809 8d0d 	strb.w	r8, [r9, #-13]!
     da6:	f002 f90b 	bl	2fc0 <bcm2835_i2c_setSlaveAddress>
     daa:	f44f 50d4 	mov.w	r0, #6784	; 0x1a80
     dae:	f2c0 0006 	movt	r0, #6
     db2:	f002 f93b 	bl	302c <bcm2835_i2c_set_baudrate>
     db6:	2101      	movs	r1, #1
     db8:	4648      	mov	r0, r9
     dba:	f002 f947 	bl	304c <bcm2835_i2c_write>
     dbe:	2101      	movs	r1, #1
     dc0:	4648      	mov	r0, r9
     dc2:	f002 f9bf 	bl	3144 <bcm2835_i2c_read>
     dc6:	f89d 3003 	ldrb.w	r3, [sp, #3]
     dca:	7828      	ldrb	r0, [r5, #0]
     dcc:	f003 03df 	and.w	r3, r3, #223	; 0xdf
     dd0:	f88d 8004 	strb.w	r8, [sp, #4]
     dd4:	f043 0320 	orr.w	r3, r3, #32
     dd8:	f88d 3005 	strb.w	r3, [sp, #5]
     ddc:	f002 f8f0 	bl	2fc0 <bcm2835_i2c_setSlaveAddress>
     de0:	f44f 50d4 	mov.w	r0, #6784	; 0x1a80
     de4:	f2c0 0006 	movt	r0, #6
     de8:	f04f 0810 	mov.w	r8, #16
     dec:	f002 f91e 	bl	302c <bcm2835_i2c_set_baudrate>
     df0:	4630      	mov	r0, r6
     df2:	2102      	movs	r1, #2
     df4:	f002 f92a 	bl	304c <bcm2835_i2c_write>
     df8:	7828      	ldrb	r0, [r5, #0]
     dfa:	f88d 4004 	strb.w	r4, [sp, #4]
     dfe:	3404      	adds	r4, #4
     e00:	f88d b005 	strb.w	fp, [sp, #5]
     e04:	f88d b006 	strb.w	fp, [sp, #6]
     e08:	b2e4      	uxtb	r4, r4
     e0a:	f88d b007 	strb.w	fp, [sp, #7]
     e0e:	f88d 8008 	strb.w	r8, [sp, #8]
     e12:	f002 f8d5 	bl	2fc0 <bcm2835_i2c_setSlaveAddress>
     e16:	4638      	mov	r0, r7
     e18:	f002 f908 	bl	302c <bcm2835_i2c_set_baudrate>
     e1c:	2105      	movs	r1, #5
     e1e:	4630      	mov	r0, r6
     e20:	f002 f914 	bl	304c <bcm2835_i2c_write>
     e24:	2c46      	cmp	r4, #70	; 0x46
     e26:	d1e7      	bne.n	df8 <PCA9685::PCA9685(unsigned char)+0x8c>
     e28:	7828      	ldrb	r0, [r5, #0]
     e2a:	f88d b003 	strb.w	fp, [sp, #3]
     e2e:	f002 f8c7 	bl	2fc0 <bcm2835_i2c_setSlaveAddress>
     e32:	f44f 50d4 	mov.w	r0, #6784	; 0x1a80
     e36:	f2c0 0006 	movt	r0, #6
     e3a:	f002 f8f7 	bl	302c <bcm2835_i2c_set_baudrate>
     e3e:	2101      	movs	r1, #1
     e40:	4648      	mov	r0, r9
     e42:	f002 f903 	bl	304c <bcm2835_i2c_write>
     e46:	2101      	movs	r1, #1
     e48:	4648      	mov	r0, r9
     e4a:	f002 f97b 	bl	3144 <bcm2835_i2c_read>
     e4e:	f89d 4003 	ldrb.w	r4, [sp, #3]
     e52:	7828      	ldrb	r0, [r5, #0]
     e54:	f004 04ef 	and.w	r4, r4, #239	; 0xef
     e58:	f88d b004 	strb.w	fp, [sp, #4]
     e5c:	f88d 4005 	strb.w	r4, [sp, #5]
     e60:	f002 f8ae 	bl	2fc0 <bcm2835_i2c_setSlaveAddress>
     e64:	f44f 50d4 	mov.w	r0, #6784	; 0x1a80
     e68:	f2c0 0006 	movt	r0, #6
     e6c:	f002 f8de 	bl	302c <bcm2835_i2c_set_baudrate>
     e70:	4630      	mov	r0, r6
     e72:	2102      	movs	r1, #2
     e74:	f002 f8ea 	bl	304c <bcm2835_i2c_write>
     e78:	f014 0f6f 	tst.w	r4, #111	; 0x6f
     e7c:	d004      	beq.n	e88 <PCA9685::PCA9685(unsigned char)+0x11c>
     e7e:	f44f 70fa 	mov.w	r0, #500	; 0x1f4
     e82:	2100      	movs	r1, #0
     e84:	f002 fc24 	bl	36d0 <bcm2835_delayMicroseconds>
     e88:	9a03      	ldr	r2, [sp, #12]
     e8a:	4628      	mov	r0, r5
     e8c:	f8da 3000 	ldr.w	r3, [sl]
     e90:	429a      	cmp	r2, r3
     e92:	d102      	bne.n	e9a <PCA9685::PCA9685(unsigned char)+0x12e>
     e94:	b005      	add	sp, #20
     e96:	e8bd 8ff0 	ldmia.w	sp!, {r4, r5, r6, r7, r8, r9, sl, fp, pc}
     e9a:	f7ff ec72 	blx	780 <__stack_chk_fail@plt>
     e9e:	bf00      	nop
     ea0:	00014200 	andeq	r4, r1, r0, lsl #4
     ea4:	00000074 	andeq	r0, r0, r4, ror r0

00000ea8 <PCA9685::Sleep(bool)>:
     ea8:	4b23      	ldr	r3, [pc, #140]	; (f38 <PCA9685::Sleep(bool)+0x90>)
     eaa:	4a24      	ldr	r2, [pc, #144]	; (f3c <PCA9685::Sleep(bool)+0x94>)
     eac:	447b      	add	r3, pc
     eae:	b5f0      	push	{r4, r5, r6, r7, lr}
     eb0:	b085      	sub	sp, #20
     eb2:	589d      	ldr	r5, [r3, r2]
     eb4:	ac04      	add	r4, sp, #16
     eb6:	4606      	mov	r6, r0
     eb8:	7800      	ldrb	r0, [r0, #0]
     eba:	460f      	mov	r7, r1
     ebc:	2100      	movs	r1, #0
     ebe:	682b      	ldr	r3, [r5, #0]
     ec0:	f804 1d09 	strb.w	r1, [r4, #-9]!
     ec4:	9303      	str	r3, [sp, #12]
     ec6:	f002 f87b 	bl	2fc0 <bcm2835_i2c_setSlaveAddress>
     eca:	f44f 50d4 	mov.w	r0, #6784	; 0x1a80
     ece:	f2c0 0006 	movt	r0, #6
     ed2:	f002 f8ab 	bl	302c <bcm2835_i2c_set_baudrate>
     ed6:	4620      	mov	r0, r4
     ed8:	2101      	movs	r1, #1
     eda:	f002 f8b7 	bl	304c <bcm2835_i2c_write>
     ede:	4620      	mov	r0, r4
     ee0:	2101      	movs	r1, #1
     ee2:	f002 f92f 	bl	3144 <bcm2835_i2c_read>
     ee6:	f89d 4007 	ldrb.w	r4, [sp, #7]
     eea:	f004 04ef 	and.w	r4, r4, #239	; 0xef
     eee:	b10f      	cbz	r7, ef4 <PCA9685::Sleep(bool)+0x4c>
     ef0:	f044 0410 	orr.w	r4, r4, #16
     ef4:	7830      	ldrb	r0, [r6, #0]
     ef6:	2300      	movs	r3, #0
     ef8:	f88d 4009 	strb.w	r4, [sp, #9]
     efc:	f88d 3008 	strb.w	r3, [sp, #8]
     f00:	f002 f85e 	bl	2fc0 <bcm2835_i2c_setSlaveAddress>
     f04:	f44f 50d4 	mov.w	r0, #6784	; 0x1a80
     f08:	f2c0 0006 	movt	r0, #6
     f0c:	f002 f88e 	bl	302c <bcm2835_i2c_set_baudrate>
     f10:	2102      	movs	r1, #2
     f12:	a802      	add	r0, sp, #8
     f14:	f002 f89a 	bl	304c <bcm2835_i2c_write>
     f18:	0663      	lsls	r3, r4, #25
     f1a:	d004      	beq.n	f26 <PCA9685::Sleep(bool)+0x7e>
     f1c:	f44f 70fa 	mov.w	r0, #500	; 0x1f4
     f20:	2100      	movs	r1, #0
     f22:	f002 fbd5 	bl	36d0 <bcm2835_delayMicroseconds>
     f26:	9a03      	ldr	r2, [sp, #12]
     f28:	682b      	ldr	r3, [r5, #0]
     f2a:	429a      	cmp	r2, r3
     f2c:	d101      	bne.n	f32 <PCA9685::Sleep(bool)+0x8a>
     f2e:	b005      	add	sp, #20
     f30:	bdf0      	pop	{r4, r5, r6, r7, pc}
     f32:	f7ff ec26 	blx	780 <__stack_chk_fail@plt>
     f36:	bf00      	nop
     f38:	000140c4 	andeq	r4, r1, r4, asr #1
     f3c:	00000074 	andeq	r0, r0, r4, ror r0

00000f40 <PCA9685::SetPreScaller(unsigned char)>:
     f40:	4b47      	ldr	r3, [pc, #284]	; (1060 <PCA9685::SetPreScaller(unsigned char)+0x120>)
     f42:	4a48      	ldr	r2, [pc, #288]	; (1064 <PCA9685::SetPreScaller(unsigned char)+0x124>)
     f44:	447b      	add	r3, pc
     f46:	e92d 43f0 	stmdb	sp!, {r4, r5, r6, r7, r8, r9, lr}
     f4a:	b085      	sub	sp, #20
     f4c:	589f      	ldr	r7, [r3, r2]
     f4e:	ac04      	add	r4, sp, #16
     f50:	4606      	mov	r6, r0
     f52:	7800      	ldrb	r0, [r0, #0]
     f54:	4689      	mov	r9, r1
     f56:	f04f 0800 	mov.w	r8, #0
     f5a:	683b      	ldr	r3, [r7, #0]
     f5c:	ad02      	add	r5, sp, #8
     f5e:	f804 8d09 	strb.w	r8, [r4, #-9]!
     f62:	9303      	str	r3, [sp, #12]
     f64:	f002 f82c 	bl	2fc0 <bcm2835_i2c_setSlaveAddress>
     f68:	f44f 50d4 	mov.w	r0, #6784	; 0x1a80
     f6c:	f2c0 0006 	movt	r0, #6
     f70:	f002 f85c 	bl	302c <bcm2835_i2c_set_baudrate>
     f74:	4620      	mov	r0, r4
     f76:	2101      	movs	r1, #1
     f78:	f002 f868 	bl	304c <bcm2835_i2c_write>
     f7c:	2101      	movs	r1, #1
     f7e:	4620      	mov	r0, r4
     f80:	f002 f8e0 	bl	3144 <bcm2835_i2c_read>
     f84:	f89d 3007 	ldrb.w	r3, [sp, #7]
     f88:	7830      	ldrb	r0, [r6, #0]
     f8a:	f003 03ef 	and.w	r3, r3, #239	; 0xef
     f8e:	f88d 8008 	strb.w	r8, [sp, #8]
     f92:	f043 0310 	orr.w	r3, r3, #16
     f96:	f88d 3009 	strb.w	r3, [sp, #9]
     f9a:	f002 f811 	bl	2fc0 <bcm2835_i2c_setSlaveAddress>
     f9e:	f44f 50d4 	mov.w	r0, #6784	; 0x1a80
     fa2:	f2c0 0006 	movt	r0, #6
     fa6:	f002 f841 	bl	302c <bcm2835_i2c_set_baudrate>
     faa:	2102      	movs	r1, #2
     fac:	4628      	mov	r0, r5
     fae:	f002 f84d 	bl	304c <bcm2835_i2c_write>
     fb2:	2100      	movs	r1, #0
     fb4:	f44f 70fa 	mov.w	r0, #500	; 0x1f4
     fb8:	f002 fb8a 	bl	36d0 <bcm2835_delayMicroseconds>
     fbc:	f1b9 0f03 	cmp.w	r9, #3
     fc0:	7830      	ldrb	r0, [r6, #0]
     fc2:	f04f 03fe 	mov.w	r3, #254	; 0xfe
     fc6:	bf38      	it	cc
     fc8:	f04f 0903 	movcc.w	r9, #3
     fcc:	f88d 3008 	strb.w	r3, [sp, #8]
     fd0:	f88d 9009 	strb.w	r9, [sp, #9]
     fd4:	f001 fff4 	bl	2fc0 <bcm2835_i2c_setSlaveAddress>
     fd8:	f44f 50d4 	mov.w	r0, #6784	; 0x1a80
     fdc:	f2c0 0006 	movt	r0, #6
     fe0:	f002 f824 	bl	302c <bcm2835_i2c_set_baudrate>
     fe4:	2102      	movs	r1, #2
     fe6:	4628      	mov	r0, r5
     fe8:	f002 f830 	bl	304c <bcm2835_i2c_write>
     fec:	7830      	ldrb	r0, [r6, #0]
     fee:	f88d 8007 	strb.w	r8, [sp, #7]
     ff2:	f001 ffe5 	bl	2fc0 <bcm2835_i2c_setSlaveAddress>
     ff6:	f44f 50d4 	mov.w	r0, #6784	; 0x1a80
     ffa:	f2c0 0006 	movt	r0, #6
     ffe:	f002 f815 	bl	302c <bcm2835_i2c_set_baudrate>
    1002:	4620      	mov	r0, r4
    1004:	2101      	movs	r1, #1
    1006:	f002 f821 	bl	304c <bcm2835_i2c_write>
    100a:	2101      	movs	r1, #1
    100c:	4620      	mov	r0, r4
    100e:	f002 f899 	bl	3144 <bcm2835_i2c_read>
    1012:	f89d 4007 	ldrb.w	r4, [sp, #7]
    1016:	7830      	ldrb	r0, [r6, #0]
    1018:	f004 04ef 	and.w	r4, r4, #239	; 0xef
    101c:	f88d 8008 	strb.w	r8, [sp, #8]
    1020:	f88d 4009 	strb.w	r4, [sp, #9]
    1024:	f001 ffcc 	bl	2fc0 <bcm2835_i2c_setSlaveAddress>
    1028:	f44f 50d4 	mov.w	r0, #6784	; 0x1a80
    102c:	f2c0 0006 	movt	r0, #6
    1030:	f001 fffc 	bl	302c <bcm2835_i2c_set_baudrate>
    1034:	4628      	mov	r0, r5
    1036:	2102      	movs	r1, #2
    1038:	f002 f808 	bl	304c <bcm2835_i2c_write>
    103c:	f014 0f6f 	tst.w	r4, #111	; 0x6f
    1040:	d004      	beq.n	104c <PCA9685::SetPreScaller(unsigned char)+0x10c>
    1042:	f44f 70fa 	mov.w	r0, #500	; 0x1f4
    1046:	2100      	movs	r1, #0
    1048:	f002 fb42 	bl	36d0 <bcm2835_delayMicroseconds>
    104c:	9a03      	ldr	r2, [sp, #12]
    104e:	683b      	ldr	r3, [r7, #0]
    1050:	429a      	cmp	r2, r3
    1052:	d102      	bne.n	105a <PCA9685::SetPreScaller(unsigned char)+0x11a>
    1054:	b005      	add	sp, #20
    1056:	e8bd 83f0 	ldmia.w	sp!, {r4, r5, r6, r7, r8, r9, pc}
    105a:	f7ff eb92 	blx	780 <__stack_chk_fail@plt>
    105e:	bf00      	nop
    1060:	0001402c 	andeq	r4, r1, ip, lsr #32
    1064:	00000074 	andeq	r0, r0, r4, ror r0

00001068 <PCA9685::GetPreScaller()>:
    1068:	4b13      	ldr	r3, [pc, #76]	; (10b8 <PCA9685::GetPreScaller()+0x50>)
    106a:	21fe      	movs	r1, #254	; 0xfe
    106c:	4a13      	ldr	r2, [pc, #76]	; (10bc <PCA9685::GetPreScaller()+0x54>)
    106e:	447b      	add	r3, pc
    1070:	b530      	push	{r4, r5, lr}
    1072:	b083      	sub	sp, #12
    1074:	589d      	ldr	r5, [r3, r2]
    1076:	ac02      	add	r4, sp, #8
    1078:	7800      	ldrb	r0, [r0, #0]
    107a:	f804 1d05 	strb.w	r1, [r4, #-5]!
    107e:	682b      	ldr	r3, [r5, #0]
    1080:	9301      	str	r3, [sp, #4]
    1082:	f001 ff9d 	bl	2fc0 <bcm2835_i2c_setSlaveAddress>
    1086:	f44f 50d4 	mov.w	r0, #6784	; 0x1a80
    108a:	f2c0 0006 	movt	r0, #6
    108e:	f001 ffcd 	bl	302c <bcm2835_i2c_set_baudrate>
    1092:	2101      	movs	r1, #1
    1094:	4620      	mov	r0, r4
    1096:	f001 ffd9 	bl	304c <bcm2835_i2c_write>
    109a:	4620      	mov	r0, r4
    109c:	2101      	movs	r1, #1
    109e:	f002 f851 	bl	3144 <bcm2835_i2c_read>
    10a2:	9a01      	ldr	r2, [sp, #4]
    10a4:	682b      	ldr	r3, [r5, #0]
    10a6:	f89d 0003 	ldrb.w	r0, [sp, #3]
    10aa:	429a      	cmp	r2, r3
    10ac:	d101      	bne.n	10b2 <PCA9685::GetPreScaller()+0x4a>
    10ae:	b003      	add	sp, #12
    10b0:	bd30      	pop	{r4, r5, pc}
    10b2:	f7ff eb66 	blx	780 <__stack_chk_fail@plt>
    10b6:	bf00      	nop
    10b8:	00013f02 	andeq	r3, r1, r2, lsl #30
    10bc:	00000074 	andeq	r0, r0, r4, ror r0

000010c0 <PCA9685::SetFrequency(unsigned short)>:
    10c0:	e92d 41f0 	stmdb	sp!, {r4, r5, r6, r7, r8, lr}
    10c4:	2918      	cmp	r1, #24
    10c6:	ed2d 8b02 	vpush	{d8}
    10ca:	4606      	mov	r6, r0
    10cc:	4b54      	ldr	r3, [pc, #336]	; (1220 <PCA9685::SetFrequency(unsigned short)+0x160>)
    10ce:	bf38      	it	cc
    10d0:	2118      	movcc	r1, #24
    10d2:	4a54      	ldr	r2, [pc, #336]	; (1224 <PCA9685::SetFrequency(unsigned short)+0x164>)
    10d4:	f240 50f6 	movw	r0, #1526	; 0x5f6
    10d8:	447b      	add	r3, pc
    10da:	4281      	cmp	r1, r0
    10dc:	b086      	sub	sp, #24
    10de:	f04f 0800 	mov.w	r8, #0
    10e2:	589f      	ldr	r7, [r3, r2]
    10e4:	bf28      	it	cs
    10e6:	4601      	movcs	r1, r0
    10e8:	ee07 1a90 	vmov	s15, r1
    10ec:	ac06      	add	r4, sp, #24
    10ee:	7830      	ldrb	r0, [r6, #0]
    10f0:	ad04      	add	r5, sp, #16
    10f2:	683b      	ldr	r3, [r7, #0]
    10f4:	eeb8 8a67 	vcvt.f32.u32	s16, s15
    10f8:	f804 8d09 	strb.w	r8, [r4, #-9]!
    10fc:	9305      	str	r3, [sp, #20]
    10fe:	f001 ff5f 	bl	2fc0 <bcm2835_i2c_setSlaveAddress>
    1102:	f44f 50d4 	mov.w	r0, #6784	; 0x1a80
    1106:	f2c0 0006 	movt	r0, #6
    110a:	f001 ff8f 	bl	302c <bcm2835_i2c_set_baudrate>
    110e:	4620      	mov	r0, r4
    1110:	2101      	movs	r1, #1
    1112:	f001 ff9b 	bl	304c <bcm2835_i2c_write>
    1116:	2101      	movs	r1, #1
    1118:	4620      	mov	r0, r4
    111a:	f002 f813 	bl	3144 <bcm2835_i2c_read>
    111e:	f89d 300f 	ldrb.w	r3, [sp, #15]
    1122:	7830      	ldrb	r0, [r6, #0]
    1124:	f003 03ef 	and.w	r3, r3, #239	; 0xef
    1128:	f88d 8010 	strb.w	r8, [sp, #16]
    112c:	f043 0310 	orr.w	r3, r3, #16
    1130:	f88d 3011 	strb.w	r3, [sp, #17]
    1134:	f001 ff44 	bl	2fc0 <bcm2835_i2c_setSlaveAddress>
    1138:	f44f 50d4 	mov.w	r0, #6784	; 0x1a80
    113c:	f2c0 0006 	movt	r0, #6
    1140:	f001 ff74 	bl	302c <bcm2835_i2c_set_baudrate>
    1144:	2102      	movs	r1, #2
    1146:	4628      	mov	r0, r5
    1148:	f001 ff80 	bl	304c <bcm2835_i2c_write>
    114c:	2100      	movs	r1, #0
    114e:	f44f 70fa 	mov.w	r0, #500	; 0x1f4
    1152:	f002 fabd 	bl	36d0 <bcm2835_delayMicroseconds>
    1156:	eddf 7a31 	vldr	s15, [pc, #196]	; 121c <PCA9685::SetFrequency(unsigned short)+0x15c>
    115a:	23fe      	movs	r3, #254	; 0xfe
    115c:	f88d 3010 	strb.w	r3, [sp, #16]
    1160:	7830      	ldrb	r0, [r6, #0]
    1162:	eef7 6a00 	vmov.f32	s13, #112	; 0x3f800000  1.0
    1166:	ee78 7a27 	vadd.f32	s15, s16, s15
    116a:	ee77 7ae6 	vsub.f32	s15, s15, s13
    116e:	ee87 7a88 	vdiv.f32	s14, s15, s16
    1172:	ee77 7a66 	vsub.f32	s15, s14, s13
    1176:	eefc 7ae7 	vcvt.u32.f32	s15, s15
    117a:	ee17 3a90 	vmov	r3, s15
    117e:	f88d 3004 	strb.w	r3, [sp, #4]
    1182:	b2db      	uxtb	r3, r3
    1184:	2b03      	cmp	r3, #3
    1186:	bf38      	it	cc
    1188:	2303      	movcc	r3, #3
    118a:	f88d 3011 	strb.w	r3, [sp, #17]
    118e:	f001 ff17 	bl	2fc0 <bcm2835_i2c_setSlaveAddress>
    1192:	f44f 50d4 	mov.w	r0, #6784	; 0x1a80
    1196:	f2c0 0006 	movt	r0, #6
    119a:	f001 ff47 	bl	302c <bcm2835_i2c_set_baudrate>
    119e:	2102      	movs	r1, #2
    11a0:	4628      	mov	r0, r5
    11a2:	f001 ff53 	bl	304c <bcm2835_i2c_write>
    11a6:	7830      	ldrb	r0, [r6, #0]
    11a8:	f88d 800f 	strb.w	r8, [sp, #15]
    11ac:	f001 ff08 	bl	2fc0 <bcm2835_i2c_setSlaveAddress>
    11b0:	f44f 50d4 	mov.w	r0, #6784	; 0x1a80
    11b4:	f2c0 0006 	movt	r0, #6
    11b8:	f001 ff38 	bl	302c <bcm2835_i2c_set_baudrate>
    11bc:	4620      	mov	r0, r4
    11be:	2101      	movs	r1, #1
    11c0:	f001 ff44 	bl	304c <bcm2835_i2c_write>
    11c4:	2101      	movs	r1, #1
    11c6:	4620      	mov	r0, r4
    11c8:	f001 ffbc 	bl	3144 <bcm2835_i2c_read>
    11cc:	f89d 400f 	ldrb.w	r4, [sp, #15]
    11d0:	7830      	ldrb	r0, [r6, #0]
    11d2:	f004 04ef 	and.w	r4, r4, #239	; 0xef
    11d6:	f88d 8010 	strb.w	r8, [sp, #16]
    11da:	f88d 4011 	strb.w	r4, [sp, #17]
    11de:	f001 feef 	bl	2fc0 <bcm2835_i2c_setSlaveAddress>
    11e2:	f44f 50d4 	mov.w	r0, #6784	; 0x1a80
    11e6:	f2c0 0006 	movt	r0, #6
    11ea:	f001 ff1f 	bl	302c <bcm2835_i2c_set_baudrate>
    11ee:	4628      	mov	r0, r5
    11f0:	2102      	movs	r1, #2
    11f2:	f001 ff2b 	bl	304c <bcm2835_i2c_write>
    11f6:	f014 0f6f 	tst.w	r4, #111	; 0x6f
    11fa:	d004      	beq.n	1206 <PCA9685::SetFrequency(unsigned short)+0x146>
    11fc:	f44f 70fa 	mov.w	r0, #500	; 0x1f4
    1200:	2100      	movs	r1, #0
    1202:	f002 fa65 	bl	36d0 <bcm2835_delayMicroseconds>
    1206:	9a05      	ldr	r2, [sp, #20]
    1208:	683b      	ldr	r3, [r7, #0]
    120a:	429a      	cmp	r2, r3
    120c:	d104      	bne.n	1218 <PCA9685::SetFrequency(unsigned short)+0x158>
    120e:	b006      	add	sp, #24
    1210:	ecbd 8b02 	vpop	{d8}
    1214:	e8bd 81f0 	ldmia.w	sp!, {r4, r5, r6, r7, r8, pc}
    1218:	f7ff eab2 	blx	780 <__stack_chk_fail@plt>
    121c:	45bebc20 	ldrmi	fp, [lr, #3104]!	; 0xc20
    1220:	00013e98 	muleq	r1, r8, lr
    1224:	00000074 	andeq	r0, r0, r4, ror r0

00001228 <PCA9685::GetFrequency()>:
    1228:	4b5e      	ldr	r3, [pc, #376]	; (13a4 <PCA9685::GetFrequency()+0x17c>)
    122a:	21fe      	movs	r1, #254	; 0xfe
    122c:	4a5e      	ldr	r2, [pc, #376]	; (13a8 <PCA9685::GetFrequency()+0x180>)
    122e:	447b      	add	r3, pc
    1230:	b530      	push	{r4, r5, lr}
    1232:	b085      	sub	sp, #20
    1234:	589c      	ldr	r4, [r3, r2]
    1236:	ad04      	add	r5, sp, #16
    1238:	7800      	ldrb	r0, [r0, #0]
    123a:	f805 1d05 	strb.w	r1, [r5, #-5]!
    123e:	6823      	ldr	r3, [r4, #0]
    1240:	9303      	str	r3, [sp, #12]
    1242:	f001 febd 	bl	2fc0 <bcm2835_i2c_setSlaveAddress>
    1246:	f44f 50d4 	mov.w	r0, #6784	; 0x1a80
    124a:	f2c0 0006 	movt	r0, #6
    124e:	f001 feed 	bl	302c <bcm2835_i2c_set_baudrate>
    1252:	2101      	movs	r1, #1
    1254:	4628      	mov	r0, r5
    1256:	f001 fef9 	bl	304c <bcm2835_i2c_write>
    125a:	2101      	movs	r1, #1
    125c:	4628      	mov	r0, r5
    125e:	f001 ff71 	bl	3144 <bcm2835_i2c_read>
    1262:	f89d 100b 	ldrb.w	r1, [sp, #11]
    1266:	eddf 5a4e 	vldr	s11, [pc, #312]	; 13a0 <PCA9685::GetFrequency()+0x178>
    126a:	1c4b      	adds	r3, r1, #1
    126c:	ee07 3a90 	vmov	s15, r3
    1270:	eeb7 6a00 	vmov.f32	s12, #112	; 0x3f800000  1.0
    1274:	eef8 7ae7 	vcvt.f32.s32	s15, s15
    1278:	ee77 6aa5 	vadd.f32	s13, s15, s11
    127c:	ee76 6ac6 	vsub.f32	s13, s13, s12
    1280:	ee86 7aa7 	vdiv.f32	s14, s13, s15
    1284:	eefc 7ac7 	vcvt.u32.f32	s15, s14
    1288:	ee17 3a90 	vmov	r3, s15
    128c:	b298      	uxth	r0, r3
    128e:	2818      	cmp	r0, #24
    1290:	f240 8081 	bls.w	1396 <PCA9685::GetFrequency()+0x16e>
    1294:	f240 55f6 	movw	r5, #1526	; 0x5f6
    1298:	42a8      	cmp	r0, r5
    129a:	4603      	mov	r3, r0
    129c:	bf28      	it	cs
    129e:	462b      	movcs	r3, r5
    12a0:	ee07 3a90 	vmov	s15, r3
    12a4:	eef8 7a67 	vcvt.f32.u32	s15, s15
    12a8:	ee77 6aa5 	vadd.f32	s13, s15, s11
    12ac:	ee76 6ac6 	vsub.f32	s13, s13, s12
    12b0:	ee86 7aa7 	vdiv.f32	s14, s13, s15
    12b4:	ee77 7a46 	vsub.f32	s15, s14, s12
    12b8:	eefc 7ae7 	vcvt.u32.f32	s15, s15
    12bc:	edcd 7a01 	vstr	s15, [sp, #4]
    12c0:	f89d 3004 	ldrb.w	r3, [sp, #4]
    12c4:	428b      	cmp	r3, r1
    12c6:	4603      	mov	r3, r0
    12c8:	d019      	beq.n	12fe <PCA9685::GetFrequency()+0xd6>
    12ca:	e01c      	b.n	1306 <PCA9685::GetFrequency()+0xde>
    12cc:	42ab      	cmp	r3, r5
    12ce:	461a      	mov	r2, r3
    12d0:	bf28      	it	cs
    12d2:	462a      	movcs	r2, r5
    12d4:	b292      	uxth	r2, r2
    12d6:	ee07 2a90 	vmov	s15, r2
    12da:	eef8 7a67 	vcvt.f32.u32	s15, s15
    12de:	ee77 6aa5 	vadd.f32	s13, s15, s11
    12e2:	ee76 6ac6 	vsub.f32	s13, s13, s12
    12e6:	ee86 7aa7 	vdiv.f32	s14, s13, s15
    12ea:	ee77 7a46 	vsub.f32	s15, s14, s12
    12ee:	eefc 7ae7 	vcvt.u32.f32	s15, s15
    12f2:	edcd 7a01 	vstr	s15, [sp, #4]
    12f6:	f89d 2004 	ldrb.w	r2, [sp, #4]
    12fa:	428a      	cmp	r2, r1
    12fc:	d103      	bne.n	1306 <PCA9685::GetFrequency()+0xde>
    12fe:	3b01      	subs	r3, #1
    1300:	b29b      	uxth	r3, r3
    1302:	2b18      	cmp	r3, #24
    1304:	d1e2      	bne.n	12cc <PCA9685::GetFrequency()+0xa4>
    1306:	f240 52f5 	movw	r2, #1525	; 0x5f5
    130a:	4290      	cmp	r0, r2
    130c:	d83a      	bhi.n	1384 <PCA9685::GetFrequency()+0x15c>
    130e:	2818      	cmp	r0, #24
    1310:	4602      	mov	r2, r0
    1312:	eddf 5a23 	vldr	s11, [pc, #140]	; 13a0 <PCA9685::GetFrequency()+0x178>
    1316:	bf38      	it	cc
    1318:	2218      	movcc	r2, #24
    131a:	ee07 2a90 	vmov	s15, r2
    131e:	eeb7 6a00 	vmov.f32	s12, #112	; 0x3f800000  1.0
    1322:	eef8 7a67 	vcvt.f32.u32	s15, s15
    1326:	ee77 6aa5 	vadd.f32	s13, s15, s11
    132a:	ee76 6ac6 	vsub.f32	s13, s13, s12
    132e:	ee86 7aa7 	vdiv.f32	s14, s13, s15
    1332:	ee77 7a46 	vsub.f32	s15, s14, s12
    1336:	eefc 7ae7 	vcvt.u32.f32	s15, s15
    133a:	edcd 7a01 	vstr	s15, [sp, #4]
    133e:	f89d 2004 	ldrb.w	r2, [sp, #4]
    1342:	428a      	cmp	r2, r1
    1344:	d11e      	bne.n	1384 <PCA9685::GetFrequency()+0x15c>
    1346:	f240 55f6 	movw	r5, #1526	; 0x5f6
    134a:	e017      	b.n	137c <PCA9685::GetFrequency()+0x154>
    134c:	2818      	cmp	r0, #24
    134e:	4602      	mov	r2, r0
    1350:	bf38      	it	cc
    1352:	2218      	movcc	r2, #24
    1354:	ee07 2a90 	vmov	s15, r2
    1358:	eef8 7a67 	vcvt.f32.u32	s15, s15
    135c:	ee77 6aa5 	vadd.f32	s13, s15, s11
    1360:	ee76 6ac6 	vsub.f32	s13, s13, s12
    1364:	ee86 7aa7 	vdiv.f32	s14, s13, s15
    1368:	ee77 7a46 	vsub.f32	s15, s14, s12
    136c:	eefc 7ae7 	vcvt.u32.f32	s15, s15
    1370:	edcd 7a01 	vstr	s15, [sp, #4]
    1374:	f89d 2004 	ldrb.w	r2, [sp, #4]
    1378:	428a      	cmp	r2, r1
    137a:	d103      	bne.n	1384 <PCA9685::GetFrequency()+0x15c>
    137c:	3001      	adds	r0, #1
    137e:	b280      	uxth	r0, r0
    1380:	42a8      	cmp	r0, r5
    1382:	d1e3      	bne.n	134c <PCA9685::GetFrequency()+0x124>
    1384:	9a03      	ldr	r2, [sp, #12]
    1386:	4418      	add	r0, r3
    1388:	6823      	ldr	r3, [r4, #0]
    138a:	f3c0 004e 	ubfx	r0, r0, #1, #15
    138e:	429a      	cmp	r2, r3
    1390:	d103      	bne.n	139a <PCA9685::GetFrequency()+0x172>
    1392:	b005      	add	sp, #20
    1394:	bd30      	pop	{r4, r5, pc}
    1396:	4603      	mov	r3, r0
    1398:	e7b9      	b.n	130e <PCA9685::GetFrequency()+0xe6>
    139a:	f7ff e9f2 	blx	780 <__stack_chk_fail@plt>
    139e:	bf00      	nop
    13a0:	45bebc20 	ldrmi	fp, [lr, #3104]!	; 0xc20
    13a4:	00013d42 	andeq	r3, r1, r2, asr #26
    13a8:	00000074 	andeq	r0, r0, r4, ror r0

000013ac <PCA9685::SetOCH(TPCA9685Och)>:
    13ac:	4b23      	ldr	r3, [pc, #140]	; (143c <PCA9685::SetOCH(TPCA9685Och)+0x90>)
    13ae:	4a24      	ldr	r2, [pc, #144]	; (1440 <PCA9685::SetOCH(TPCA9685Och)+0x94>)
    13b0:	447b      	add	r3, pc
    13b2:	e92d 41f0 	stmdb	sp!, {r4, r5, r6, r7, r8, lr}
    13b6:	b084      	sub	sp, #16
    13b8:	f853 8002 	ldr.w	r8, [r3, r2]
    13bc:	ac04      	add	r4, sp, #16
    13be:	4606      	mov	r6, r0
    13c0:	7800      	ldrb	r0, [r0, #0]
    13c2:	460f      	mov	r7, r1
    13c4:	2501      	movs	r5, #1
    13c6:	f8d8 3000 	ldr.w	r3, [r8]
    13ca:	f804 5d09 	strb.w	r5, [r4, #-9]!
    13ce:	9303      	str	r3, [sp, #12]
    13d0:	f001 fdf6 	bl	2fc0 <bcm2835_i2c_setSlaveAddress>
    13d4:	f44f 50d4 	mov.w	r0, #6784	; 0x1a80
    13d8:	f2c0 0006 	movt	r0, #6
    13dc:	f001 fe26 	bl	302c <bcm2835_i2c_set_baudrate>
    13e0:	4629      	mov	r1, r5
    13e2:	4620      	mov	r0, r4
    13e4:	f001 fe32 	bl	304c <bcm2835_i2c_write>
    13e8:	4629      	mov	r1, r5
    13ea:	4620      	mov	r0, r4
    13ec:	f001 feaa 	bl	3144 <bcm2835_i2c_read>
    13f0:	f89d 3007 	ldrb.w	r3, [sp, #7]
    13f4:	2f08      	cmp	r7, #8
    13f6:	7830      	ldrb	r0, [r6, #0]
    13f8:	f003 03f7 	and.w	r3, r3, #247	; 0xf7
    13fc:	f04f 0201 	mov.w	r2, #1
    1400:	bf08      	it	eq
    1402:	f043 0308 	orreq.w	r3, r3, #8
    1406:	f88d 2008 	strb.w	r2, [sp, #8]
    140a:	f88d 3009 	strb.w	r3, [sp, #9]
    140e:	f001 fdd7 	bl	2fc0 <bcm2835_i2c_setSlaveAddress>
    1412:	f44f 50d4 	mov.w	r0, #6784	; 0x1a80
    1416:	f2c0 0006 	movt	r0, #6
    141a:	f001 fe07 	bl	302c <bcm2835_i2c_set_baudrate>
    141e:	2102      	movs	r1, #2
    1420:	a802      	add	r0, sp, #8
    1422:	f001 fe13 	bl	304c <bcm2835_i2c_write>
    1426:	9a03      	ldr	r2, [sp, #12]
    1428:	f8d8 3000 	ldr.w	r3, [r8]
    142c:	429a      	cmp	r2, r3
    142e:	d102      	bne.n	1436 <PCA9685::SetOCH(TPCA9685Och)+0x8a>
    1430:	b004      	add	sp, #16
    1432:	e8bd 81f0 	ldmia.w	sp!, {r4, r5, r6, r7, r8, pc}
    1436:	f7ff e9a4 	blx	780 <__stack_chk_fail@plt>
    143a:	bf00      	nop
    143c:	00013bc0 	andeq	r3, r1, r0, asr #23
    1440:	00000074 	andeq	r0, r0, r4, ror r0

00001444 <PCA9685::GetOCH()>:
    1444:	4b14      	ldr	r3, [pc, #80]	; (1498 <PCA9685::GetOCH()+0x54>)
    1446:	4a15      	ldr	r2, [pc, #84]	; (149c <PCA9685::GetOCH()+0x58>)
    1448:	447b      	add	r3, pc
    144a:	b570      	push	{r4, r5, r6, lr}
    144c:	b082      	sub	sp, #8
    144e:	589e      	ldr	r6, [r3, r2]
    1450:	ac02      	add	r4, sp, #8
    1452:	7800      	ldrb	r0, [r0, #0]
    1454:	2501      	movs	r5, #1
    1456:	f804 5d05 	strb.w	r5, [r4, #-5]!
    145a:	6833      	ldr	r3, [r6, #0]
    145c:	9301      	str	r3, [sp, #4]
    145e:	f001 fdaf 	bl	2fc0 <bcm2835_i2c_setSlaveAddress>
    1462:	f44f 50d4 	mov.w	r0, #6784	; 0x1a80
    1466:	f2c0 0006 	movt	r0, #6
    146a:	f001 fddf 	bl	302c <bcm2835_i2c_set_baudrate>
    146e:	4629      	mov	r1, r5
    1470:	4620      	mov	r0, r4
    1472:	f001 fdeb 	bl	304c <bcm2835_i2c_write>
    1476:	4629      	mov	r1, r5
    1478:	4620      	mov	r0, r4
    147a:	f001 fe63 	bl	3144 <bcm2835_i2c_read>
    147e:	9a01      	ldr	r2, [sp, #4]
    1480:	6833      	ldr	r3, [r6, #0]
    1482:	f89d 0003 	ldrb.w	r0, [sp, #3]
    1486:	429a      	cmp	r2, r3
    1488:	d103      	bne.n	1492 <PCA9685::GetOCH()+0x4e>
    148a:	f000 0008 	and.w	r0, r0, #8
    148e:	b002      	add	sp, #8
    1490:	bd70      	pop	{r4, r5, r6, pc}
    1492:	f7ff e976 	blx	780 <__stack_chk_fail@plt>
    1496:	bf00      	nop
    1498:	00013b28 	andeq	r3, r1, r8, lsr #22
    149c:	00000074 	andeq	r0, r0, r4, ror r0

000014a0 <PCA9685::SetInvert(bool)>:
    14a0:	4b22      	ldr	r3, [pc, #136]	; (152c <PCA9685::SetInvert(bool)+0x8c>)
    14a2:	4a23      	ldr	r2, [pc, #140]	; (1530 <PCA9685::SetInvert(bool)+0x90>)
    14a4:	447b      	add	r3, pc
    14a6:	e92d 41f0 	stmdb	sp!, {r4, r5, r6, r7, r8, lr}
    14aa:	b084      	sub	sp, #16
    14ac:	f853 8002 	ldr.w	r8, [r3, r2]
    14b0:	ac04      	add	r4, sp, #16
    14b2:	4606      	mov	r6, r0
    14b4:	7800      	ldrb	r0, [r0, #0]
    14b6:	460f      	mov	r7, r1
    14b8:	2501      	movs	r5, #1
    14ba:	f8d8 3000 	ldr.w	r3, [r8]
    14be:	f804 5d09 	strb.w	r5, [r4, #-9]!
    14c2:	9303      	str	r3, [sp, #12]
    14c4:	f001 fd7c 	bl	2fc0 <bcm2835_i2c_setSlaveAddress>
    14c8:	f44f 50d4 	mov.w	r0, #6784	; 0x1a80
    14cc:	f2c0 0006 	movt	r0, #6
    14d0:	f001 fdac 	bl	302c <bcm2835_i2c_set_baudrate>
    14d4:	4629      	mov	r1, r5
    14d6:	4620      	mov	r0, r4
    14d8:	f001 fdb8 	bl	304c <bcm2835_i2c_write>
    14dc:	4629      	mov	r1, r5
    14de:	4620      	mov	r0, r4
    14e0:	f001 fe30 	bl	3144 <bcm2835_i2c_read>
    14e4:	f89d 3007 	ldrb.w	r3, [sp, #7]
    14e8:	f003 03ef 	and.w	r3, r3, #239	; 0xef
    14ec:	b10f      	cbz	r7, 14f2 <PCA9685::SetInvert(bool)+0x52>
    14ee:	f043 0310 	orr.w	r3, r3, #16
    14f2:	7830      	ldrb	r0, [r6, #0]
    14f4:	2201      	movs	r2, #1
    14f6:	f88d 3009 	strb.w	r3, [sp, #9]
    14fa:	f88d 2008 	strb.w	r2, [sp, #8]
    14fe:	f001 fd5f 	bl	2fc0 <bcm2835_i2c_setSlaveAddress>
    1502:	f44f 50d4 	mov.w	r0, #6784	; 0x1a80
    1506:	f2c0 0006 	movt	r0, #6
    150a:	f001 fd8f 	bl	302c <bcm2835_i2c_set_baudrate>
    150e:	2102      	movs	r1, #2
    1510:	a802      	add	r0, sp, #8
    1512:	f001 fd9b 	bl	304c <bcm2835_i2c_write>
    1516:	9a03      	ldr	r2, [sp, #12]
    1518:	f8d8 3000 	ldr.w	r3, [r8]
    151c:	429a      	cmp	r2, r3
    151e:	d102      	bne.n	1526 <PCA9685::SetInvert(bool)+0x86>
    1520:	b004      	add	sp, #16
    1522:	e8bd 81f0 	ldmia.w	sp!, {r4, r5, r6, r7, r8, pc}
    1526:	f7ff e92c 	blx	780 <__stack_chk_fail@plt>
    152a:	bf00      	nop
    152c:	00013acc 	andeq	r3, r1, ip, asr #21
    1530:	00000074 	andeq	r0, r0, r4, ror r0

00001534 <PCA9685::GetInvert()>:
    1534:	4b14      	ldr	r3, [pc, #80]	; (1588 <PCA9685::GetInvert()+0x54>)
    1536:	4a15      	ldr	r2, [pc, #84]	; (158c <PCA9685::GetInvert()+0x58>)
    1538:	447b      	add	r3, pc
    153a:	b570      	push	{r4, r5, r6, lr}
    153c:	b082      	sub	sp, #8
    153e:	589e      	ldr	r6, [r3, r2]
    1540:	ac02      	add	r4, sp, #8
    1542:	7800      	ldrb	r0, [r0, #0]
    1544:	2501      	movs	r5, #1
    1546:	f804 5d05 	strb.w	r5, [r4, #-5]!
    154a:	6833      	ldr	r3, [r6, #0]
    154c:	9301      	str	r3, [sp, #4]
    154e:	f001 fd37 	bl	2fc0 <bcm2835_i2c_setSlaveAddress>
    1552:	f44f 50d4 	mov.w	r0, #6784	; 0x1a80
    1556:	f2c0 0006 	movt	r0, #6
    155a:	f001 fd67 	bl	302c <bcm2835_i2c_set_baudrate>
    155e:	4629      	mov	r1, r5
    1560:	4620      	mov	r0, r4
    1562:	f001 fd73 	bl	304c <bcm2835_i2c_write>
    1566:	4629      	mov	r1, r5
    1568:	4620      	mov	r0, r4
    156a:	f001 fdeb 	bl	3144 <bcm2835_i2c_read>
    156e:	9a01      	ldr	r2, [sp, #4]
    1570:	6833      	ldr	r3, [r6, #0]
    1572:	f89d 0003 	ldrb.w	r0, [sp, #3]
    1576:	429a      	cmp	r2, r3
    1578:	f3c0 1000 	ubfx	r0, r0, #4, #1
    157c:	d101      	bne.n	1582 <PCA9685::GetInvert()+0x4e>
    157e:	b002      	add	sp, #8
    1580:	bd70      	pop	{r4, r5, r6, pc}
    1582:	f7ff e8fe 	blx	780 <__stack_chk_fail@plt>
    1586:	bf00      	nop
    1588:	00013a38 	andeq	r3, r1, r8, lsr sl
    158c:	00000074 	andeq	r0, r0, r4, ror r0

00001590 <PCA9685::SetOutDriver(bool)>:
    1590:	4b22      	ldr	r3, [pc, #136]	; (161c <PCA9685::SetOutDriver(bool)+0x8c>)
    1592:	4a23      	ldr	r2, [pc, #140]	; (1620 <PCA9685::SetOutDriver(bool)+0x90>)
    1594:	447b      	add	r3, pc
    1596:	e92d 41f0 	stmdb	sp!, {r4, r5, r6, r7, r8, lr}
    159a:	b084      	sub	sp, #16
    159c:	f853 8002 	ldr.w	r8, [r3, r2]
    15a0:	ac04      	add	r4, sp, #16
    15a2:	4606      	mov	r6, r0
    15a4:	7800      	ldrb	r0, [r0, #0]
    15a6:	460f      	mov	r7, r1
    15a8:	2501      	movs	r5, #1
    15aa:	f8d8 3000 	ldr.w	r3, [r8]
    15ae:	f804 5d09 	strb.w	r5, [r4, #-9]!
    15b2:	9303      	str	r3, [sp, #12]
    15b4:	f001 fd04 	bl	2fc0 <bcm2835_i2c_setSlaveAddress>
    15b8:	f44f 50d4 	mov.w	r0, #6784	; 0x1a80
    15bc:	f2c0 0006 	movt	r0, #6
    15c0:	f001 fd34 	bl	302c <bcm2835_i2c_set_baudrate>
    15c4:	4629      	mov	r1, r5
    15c6:	4620      	mov	r0, r4
    15c8:	f001 fd40 	bl	304c <bcm2835_i2c_write>
    15cc:	4629      	mov	r1, r5
    15ce:	4620      	mov	r0, r4
    15d0:	f001 fdb8 	bl	3144 <bcm2835_i2c_read>
    15d4:	f89d 3007 	ldrb.w	r3, [sp, #7]
    15d8:	f003 03fb 	and.w	r3, r3, #251	; 0xfb
    15dc:	b10f      	cbz	r7, 15e2 <PCA9685::SetOutDriver(bool)+0x52>
    15de:	f043 0304 	orr.w	r3, r3, #4
    15e2:	7830      	ldrb	r0, [r6, #0]
    15e4:	2201      	movs	r2, #1
    15e6:	f88d 3009 	strb.w	r3, [sp, #9]
    15ea:	f88d 2008 	strb.w	r2, [sp, #8]
    15ee:	f001 fce7 	bl	2fc0 <bcm2835_i2c_setSlaveAddress>
    15f2:	f44f 50d4 	mov.w	r0, #6784	; 0x1a80
    15f6:	f2c0 0006 	movt	r0, #6
    15fa:	f001 fd17 	bl	302c <bcm2835_i2c_set_baudrate>
    15fe:	2102      	movs	r1, #2
    1600:	a802      	add	r0, sp, #8
    1602:	f001 fd23 	bl	304c <bcm2835_i2c_write>
    1606:	9a03      	ldr	r2, [sp, #12]
    1608:	f8d8 3000 	ldr.w	r3, [r8]
    160c:	429a      	cmp	r2, r3
    160e:	d102      	bne.n	1616 <PCA9685::SetOutDriver(bool)+0x86>
    1610:	b004      	add	sp, #16
    1612:	e8bd 81f0 	ldmia.w	sp!, {r4, r5, r6, r7, r8, pc}
    1616:	f7ff e8b4 	blx	780 <__stack_chk_fail@plt>
    161a:	bf00      	nop
    161c:	000139dc 	ldrdeq	r3, [r1], -ip
    1620:	00000074 	andeq	r0, r0, r4, ror r0

00001624 <PCA9685::GetOutDriver()>:
    1624:	4b14      	ldr	r3, [pc, #80]	; (1678 <PCA9685::GetOutDriver()+0x54>)
    1626:	4a15      	ldr	r2, [pc, #84]	; (167c <PCA9685::GetOutDriver()+0x58>)
    1628:	447b      	add	r3, pc
    162a:	b570      	push	{r4, r5, r6, lr}
    162c:	b082      	sub	sp, #8
    162e:	589e      	ldr	r6, [r3, r2]
    1630:	ac02      	add	r4, sp, #8
    1632:	7800      	ldrb	r0, [r0, #0]
    1634:	2501      	movs	r5, #1
    1636:	f804 5d05 	strb.w	r5, [r4, #-5]!
    163a:	6833      	ldr	r3, [r6, #0]
    163c:	9301      	str	r3, [sp, #4]
    163e:	f001 fcbf 	bl	2fc0 <bcm2835_i2c_setSlaveAddress>
    1642:	f44f 50d4 	mov.w	r0, #6784	; 0x1a80
    1646:	f2c0 0006 	movt	r0, #6
    164a:	f001 fcef 	bl	302c <bcm2835_i2c_set_baudrate>
    164e:	4629      	mov	r1, r5
    1650:	4620      	mov	r0, r4
    1652:	f001 fcfb 	bl	304c <bcm2835_i2c_write>
    1656:	4629      	mov	r1, r5
    1658:	4620      	mov	r0, r4
    165a:	f001 fd73 	bl	3144 <bcm2835_i2c_read>
    165e:	9a01      	ldr	r2, [sp, #4]
    1660:	6833      	ldr	r3, [r6, #0]
    1662:	f89d 0003 	ldrb.w	r0, [sp, #3]
    1666:	429a      	cmp	r2, r3
    1668:	f3c0 0080 	ubfx	r0, r0, #2, #1
    166c:	d101      	bne.n	1672 <PCA9685::GetOutDriver()+0x4e>
    166e:	b002      	add	sp, #8
    1670:	bd70      	pop	{r4, r5, r6, pc}
    1672:	f7ff e886 	blx	780 <__stack_chk_fail@plt>
    1676:	bf00      	nop
    1678:	00013948 	andeq	r3, r1, r8, asr #18
    167c:	00000074 	andeq	r0, r0, r4, ror r0

00001680 <PCA9685::Write(unsigned char, unsigned short, unsigned short)>:
    1680:	b530      	push	{r4, r5, lr}
    1682:	290f      	cmp	r1, #15
    1684:	4c17      	ldr	r4, [pc, #92]	; (16e4 <PCA9685::Write(unsigned char, unsigned short, unsigned short)+0x64>)
    1686:	bf98      	it	ls
    1688:	0089      	lslls	r1, r1, #2
    168a:	4d17      	ldr	r5, [pc, #92]	; (16e8 <PCA9685::Write(unsigned char, unsigned short, unsigned short)+0x68>)
    168c:	b085      	sub	sp, #20
    168e:	447c      	add	r4, pc
    1690:	bf98      	it	ls
    1692:	3106      	addls	r1, #6
    1694:	7800      	ldrb	r0, [r0, #0]
    1696:	bf88      	it	hi
    1698:	21fa      	movhi	r1, #250	; 0xfa
    169a:	5964      	ldr	r4, [r4, r5]
    169c:	bf98      	it	ls
    169e:	b2c9      	uxtbls	r1, r1
    16a0:	f88d 2005 	strb.w	r2, [sp, #5]
    16a4:	f88d 3007 	strb.w	r3, [sp, #7]
    16a8:	6825      	ldr	r5, [r4, #0]
    16aa:	f88d 1004 	strb.w	r1, [sp, #4]
    16ae:	1219      	asrs	r1, r3, #8
    16b0:	f88d 1008 	strb.w	r1, [sp, #8]
    16b4:	9503      	str	r5, [sp, #12]
    16b6:	1215      	asrs	r5, r2, #8
    16b8:	f88d 5006 	strb.w	r5, [sp, #6]
    16bc:	f001 fc80 	bl	2fc0 <bcm2835_i2c_setSlaveAddress>
    16c0:	f44f 50d4 	mov.w	r0, #6784	; 0x1a80
    16c4:	f2c0 0006 	movt	r0, #6
    16c8:	f001 fcb0 	bl	302c <bcm2835_i2c_set_baudrate>
    16cc:	2105      	movs	r1, #5
    16ce:	a801      	add	r0, sp, #4
    16d0:	f001 fcbc 	bl	304c <bcm2835_i2c_write>
    16d4:	9a03      	ldr	r2, [sp, #12]
    16d6:	6823      	ldr	r3, [r4, #0]
    16d8:	429a      	cmp	r2, r3
    16da:	d101      	bne.n	16e0 <PCA9685::Write(unsigned char, unsigned short, unsigned short)+0x60>
    16dc:	b005      	add	sp, #20
    16de:	bd30      	pop	{r4, r5, pc}
    16e0:	f7ff e84e 	blx	780 <__stack_chk_fail@plt>
    16e4:	000138e2 	andeq	r3, r1, r2, ror #17
    16e8:	00000074 	andeq	r0, r0, r4, ror r0

000016ec <PCA9685::Write(unsigned char, unsigned short)>:
    16ec:	4b18      	ldr	r3, [pc, #96]	; (1750 <PCA9685::Write(unsigned char, unsigned short)+0x64>)
    16ee:	290f      	cmp	r1, #15
    16f0:	b530      	push	{r4, r5, lr}
    16f2:	447b      	add	r3, pc
    16f4:	4c17      	ldr	r4, [pc, #92]	; (1754 <PCA9685::Write(unsigned char, unsigned short)+0x68>)
    16f6:	bf98      	it	ls
    16f8:	0089      	lslls	r1, r1, #2
    16fa:	b085      	sub	sp, #20
    16fc:	bf98      	it	ls
    16fe:	3106      	addls	r1, #6
    1700:	7800      	ldrb	r0, [r0, #0]
    1702:	bf88      	it	hi
    1704:	21fa      	movhi	r1, #250	; 0xfa
    1706:	591c      	ldr	r4, [r3, r4]
    1708:	bf98      	it	ls
    170a:	b2c9      	uxtbls	r1, r1
    170c:	1215      	asrs	r5, r2, #8
    170e:	f88d 2007 	strb.w	r2, [sp, #7]
    1712:	f88d 1004 	strb.w	r1, [sp, #4]
    1716:	6823      	ldr	r3, [r4, #0]
    1718:	f88d 5008 	strb.w	r5, [sp, #8]
    171c:	9303      	str	r3, [sp, #12]
    171e:	2300      	movs	r3, #0
    1720:	f88d 3005 	strb.w	r3, [sp, #5]
    1724:	f88d 3006 	strb.w	r3, [sp, #6]
    1728:	f001 fc4a 	bl	2fc0 <bcm2835_i2c_setSlaveAddress>
    172c:	f44f 50d4 	mov.w	r0, #6784	; 0x1a80
    1730:	f2c0 0006 	movt	r0, #6
    1734:	f001 fc7a 	bl	302c <bcm2835_i2c_set_baudrate>
    1738:	2105      	movs	r1, #5
    173a:	a801      	add	r0, sp, #4
    173c:	f001 fc86 	bl	304c <bcm2835_i2c_write>
    1740:	9a03      	ldr	r2, [sp, #12]
    1742:	6823      	ldr	r3, [r4, #0]
    1744:	429a      	cmp	r2, r3
    1746:	d101      	bne.n	174c <PCA9685::Write(unsigned char, unsigned short)+0x60>
    1748:	b005      	add	sp, #20
    174a:	bd30      	pop	{r4, r5, pc}
    174c:	f7ff e818 	blx	780 <__stack_chk_fail@plt>
    1750:	0001387e 	andeq	r3, r1, lr, ror r8
    1754:	00000074 	andeq	r0, r0, r4, ror r0

00001758 <PCA9685::Write(unsigned short, unsigned short)>:
    1758:	4b14      	ldr	r3, [pc, #80]	; (17ac <PCA9685::Write(unsigned short, unsigned short)+0x54>)
    175a:	b570      	push	{r4, r5, r6, lr}
    175c:	447b      	add	r3, pc
    175e:	4c14      	ldr	r4, [pc, #80]	; (17b0 <PCA9685::Write(unsigned short, unsigned short)+0x58>)
    1760:	b084      	sub	sp, #16
    1762:	120e      	asrs	r6, r1, #8
    1764:	7800      	ldrb	r0, [r0, #0]
    1766:	1215      	asrs	r5, r2, #8
    1768:	591c      	ldr	r4, [r3, r4]
    176a:	23fa      	movs	r3, #250	; 0xfa
    176c:	f88d 1005 	strb.w	r1, [sp, #5]
    1770:	f88d 2007 	strb.w	r2, [sp, #7]
    1774:	6821      	ldr	r1, [r4, #0]
    1776:	f88d 3004 	strb.w	r3, [sp, #4]
    177a:	f88d 6006 	strb.w	r6, [sp, #6]
    177e:	9103      	str	r1, [sp, #12]
    1780:	f88d 5008 	strb.w	r5, [sp, #8]
    1784:	f001 fc1c 	bl	2fc0 <bcm2835_i2c_setSlaveAddress>
    1788:	f44f 50d4 	mov.w	r0, #6784	; 0x1a80
    178c:	f2c0 0006 	movt	r0, #6
    1790:	f001 fc4c 	bl	302c <bcm2835_i2c_set_baudrate>
    1794:	2105      	movs	r1, #5
    1796:	a801      	add	r0, sp, #4
    1798:	f001 fc58 	bl	304c <bcm2835_i2c_write>
    179c:	9a03      	ldr	r2, [sp, #12]
    179e:	6823      	ldr	r3, [r4, #0]
    17a0:	429a      	cmp	r2, r3
    17a2:	d101      	bne.n	17a8 <PCA9685::Write(unsigned short, unsigned short)+0x50>
    17a4:	b004      	add	sp, #16
    17a6:	bd70      	pop	{r4, r5, r6, pc}
    17a8:	f7fe efea 	blx	780 <__stack_chk_fail@plt>
    17ac:	00013814 	andeq	r3, r1, r4, lsl r8
    17b0:	00000074 	andeq	r0, r0, r4, ror r0

000017b4 <PCA9685::Write(unsigned short)>:
    17b4:	4b13      	ldr	r3, [pc, #76]	; (1804 <PCA9685::Write(unsigned short)+0x50>)
    17b6:	4a14      	ldr	r2, [pc, #80]	; (1808 <PCA9685::Write(unsigned short)+0x54>)
    17b8:	447b      	add	r3, pc
    17ba:	b570      	push	{r4, r5, r6, lr}
    17bc:	b084      	sub	sp, #16
    17be:	589c      	ldr	r4, [r3, r2]
    17c0:	120e      	asrs	r6, r1, #8
    17c2:	7800      	ldrb	r0, [r0, #0]
    17c4:	2200      	movs	r2, #0
    17c6:	f88d 1007 	strb.w	r1, [sp, #7]
    17ca:	25fa      	movs	r5, #250	; 0xfa
    17cc:	6823      	ldr	r3, [r4, #0]
    17ce:	f88d 2006 	strb.w	r2, [sp, #6]
    17d2:	f88d 6008 	strb.w	r6, [sp, #8]
    17d6:	9303      	str	r3, [sp, #12]
    17d8:	f8ad 5004 	strh.w	r5, [sp, #4]
    17dc:	f001 fbf0 	bl	2fc0 <bcm2835_i2c_setSlaveAddress>
    17e0:	f44f 50d4 	mov.w	r0, #6784	; 0x1a80
    17e4:	f2c0 0006 	movt	r0, #6
    17e8:	f001 fc20 	bl	302c <bcm2835_i2c_set_baudrate>
    17ec:	2105      	movs	r1, #5
    17ee:	a801      	add	r0, sp, #4
    17f0:	f001 fc2c 	bl	304c <bcm2835_i2c_write>
    17f4:	9a03      	ldr	r2, [sp, #12]
    17f6:	6823      	ldr	r3, [r4, #0]
    17f8:	429a      	cmp	r2, r3
    17fa:	d101      	bne.n	1800 <PCA9685::Write(unsigned short)+0x4c>
    17fc:	b004      	add	sp, #16
    17fe:	bd70      	pop	{r4, r5, r6, pc}
    1800:	f7fe efbe 	blx	780 <__stack_chk_fail@plt>
    1804:	000137b8 			; <UNDEFINED> instruction: 0x000137b8
    1808:	00000074 	andeq	r0, r0, r4, ror r0

0000180c <PCA9685::Read(unsigned char, unsigned short*, unsigned short*)>:
    180c:	e92d 41f0 	stmdb	sp!, {r4, r5, r6, r7, r8, lr}
    1810:	290f      	cmp	r1, #15
    1812:	4c2d      	ldr	r4, [pc, #180]	; (18c8 <PCA9685::Read(unsigned char, unsigned short*, unsigned short*)+0xbc>)
    1814:	4607      	mov	r7, r0
    1816:	4d2d      	ldr	r5, [pc, #180]	; (18cc <PCA9685::Read(unsigned char, unsigned short*, unsigned short*)+0xc0>)
    1818:	461e      	mov	r6, r3
    181a:	447c      	add	r4, pc
    181c:	b084      	sub	sp, #16
    181e:	4690      	mov	r8, r2
    1820:	5965      	ldr	r5, [r4, r5]
    1822:	4620      	mov	r0, r4
    1824:	bf96      	itet	ls
    1826:	008c      	lslls	r4, r1, #2
    1828:	24fa      	movhi	r4, #250	; 0xfa
    182a:	3406      	addls	r4, #6
    182c:	682b      	ldr	r3, [r5, #0]
    182e:	bf98      	it	ls
    1830:	b2e4      	uxtbls	r4, r4
    1832:	9303      	str	r3, [sp, #12]
    1834:	b1f2      	cbz	r2, 1874 <PCA9685::Read(unsigned char, unsigned short*, unsigned short*)+0x68>
    1836:	7838      	ldrb	r0, [r7, #0]
    1838:	2300      	movs	r3, #0
    183a:	f88d 4007 	strb.w	r4, [sp, #7]
    183e:	f8ad 3008 	strh.w	r3, [sp, #8]
    1842:	f001 fbbd 	bl	2fc0 <bcm2835_i2c_setSlaveAddress>
    1846:	f44f 50d4 	mov.w	r0, #6784	; 0x1a80
    184a:	f2c0 0006 	movt	r0, #6
    184e:	f001 fbed 	bl	302c <bcm2835_i2c_set_baudrate>
    1852:	2101      	movs	r1, #1
    1854:	f10d 0007 	add.w	r0, sp, #7
    1858:	f001 fbf8 	bl	304c <bcm2835_i2c_write>
    185c:	2102      	movs	r1, #2
    185e:	a802      	add	r0, sp, #8
    1860:	f001 fc70 	bl	3144 <bcm2835_i2c_read>
    1864:	f89d 2009 	ldrb.w	r2, [sp, #9]
    1868:	f89d 3008 	ldrb.w	r3, [sp, #8]
    186c:	ea43 2302 	orr.w	r3, r3, r2, lsl #8
    1870:	f8a8 3000 	strh.w	r3, [r8]
    1874:	b1f6      	cbz	r6, 18b4 <PCA9685::Read(unsigned char, unsigned short*, unsigned short*)+0xa8>
    1876:	7838      	ldrb	r0, [r7, #0]
    1878:	2300      	movs	r3, #0
    187a:	3402      	adds	r4, #2
    187c:	f8ad 3008 	strh.w	r3, [sp, #8]
    1880:	f88d 4007 	strb.w	r4, [sp, #7]
    1884:	f001 fb9c 	bl	2fc0 <bcm2835_i2c_setSlaveAddress>
    1888:	f44f 50d4 	mov.w	r0, #6784	; 0x1a80
    188c:	f2c0 0006 	movt	r0, #6
    1890:	f001 fbcc 	bl	302c <bcm2835_i2c_set_baudrate>
    1894:	2101      	movs	r1, #1
    1896:	f10d 0007 	add.w	r0, sp, #7
    189a:	f001 fbd7 	bl	304c <bcm2835_i2c_write>
    189e:	2102      	movs	r1, #2
    18a0:	a802      	add	r0, sp, #8
    18a2:	f001 fc4f 	bl	3144 <bcm2835_i2c_read>
    18a6:	f89d 2009 	ldrb.w	r2, [sp, #9]
    18aa:	f89d 3008 	ldrb.w	r3, [sp, #8]
    18ae:	ea43 2302 	orr.w	r3, r3, r2, lsl #8
    18b2:	8033      	strh	r3, [r6, #0]
    18b4:	9a03      	ldr	r2, [sp, #12]
    18b6:	682b      	ldr	r3, [r5, #0]
    18b8:	429a      	cmp	r2, r3
    18ba:	d102      	bne.n	18c2 <PCA9685::Read(unsigned char, unsigned short*, unsigned short*)+0xb6>
    18bc:	b004      	add	sp, #16
    18be:	e8bd 81f0 	ldmia.w	sp!, {r4, r5, r6, r7, r8, pc}
    18c2:	f7fe ef5e 	blx	780 <__stack_chk_fail@plt>
    18c6:	bf00      	nop
    18c8:	00013756 	andeq	r3, r1, r6, asr r7
    18cc:	00000074 	andeq	r0, r0, r4, ror r0

000018d0 <PCA9685::Read(unsigned short*, unsigned short*)>:
    18d0:	4b29      	ldr	r3, [pc, #164]	; (1978 <PCA9685::Read(unsigned short*, unsigned short*)+0xa8>)
    18d2:	b5f0      	push	{r4, r5, r6, r7, lr}
    18d4:	4607      	mov	r7, r0
    18d6:	4829      	ldr	r0, [pc, #164]	; (197c <PCA9685::Read(unsigned short*, unsigned short*)+0xac>)
    18d8:	447b      	add	r3, pc
    18da:	b085      	sub	sp, #20
    18dc:	4615      	mov	r5, r2
    18de:	581c      	ldr	r4, [r3, r0]
    18e0:	6823      	ldr	r3, [r4, #0]
    18e2:	9303      	str	r3, [sp, #12]
    18e4:	b1f9      	cbz	r1, 1926 <PCA9685::Read(unsigned short*, unsigned short*)+0x56>
    18e6:	7838      	ldrb	r0, [r7, #0]
    18e8:	460e      	mov	r6, r1
    18ea:	23fa      	movs	r3, #250	; 0xfa
    18ec:	f88d 3007 	strb.w	r3, [sp, #7]
    18f0:	2300      	movs	r3, #0
    18f2:	f8ad 3008 	strh.w	r3, [sp, #8]
    18f6:	f001 fb63 	bl	2fc0 <bcm2835_i2c_setSlaveAddress>
    18fa:	f44f 50d4 	mov.w	r0, #6784	; 0x1a80
    18fe:	f2c0 0006 	movt	r0, #6
    1902:	f001 fb93 	bl	302c <bcm2835_i2c_set_baudrate>
    1906:	2101      	movs	r1, #1
    1908:	f10d 0007 	add.w	r0, sp, #7
    190c:	f001 fb9e 	bl	304c <bcm2835_i2c_write>
    1910:	2102      	movs	r1, #2
    1912:	a802      	add	r0, sp, #8
    1914:	f001 fc16 	bl	3144 <bcm2835_i2c_read>
    1918:	f89d 2009 	ldrb.w	r2, [sp, #9]
    191c:	f89d 3008 	ldrb.w	r3, [sp, #8]
    1920:	ea43 2302 	orr.w	r3, r3, r2, lsl #8
    1924:	8033      	strh	r3, [r6, #0]
    1926:	b1f5      	cbz	r5, 1966 <PCA9685::Read(unsigned short*, unsigned short*)+0x96>
    1928:	7838      	ldrb	r0, [r7, #0]
    192a:	22fc      	movs	r2, #252	; 0xfc
    192c:	2300      	movs	r3, #0
    192e:	f88d 2007 	strb.w	r2, [sp, #7]
    1932:	f8ad 3008 	strh.w	r3, [sp, #8]
    1936:	f001 fb43 	bl	2fc0 <bcm2835_i2c_setSlaveAddress>
    193a:	f44f 50d4 	mov.w	r0, #6784	; 0x1a80
    193e:	f2c0 0006 	movt	r0, #6
    1942:	f001 fb73 	bl	302c <bcm2835_i2c_set_baudrate>
    1946:	2101      	movs	r1, #1
    1948:	f10d 0007 	add.w	r0, sp, #7
    194c:	f001 fb7e 	bl	304c <bcm2835_i2c_write>
    1950:	2102      	movs	r1, #2
    1952:	a802      	add	r0, sp, #8
    1954:	f001 fbf6 	bl	3144 <bcm2835_i2c_read>
    1958:	f89d 2009 	ldrb.w	r2, [sp, #9]
    195c:	f89d 3008 	ldrb.w	r3, [sp, #8]
    1960:	ea43 2302 	orr.w	r3, r3, r2, lsl #8
    1964:	802b      	strh	r3, [r5, #0]
    1966:	9a03      	ldr	r2, [sp, #12]
    1968:	6823      	ldr	r3, [r4, #0]
    196a:	429a      	cmp	r2, r3
    196c:	d101      	bne.n	1972 <PCA9685::Read(unsigned short*, unsigned short*)+0xa2>
    196e:	b005      	add	sp, #20
    1970:	bdf0      	pop	{r4, r5, r6, r7, pc}
    1972:	f7fe ef06 	blx	780 <__stack_chk_fail@plt>
    1976:	bf00      	nop
    1978:	00013698 	muleq	r1, r8, r6
    197c:	00000074 	andeq	r0, r0, r4, ror r0

00001980 <PCA9685::SetFullOn(unsigned char, bool)>:
    1980:	4b4a      	ldr	r3, [pc, #296]	; (1aac <PCA9685::SetFullOn(unsigned char, bool)+0x12c>)
    1982:	290f      	cmp	r1, #15
    1984:	e92d 43f0 	stmdb	sp!, {r4, r5, r6, r7, r8, r9, lr}
    1988:	4680      	mov	r8, r0
    198a:	4849      	ldr	r0, [pc, #292]	; (1ab0 <PCA9685::SetFullOn(unsigned char, bool)+0x130>)
    198c:	447b      	add	r3, pc
    198e:	bf98      	it	ls
    1990:	008e      	lslls	r6, r1, #2
    1992:	b087      	sub	sp, #28
    1994:	bf98      	it	ls
    1996:	3607      	addls	r6, #7
    1998:	ac06      	add	r4, sp, #24
    199a:	581f      	ldr	r7, [r3, r0]
    199c:	bf88      	it	hi
    199e:	26fb      	movhi	r6, #251	; 0xfb
    19a0:	f898 0000 	ldrb.w	r0, [r8]
    19a4:	bf98      	it	ls
    19a6:	b2f6      	uxtbls	r6, r6
    19a8:	4691      	mov	r9, r2
    19aa:	460d      	mov	r5, r1
    19ac:	683b      	ldr	r3, [r7, #0]
    19ae:	f804 6d09 	strb.w	r6, [r4, #-9]!
    19b2:	9305      	str	r3, [sp, #20]
    19b4:	f001 fb04 	bl	2fc0 <bcm2835_i2c_setSlaveAddress>
    19b8:	f44f 50d4 	mov.w	r0, #6784	; 0x1a80
    19bc:	f2c0 0006 	movt	r0, #6
    19c0:	f001 fb34 	bl	302c <bcm2835_i2c_set_baudrate>
    19c4:	2101      	movs	r1, #1
    19c6:	4620      	mov	r0, r4
    19c8:	f001 fb40 	bl	304c <bcm2835_i2c_write>
    19cc:	4620      	mov	r0, r4
    19ce:	2101      	movs	r1, #1
    19d0:	f001 fbb8 	bl	3144 <bcm2835_i2c_read>
    19d4:	f89d 300f 	ldrb.w	r3, [sp, #15]
    19d8:	f1b9 0f00 	cmp.w	r9, #0
    19dc:	d044      	beq.n	1a68 <PCA9685::SetFullOn(unsigned char, bool)+0xe8>
    19de:	f898 0000 	ldrb.w	r0, [r8]
    19e2:	aa04      	add	r2, sp, #16
    19e4:	f043 0310 	orr.w	r3, r3, #16
    19e8:	9201      	str	r2, [sp, #4]
    19ea:	f88d 3011 	strb.w	r3, [sp, #17]
    19ee:	f88d 6010 	strb.w	r6, [sp, #16]
    19f2:	f001 fae5 	bl	2fc0 <bcm2835_i2c_setSlaveAddress>
    19f6:	f44f 50d4 	mov.w	r0, #6784	; 0x1a80
    19fa:	f2c0 0006 	movt	r0, #6
    19fe:	f001 fb15 	bl	302c <bcm2835_i2c_set_baudrate>
    1a02:	9801      	ldr	r0, [sp, #4]
    1a04:	2102      	movs	r1, #2
    1a06:	f001 fb21 	bl	304c <bcm2835_i2c_write>
    1a0a:	2d0f      	cmp	r5, #15
    1a0c:	bf88      	it	hi
    1a0e:	25fd      	movhi	r5, #253	; 0xfd
    1a10:	d945      	bls.n	1a9e <PCA9685::SetFullOn(unsigned char, bool)+0x11e>
    1a12:	f898 0000 	ldrb.w	r0, [r8]
    1a16:	f88d 500f 	strb.w	r5, [sp, #15]
    1a1a:	f001 fad1 	bl	2fc0 <bcm2835_i2c_setSlaveAddress>
    1a1e:	f44f 50d4 	mov.w	r0, #6784	; 0x1a80
    1a22:	f2c0 0006 	movt	r0, #6
    1a26:	f001 fb01 	bl	302c <bcm2835_i2c_set_baudrate>
    1a2a:	2101      	movs	r1, #1
    1a2c:	4620      	mov	r0, r4
    1a2e:	f001 fb0d 	bl	304c <bcm2835_i2c_write>
    1a32:	2101      	movs	r1, #1
    1a34:	4620      	mov	r0, r4
    1a36:	f001 fb85 	bl	3144 <bcm2835_i2c_read>
    1a3a:	f89d 300f 	ldrb.w	r3, [sp, #15]
    1a3e:	f898 0000 	ldrb.w	r0, [r8]
    1a42:	f023 0310 	bic.w	r3, r3, #16
    1a46:	f88d 5010 	strb.w	r5, [sp, #16]
    1a4a:	f88d 3011 	strb.w	r3, [sp, #17]
    1a4e:	f001 fab7 	bl	2fc0 <bcm2835_i2c_setSlaveAddress>
    1a52:	f44f 50d4 	mov.w	r0, #6784	; 0x1a80
    1a56:	f2c0 0006 	movt	r0, #6
    1a5a:	f001 fae7 	bl	302c <bcm2835_i2c_set_baudrate>
    1a5e:	2102      	movs	r1, #2
    1a60:	9801      	ldr	r0, [sp, #4]
    1a62:	f001 faf3 	bl	304c <bcm2835_i2c_write>
    1a66:	e013      	b.n	1a90 <PCA9685::SetFullOn(unsigned char, bool)+0x110>
    1a68:	f898 0000 	ldrb.w	r0, [r8]
    1a6c:	f023 0310 	bic.w	r3, r3, #16
    1a70:	f88d 6010 	strb.w	r6, [sp, #16]
    1a74:	f88d 3011 	strb.w	r3, [sp, #17]
    1a78:	f001 faa2 	bl	2fc0 <bcm2835_i2c_setSlaveAddress>
    1a7c:	f44f 50d4 	mov.w	r0, #6784	; 0x1a80
    1a80:	f2c0 0006 	movt	r0, #6
    1a84:	f001 fad2 	bl	302c <bcm2835_i2c_set_baudrate>
    1a88:	2102      	movs	r1, #2
    1a8a:	a804      	add	r0, sp, #16
    1a8c:	f001 fade 	bl	304c <bcm2835_i2c_write>
    1a90:	9a05      	ldr	r2, [sp, #20]
    1a92:	683b      	ldr	r3, [r7, #0]
    1a94:	429a      	cmp	r2, r3
    1a96:	d106      	bne.n	1aa6 <PCA9685::SetFullOn(unsigned char, bool)+0x126>
    1a98:	b007      	add	sp, #28
    1a9a:	e8bd 83f0 	ldmia.w	sp!, {r4, r5, r6, r7, r8, r9, pc}
    1a9e:	00ad      	lsls	r5, r5, #2
    1aa0:	3509      	adds	r5, #9
    1aa2:	b2ed      	uxtb	r5, r5
    1aa4:	e7b5      	b.n	1a12 <PCA9685::SetFullOn(unsigned char, bool)+0x92>
    1aa6:	f7fe ee6c 	blx	780 <__stack_chk_fail@plt>
    1aaa:	bf00      	nop
    1aac:	000135e4 	andeq	r3, r1, r4, ror #11
    1ab0:	00000074 	andeq	r0, r0, r4, ror r0

00001ab4 <PCA9685::SetFullOff(unsigned char, bool)>:
    1ab4:	4b25      	ldr	r3, [pc, #148]	; (1b4c <PCA9685::SetFullOff(unsigned char, bool)+0x98>)
    1ab6:	290f      	cmp	r1, #15
    1ab8:	e92d 41f0 	stmdb	sp!, {r4, r5, r6, r7, r8, lr}
    1abc:	4606      	mov	r6, r0
    1abe:	4824      	ldr	r0, [pc, #144]	; (1b50 <PCA9685::SetFullOff(unsigned char, bool)+0x9c>)
    1ac0:	447b      	add	r3, pc
    1ac2:	bf98      	it	ls
    1ac4:	008c      	lslls	r4, r1, #2
    1ac6:	b084      	sub	sp, #16
    1ac8:	bf98      	it	ls
    1aca:	3409      	addls	r4, #9
    1acc:	ad04      	add	r5, sp, #16
    1ace:	581f      	ldr	r7, [r3, r0]
    1ad0:	bf88      	it	hi
    1ad2:	24fd      	movhi	r4, #253	; 0xfd
    1ad4:	7830      	ldrb	r0, [r6, #0]
    1ad6:	bf98      	it	ls
    1ad8:	b2e4      	uxtbls	r4, r4
    1ada:	4690      	mov	r8, r2
    1adc:	f805 4d09 	strb.w	r4, [r5, #-9]!
    1ae0:	683b      	ldr	r3, [r7, #0]
    1ae2:	9303      	str	r3, [sp, #12]
    1ae4:	f001 fa6c 	bl	2fc0 <bcm2835_i2c_setSlaveAddress>
    1ae8:	f44f 50d4 	mov.w	r0, #6784	; 0x1a80
    1aec:	f2c0 0006 	movt	r0, #6
    1af0:	f001 fa9c 	bl	302c <bcm2835_i2c_set_baudrate>
    1af4:	2101      	movs	r1, #1
    1af6:	4628      	mov	r0, r5
    1af8:	f001 faa8 	bl	304c <bcm2835_i2c_write>
    1afc:	4628      	mov	r0, r5
    1afe:	2101      	movs	r1, #1
    1b00:	f001 fb20 	bl	3144 <bcm2835_i2c_read>
    1b04:	f89d 3007 	ldrb.w	r3, [sp, #7]
    1b08:	f1b8 0f00 	cmp.w	r8, #0
    1b0c:	d119      	bne.n	1b42 <PCA9685::SetFullOff(unsigned char, bool)+0x8e>
    1b0e:	f003 03ef 	and.w	r3, r3, #239	; 0xef
    1b12:	7830      	ldrb	r0, [r6, #0]
    1b14:	f88d 3009 	strb.w	r3, [sp, #9]
    1b18:	f88d 4008 	strb.w	r4, [sp, #8]
    1b1c:	f001 fa50 	bl	2fc0 <bcm2835_i2c_setSlaveAddress>
    1b20:	f44f 50d4 	mov.w	r0, #6784	; 0x1a80
    1b24:	f2c0 0006 	movt	r0, #6
    1b28:	f001 fa80 	bl	302c <bcm2835_i2c_set_baudrate>
    1b2c:	2102      	movs	r1, #2
    1b2e:	a802      	add	r0, sp, #8
    1b30:	f001 fa8c 	bl	304c <bcm2835_i2c_write>
    1b34:	9a03      	ldr	r2, [sp, #12]
    1b36:	683b      	ldr	r3, [r7, #0]
    1b38:	429a      	cmp	r2, r3
    1b3a:	d105      	bne.n	1b48 <PCA9685::SetFullOff(unsigned char, bool)+0x94>
    1b3c:	b004      	add	sp, #16
    1b3e:	e8bd 81f0 	ldmia.w	sp!, {r4, r5, r6, r7, r8, pc}
    1b42:	f043 0310 	orr.w	r3, r3, #16
    1b46:	e7e4      	b.n	1b12 <PCA9685::SetFullOff(unsigned char, bool)+0x5e>
    1b48:	f7fe ee1a 	blx	780 <__stack_chk_fail@plt>
    1b4c:	000134b0 			; <UNDEFINED> instruction: 0x000134b0
    1b50:	00000074 	andeq	r0, r0, r4, ror r0

00001b54 <PCA9685::CalcPresScale(unsigned short)>:
    1b54:	2918      	cmp	r1, #24
    1b56:	f240 53f6 	movw	r3, #1526	; 0x5f6
    1b5a:	ed9f 7a0f 	vldr	s14, [pc, #60]	; 1b98 <PCA9685::CalcPresScale(unsigned short)+0x44>
    1b5e:	b082      	sub	sp, #8
    1b60:	bf38      	it	cc
    1b62:	2118      	movcc	r1, #24
    1b64:	4299      	cmp	r1, r3
    1b66:	bf28      	it	cs
    1b68:	4619      	movcs	r1, r3
    1b6a:	eeb7 6a00 	vmov.f32	s12, #112	; 0x3f800000  1.0
    1b6e:	ee07 1a90 	vmov	s15, r1
    1b72:	eef8 7a67 	vcvt.f32.u32	s15, s15
    1b76:	ee37 7a87 	vadd.f32	s14, s15, s14
    1b7a:	ee37 7a46 	vsub.f32	s14, s14, s12
    1b7e:	eec7 6a27 	vdiv.f32	s13, s14, s15
    1b82:	ee76 7ac6 	vsub.f32	s15, s13, s12
    1b86:	eefc 7ae7 	vcvt.u32.f32	s15, s15
    1b8a:	edcd 7a01 	vstr	s15, [sp, #4]
    1b8e:	f89d 0004 	ldrb.w	r0, [sp, #4]
    1b92:	b002      	add	sp, #8
    1b94:	4770      	bx	lr
    1b96:	bf00      	nop
    1b98:	45bebc20 	ldrmi	fp, [lr, #3104]!	; 0xc20

00001b9c <PCA9685::CalcFrequency(unsigned char)>:
    1b9c:	1c4b      	adds	r3, r1, #1
    1b9e:	eddf 5a4c 	vldr	s11, [pc, #304]	; 1cd0 <PCA9685::CalcFrequency(unsigned char)+0x134>
    1ba2:	b410      	push	{r4}
    1ba4:	b083      	sub	sp, #12
    1ba6:	ee07 3a90 	vmov	s15, r3
    1baa:	eeb7 6a00 	vmov.f32	s12, #112	; 0x3f800000  1.0
    1bae:	eef8 7ae7 	vcvt.f32.s32	s15, s15
    1bb2:	ee77 6aa5 	vadd.f32	s13, s15, s11
    1bb6:	ee76 6ac6 	vsub.f32	s13, s13, s12
    1bba:	ee86 7aa7 	vdiv.f32	s14, s13, s15
    1bbe:	eefc 7ac7 	vcvt.u32.f32	s15, s14
    1bc2:	ee17 3a90 	vmov	r3, s15
    1bc6:	b298      	uxth	r0, r3
    1bc8:	2818      	cmp	r0, #24
    1bca:	d97e      	bls.n	1cca <PCA9685::CalcFrequency(unsigned char)+0x12e>
    1bcc:	f240 54f6 	movw	r4, #1526	; 0x5f6
    1bd0:	42a0      	cmp	r0, r4
    1bd2:	4603      	mov	r3, r0
    1bd4:	bf28      	it	cs
    1bd6:	4623      	movcs	r3, r4
    1bd8:	ee07 3a90 	vmov	s15, r3
    1bdc:	eef8 7a67 	vcvt.f32.u32	s15, s15
    1be0:	ee77 6aa5 	vadd.f32	s13, s15, s11
    1be4:	ee76 6ac6 	vsub.f32	s13, s13, s12
    1be8:	ee86 7aa7 	vdiv.f32	s14, s13, s15
    1bec:	ee77 7a46 	vsub.f32	s15, s14, s12
    1bf0:	eefc 7ae7 	vcvt.u32.f32	s15, s15
    1bf4:	edcd 7a01 	vstr	s15, [sp, #4]
    1bf8:	f89d 3004 	ldrb.w	r3, [sp, #4]
    1bfc:	428b      	cmp	r3, r1
    1bfe:	4603      	mov	r3, r0
    1c00:	d019      	beq.n	1c36 <PCA9685::CalcFrequency(unsigned char)+0x9a>
    1c02:	e01c      	b.n	1c3e <PCA9685::CalcFrequency(unsigned char)+0xa2>
    1c04:	42a3      	cmp	r3, r4
    1c06:	461a      	mov	r2, r3
    1c08:	bf28      	it	cs
    1c0a:	4622      	movcs	r2, r4
    1c0c:	b292      	uxth	r2, r2
    1c0e:	ee07 2a90 	vmov	s15, r2
    1c12:	eef8 7a67 	vcvt.f32.u32	s15, s15
    1c16:	ee77 6aa5 	vadd.f32	s13, s15, s11
    1c1a:	ee76 6ac6 	vsub.f32	s13, s13, s12
    1c1e:	ee86 7aa7 	vdiv.f32	s14, s13, s15
    1c22:	ee77 7a46 	vsub.f32	s15, s14, s12
    1c26:	eefc 7ae7 	vcvt.u32.f32	s15, s15
    1c2a:	edcd 7a01 	vstr	s15, [sp, #4]
    1c2e:	f89d 2004 	ldrb.w	r2, [sp, #4]
    1c32:	428a      	cmp	r2, r1
    1c34:	d103      	bne.n	1c3e <PCA9685::CalcFrequency(unsigned char)+0xa2>
    1c36:	3b01      	subs	r3, #1
    1c38:	b29b      	uxth	r3, r3
    1c3a:	2b18      	cmp	r3, #24
    1c3c:	d1e2      	bne.n	1c04 <PCA9685::CalcFrequency(unsigned char)+0x68>
    1c3e:	f240 52f5 	movw	r2, #1525	; 0x5f5
    1c42:	4290      	cmp	r0, r2
    1c44:	d83a      	bhi.n	1cbc <PCA9685::CalcFrequency(unsigned char)+0x120>
    1c46:	2818      	cmp	r0, #24
    1c48:	4602      	mov	r2, r0
    1c4a:	eddf 5a21 	vldr	s11, [pc, #132]	; 1cd0 <PCA9685::CalcFrequency(unsigned char)+0x134>
    1c4e:	bf38      	it	cc
    1c50:	2218      	movcc	r2, #24
    1c52:	ee07 2a90 	vmov	s15, r2
    1c56:	eeb7 6a00 	vmov.f32	s12, #112	; 0x3f800000  1.0
    1c5a:	eef8 7a67 	vcvt.f32.u32	s15, s15
    1c5e:	ee77 6aa5 	vadd.f32	s13, s15, s11
    1c62:	ee76 6ac6 	vsub.f32	s13, s13, s12
    1c66:	ee86 7aa7 	vdiv.f32	s14, s13, s15
    1c6a:	ee77 7a46 	vsub.f32	s15, s14, s12
    1c6e:	eefc 7ae7 	vcvt.u32.f32	s15, s15
    1c72:	edcd 7a01 	vstr	s15, [sp, #4]
    1c76:	f89d 2004 	ldrb.w	r2, [sp, #4]
    1c7a:	428a      	cmp	r2, r1
    1c7c:	d11e      	bne.n	1cbc <PCA9685::CalcFrequency(unsigned char)+0x120>
    1c7e:	f240 54f6 	movw	r4, #1526	; 0x5f6
    1c82:	e017      	b.n	1cb4 <PCA9685::CalcFrequency(unsigned char)+0x118>
    1c84:	2818      	cmp	r0, #24
    1c86:	4602      	mov	r2, r0
    1c88:	bf38      	it	cc
    1c8a:	2218      	movcc	r2, #24
    1c8c:	ee07 2a90 	vmov	s15, r2
    1c90:	eef8 7a67 	vcvt.f32.u32	s15, s15
    1c94:	ee77 6aa5 	vadd.f32	s13, s15, s11
    1c98:	ee76 6ac6 	vsub.f32	s13, s13, s12
    1c9c:	ee86 7aa7 	vdiv.f32	s14, s13, s15
    1ca0:	ee77 7a46 	vsub.f32	s15, s14, s12
    1ca4:	eefc 7ae7 	vcvt.u32.f32	s15, s15
    1ca8:	edcd 7a01 	vstr	s15, [sp, #4]
    1cac:	f89d 2004 	ldrb.w	r2, [sp, #4]
    1cb0:	428a      	cmp	r2, r1
    1cb2:	d103      	bne.n	1cbc <PCA9685::CalcFrequency(unsigned char)+0x120>
    1cb4:	3001      	adds	r0, #1
    1cb6:	b280      	uxth	r0, r0
    1cb8:	42a0      	cmp	r0, r4
    1cba:	d1e3      	bne.n	1c84 <PCA9685::CalcFrequency(unsigned char)+0xe8>
    1cbc:	4418      	add	r0, r3
    1cbe:	f3c0 004e 	ubfx	r0, r0, #1, #15
    1cc2:	b003      	add	sp, #12
    1cc4:	f85d 4b04 	ldr.w	r4, [sp], #4
    1cc8:	4770      	bx	lr
    1cca:	4603      	mov	r3, r0
    1ccc:	e7bb      	b.n	1c46 <PCA9685::CalcFrequency(unsigned char)+0xaa>
    1cce:	bf00      	nop
    1cd0:	45bebc20 	ldrmi	fp, [lr, #3104]!	; 0xc20

00001cd4 <PCA9685::Dump()>:
    1cd4:	4770      	bx	lr
    1cd6:	bf00      	nop

00001cd8 <PCA9685::AutoIncrement(bool)>:
    1cd8:	4b1f      	ldr	r3, [pc, #124]	; (1d58 <PCA9685::AutoIncrement(bool)+0x80>)
    1cda:	4a20      	ldr	r2, [pc, #128]	; (1d5c <PCA9685::AutoIncrement(bool)+0x84>)
    1cdc:	447b      	add	r3, pc
    1cde:	b5f0      	push	{r4, r5, r6, r7, lr}
    1ce0:	b085      	sub	sp, #20
    1ce2:	589d      	ldr	r5, [r3, r2]
    1ce4:	ac04      	add	r4, sp, #16
    1ce6:	4606      	mov	r6, r0
    1ce8:	7800      	ldrb	r0, [r0, #0]
    1cea:	460f      	mov	r7, r1
    1cec:	2100      	movs	r1, #0
    1cee:	682b      	ldr	r3, [r5, #0]
    1cf0:	f804 1d09 	strb.w	r1, [r4, #-9]!
    1cf4:	9303      	str	r3, [sp, #12]
    1cf6:	f001 f963 	bl	2fc0 <bcm2835_i2c_setSlaveAddress>
    1cfa:	f44f 50d4 	mov.w	r0, #6784	; 0x1a80
    1cfe:	f2c0 0006 	movt	r0, #6
    1d02:	f001 f993 	bl	302c <bcm2835_i2c_set_baudrate>
    1d06:	2101      	movs	r1, #1
    1d08:	4620      	mov	r0, r4
    1d0a:	f001 f99f 	bl	304c <bcm2835_i2c_write>
    1d0e:	4620      	mov	r0, r4
    1d10:	2101      	movs	r1, #1
    1d12:	f001 fa17 	bl	3144 <bcm2835_i2c_read>
    1d16:	f89d 3007 	ldrb.w	r3, [sp, #7]
    1d1a:	f003 03df 	and.w	r3, r3, #223	; 0xdf
    1d1e:	b10f      	cbz	r7, 1d24 <PCA9685::AutoIncrement(bool)+0x4c>
    1d20:	f043 0320 	orr.w	r3, r3, #32
    1d24:	7830      	ldrb	r0, [r6, #0]
    1d26:	2200      	movs	r2, #0
    1d28:	f88d 3009 	strb.w	r3, [sp, #9]
    1d2c:	f88d 2008 	strb.w	r2, [sp, #8]
    1d30:	f001 f946 	bl	2fc0 <bcm2835_i2c_setSlaveAddress>
    1d34:	f44f 50d4 	mov.w	r0, #6784	; 0x1a80
    1d38:	f2c0 0006 	movt	r0, #6
    1d3c:	f001 f976 	bl	302c <bcm2835_i2c_set_baudrate>
    1d40:	2102      	movs	r1, #2
    1d42:	a802      	add	r0, sp, #8
    1d44:	f001 f982 	bl	304c <bcm2835_i2c_write>
    1d48:	9a03      	ldr	r2, [sp, #12]
    1d4a:	682b      	ldr	r3, [r5, #0]
    1d4c:	429a      	cmp	r2, r3
    1d4e:	d101      	bne.n	1d54 <PCA9685::AutoIncrement(bool)+0x7c>
    1d50:	b005      	add	sp, #20
    1d52:	bdf0      	pop	{r4, r5, r6, r7, pc}
    1d54:	f7fe ed14 	blx	780 <__stack_chk_fail@plt>
    1d58:	00013294 	muleq	r1, r4, r2
    1d5c:	00000074 	andeq	r0, r0, r4, ror r0

00001d60 <PCA9685::I2cSetup()>:
    1d60:	b508      	push	{r3, lr}
    1d62:	7800      	ldrb	r0, [r0, #0]
    1d64:	f001 f92c 	bl	2fc0 <bcm2835_i2c_setSlaveAddress>
    1d68:	f44f 50d4 	mov.w	r0, #6784	; 0x1a80
    1d6c:	e8bd 4008 	ldmia.w	sp!, {r3, lr}
    1d70:	f2c0 0006 	movt	r0, #6
    1d74:	f001 b95a 	b.w	302c <bcm2835_i2c_set_baudrate>

00001d78 <PCA9685::I2cWriteReg(unsigned char, unsigned char)>:
    1d78:	b510      	push	{r4, lr}
    1d7a:	b082      	sub	sp, #8
    1d7c:	4c0f      	ldr	r4, [pc, #60]	; (1dbc <PCA9685::I2cWriteReg(unsigned char, unsigned char)+0x44>)
    1d7e:	4b10      	ldr	r3, [pc, #64]	; (1dc0 <PCA9685::I2cWriteReg(unsigned char, unsigned char)+0x48>)
    1d80:	447c      	add	r4, pc
    1d82:	7800      	ldrb	r0, [r0, #0]
    1d84:	58e4      	ldr	r4, [r4, r3]
    1d86:	f88d 2001 	strb.w	r2, [sp, #1]
    1d8a:	f88d 1000 	strb.w	r1, [sp]
    1d8e:	6823      	ldr	r3, [r4, #0]
    1d90:	9301      	str	r3, [sp, #4]
    1d92:	f001 f915 	bl	2fc0 <bcm2835_i2c_setSlaveAddress>
    1d96:	f44f 50d4 	mov.w	r0, #6784	; 0x1a80
    1d9a:	f2c0 0006 	movt	r0, #6
    1d9e:	f001 f945 	bl	302c <bcm2835_i2c_set_baudrate>
    1da2:	2102      	movs	r1, #2
    1da4:	4668      	mov	r0, sp
    1da6:	f001 f951 	bl	304c <bcm2835_i2c_write>
    1daa:	9a01      	ldr	r2, [sp, #4]
    1dac:	6823      	ldr	r3, [r4, #0]
    1dae:	429a      	cmp	r2, r3
    1db0:	d101      	bne.n	1db6 <PCA9685::I2cWriteReg(unsigned char, unsigned char)+0x3e>
    1db2:	b002      	add	sp, #8
    1db4:	bd10      	pop	{r4, pc}
    1db6:	f7fe ece4 	blx	780 <__stack_chk_fail@plt>
    1dba:	bf00      	nop
    1dbc:	000131f0 	strdeq	r3, [r1], -r0
    1dc0:	00000074 	andeq	r0, r0, r4, ror r0

00001dc4 <PCA9685::I2cReadReg(unsigned char)>:
    1dc4:	4b12      	ldr	r3, [pc, #72]	; (1e10 <PCA9685::I2cReadReg(unsigned char)+0x4c>)
    1dc6:	4a13      	ldr	r2, [pc, #76]	; (1e14 <PCA9685::I2cReadReg(unsigned char)+0x50>)
    1dc8:	447b      	add	r3, pc
    1dca:	b530      	push	{r4, r5, lr}
    1dcc:	b083      	sub	sp, #12
    1dce:	589d      	ldr	r5, [r3, r2]
    1dd0:	ac02      	add	r4, sp, #8
    1dd2:	7800      	ldrb	r0, [r0, #0]
    1dd4:	f804 1d05 	strb.w	r1, [r4, #-5]!
    1dd8:	682b      	ldr	r3, [r5, #0]
    1dda:	9301      	str	r3, [sp, #4]
    1ddc:	f001 f8f0 	bl	2fc0 <bcm2835_i2c_setSlaveAddress>
    1de0:	f44f 50d4 	mov.w	r0, #6784	; 0x1a80
    1de4:	f2c0 0006 	movt	r0, #6
    1de8:	f001 f920 	bl	302c <bcm2835_i2c_set_baudrate>
    1dec:	2101      	movs	r1, #1
    1dee:	4620      	mov	r0, r4
    1df0:	f001 f92c 	bl	304c <bcm2835_i2c_write>
    1df4:	4620      	mov	r0, r4
    1df6:	2101      	movs	r1, #1
    1df8:	f001 f9a4 	bl	3144 <bcm2835_i2c_read>
    1dfc:	9a01      	ldr	r2, [sp, #4]
    1dfe:	682b      	ldr	r3, [r5, #0]
    1e00:	f89d 0003 	ldrb.w	r0, [sp, #3]
    1e04:	429a      	cmp	r2, r3
    1e06:	d101      	bne.n	1e0c <PCA9685::I2cReadReg(unsigned char)+0x48>
    1e08:	b003      	add	sp, #12
    1e0a:	bd30      	pop	{r4, r5, pc}
    1e0c:	f7fe ecb8 	blx	780 <__stack_chk_fail@plt>
    1e10:	000131a8 	andeq	r3, r1, r8, lsr #3
    1e14:	00000074 	andeq	r0, r0, r4, ror r0

00001e18 <PCA9685::I2cWriteReg(unsigned char, unsigned short)>:
    1e18:	4b11      	ldr	r3, [pc, #68]	; (1e60 <PCA9685::I2cWriteReg(unsigned char, unsigned short)+0x48>)
    1e1a:	b530      	push	{r4, r5, lr}
    1e1c:	447b      	add	r3, pc
    1e1e:	4c11      	ldr	r4, [pc, #68]	; (1e64 <PCA9685::I2cWriteReg(unsigned char, unsigned short)+0x4c>)
    1e20:	b083      	sub	sp, #12
    1e22:	7800      	ldrb	r0, [r0, #0]
    1e24:	1215      	asrs	r5, r2, #8
    1e26:	591c      	ldr	r4, [r3, r4]
    1e28:	f88d 2001 	strb.w	r2, [sp, #1]
    1e2c:	f88d 1000 	strb.w	r1, [sp]
    1e30:	6823      	ldr	r3, [r4, #0]
    1e32:	f88d 5002 	strb.w	r5, [sp, #2]
    1e36:	9301      	str	r3, [sp, #4]
    1e38:	f001 f8c2 	bl	2fc0 <bcm2835_i2c_setSlaveAddress>
    1e3c:	f44f 50d4 	mov.w	r0, #6784	; 0x1a80
    1e40:	f2c0 0006 	movt	r0, #6
    1e44:	f001 f8f2 	bl	302c <bcm2835_i2c_set_baudrate>
    1e48:	2103      	movs	r1, #3
    1e4a:	4668      	mov	r0, sp
    1e4c:	f001 f8fe 	bl	304c <bcm2835_i2c_write>
    1e50:	9a01      	ldr	r2, [sp, #4]
    1e52:	6823      	ldr	r3, [r4, #0]
    1e54:	429a      	cmp	r2, r3
    1e56:	d101      	bne.n	1e5c <PCA9685::I2cWriteReg(unsigned char, unsigned short)+0x44>
    1e58:	b003      	add	sp, #12
    1e5a:	bd30      	pop	{r4, r5, pc}
    1e5c:	f7fe ec90 	blx	780 <__stack_chk_fail@plt>
    1e60:	00013154 	andeq	r3, r1, r4, asr r1
    1e64:	00000074 	andeq	r0, r0, r4, ror r0

00001e68 <PCA9685::I2cReadReg16(unsigned char)>:
    1e68:	4b16      	ldr	r3, [pc, #88]	; (1ec4 <PCA9685::I2cReadReg16(unsigned char)+0x5c>)
    1e6a:	4a17      	ldr	r2, [pc, #92]	; (1ec8 <PCA9685::I2cReadReg16(unsigned char)+0x60>)
    1e6c:	447b      	add	r3, pc
    1e6e:	b530      	push	{r4, r5, lr}
    1e70:	b085      	sub	sp, #20
    1e72:	589c      	ldr	r4, [r3, r2]
    1e74:	2500      	movs	r5, #0
    1e76:	7800      	ldrb	r0, [r0, #0]
    1e78:	f88d 1007 	strb.w	r1, [sp, #7]
    1e7c:	6823      	ldr	r3, [r4, #0]
    1e7e:	f8ad 5008 	strh.w	r5, [sp, #8]
    1e82:	9303      	str	r3, [sp, #12]
    1e84:	f001 f89c 	bl	2fc0 <bcm2835_i2c_setSlaveAddress>
    1e88:	f44f 50d4 	mov.w	r0, #6784	; 0x1a80
    1e8c:	f2c0 0006 	movt	r0, #6
    1e90:	f001 f8cc 	bl	302c <bcm2835_i2c_set_baudrate>
    1e94:	2101      	movs	r1, #1
    1e96:	f10d 0007 	add.w	r0, sp, #7
    1e9a:	f001 f8d7 	bl	304c <bcm2835_i2c_write>
    1e9e:	2102      	movs	r1, #2
    1ea0:	a802      	add	r0, sp, #8
    1ea2:	f001 f94f 	bl	3144 <bcm2835_i2c_read>
    1ea6:	9a03      	ldr	r2, [sp, #12]
    1ea8:	6823      	ldr	r3, [r4, #0]
    1eaa:	f89d 0009 	ldrb.w	r0, [sp, #9]
    1eae:	f89d 1008 	ldrb.w	r1, [sp, #8]
    1eb2:	429a      	cmp	r2, r3
    1eb4:	ea41 2000 	orr.w	r0, r1, r0, lsl #8
    1eb8:	d101      	bne.n	1ebe <PCA9685::I2cReadReg16(unsigned char)+0x56>
    1eba:	b005      	add	sp, #20
    1ebc:	bd30      	pop	{r4, r5, pc}
    1ebe:	f7fe ec60 	blx	780 <__stack_chk_fail@plt>
    1ec2:	bf00      	nop
    1ec4:	00013104 	andeq	r3, r1, r4, lsl #2
    1ec8:	00000074 	andeq	r0, r0, r4, ror r0

00001ecc <PCA9685::I2cWriteReg(unsigned char, unsigned short, unsigned short)>:
    1ecc:	b570      	push	{r4, r5, r6, lr}
    1ece:	b084      	sub	sp, #16
    1ed0:	4c13      	ldr	r4, [pc, #76]	; (1f20 <PCA9685::I2cWriteReg(unsigned char, unsigned short, unsigned short)+0x54>)
    1ed2:	1216      	asrs	r6, r2, #8
    1ed4:	4d13      	ldr	r5, [pc, #76]	; (1f24 <PCA9685::I2cWriteReg(unsigned char, unsigned short, unsigned short)+0x58>)
    1ed6:	447c      	add	r4, pc
    1ed8:	7800      	ldrb	r0, [r0, #0]
    1eda:	5964      	ldr	r4, [r4, r5]
    1edc:	121d      	asrs	r5, r3, #8
    1ede:	f88d 2005 	strb.w	r2, [sp, #5]
    1ee2:	f88d 3007 	strb.w	r3, [sp, #7]
    1ee6:	6822      	ldr	r2, [r4, #0]
    1ee8:	f88d 1004 	strb.w	r1, [sp, #4]
    1eec:	f88d 6006 	strb.w	r6, [sp, #6]
    1ef0:	9203      	str	r2, [sp, #12]
    1ef2:	f88d 5008 	strb.w	r5, [sp, #8]
    1ef6:	f001 f863 	bl	2fc0 <bcm2835_i2c_setSlaveAddress>
    1efa:	f44f 50d4 	mov.w	r0, #6784	; 0x1a80
    1efe:	f2c0 0006 	movt	r0, #6
    1f02:	f001 f893 	bl	302c <bcm2835_i2c_set_baudrate>
    1f06:	2105      	movs	r1, #5
    1f08:	a801      	add	r0, sp, #4
    1f0a:	f001 f89f 	bl	304c <bcm2835_i2c_write>
    1f0e:	9a03      	ldr	r2, [sp, #12]
    1f10:	6823      	ldr	r3, [r4, #0]
    1f12:	429a      	cmp	r2, r3
    1f14:	d101      	bne.n	1f1a <PCA9685::I2cWriteReg(unsigned char, unsigned short, unsigned short)+0x4e>
    1f16:	b004      	add	sp, #16
    1f18:	bd70      	pop	{r4, r5, r6, pc}
    1f1a:	f7fe ec32 	blx	780 <__stack_chk_fail@plt>
    1f1e:	bf00      	nop
    1f20:	0001309a 	muleq	r1, sl, r0
    1f24:	00000074 	andeq	r0, r0, r4, ror r0

00001f28 <bcm2835_peri_read_nb.part.2>:
    1f28:	4904      	ldr	r1, [pc, #16]	; (1f3c <bcm2835_peri_read_nb.part.2+0x14>)
    1f2a:	4602      	mov	r2, r0
    1f2c:	b508      	push	{r3, lr}
    1f2e:	4479      	add	r1, pc
    1f30:	2001      	movs	r0, #1
    1f32:	f7fe ec6a 	blx	808 <__printf_chk@plt+0x4>
    1f36:	2000      	movs	r0, #0
    1f38:	bd08      	pop	{r3, pc}
    1f3a:	bf00      	nop
    1f3c:	0000230e 	andeq	r2, r0, lr, lsl #6

00001f40 <bcm2835_peri_write_nb.part.4>:
    1f40:	460b      	mov	r3, r1
    1f42:	4903      	ldr	r1, [pc, #12]	; (1f50 <bcm2835_peri_write_nb.part.4+0x10>)
    1f44:	4602      	mov	r2, r0
    1f46:	2001      	movs	r0, #1
    1f48:	4479      	add	r1, pc
    1f4a:	f7fe bc5b 	b.w	804 <__printf_chk@plt>
    1f4e:	bf00      	nop
    1f50:	00002314 	andeq	r2, r0, r4, lsl r3

00001f54 <bcm2835_close.part.8>:
    1f54:	b508      	push	{r3, lr}
    1f56:	4b0c      	ldr	r3, [pc, #48]	; (1f88 <bcm2835_close.part.8+0x34>)
    1f58:	447b      	add	r3, pc
    1f5a:	6818      	ldr	r0, [r3, #0]
    1f5c:	1c42      	adds	r2, r0, #1
    1f5e:	d002      	beq.n	1f66 <bcm2835_close.part.8+0x12>
    1f60:	6859      	ldr	r1, [r3, #4]
    1f62:	f7fe ec64 	blx	82c <munmap@plt>
    1f66:	4b09      	ldr	r3, [pc, #36]	; (1f8c <bcm2835_close.part.8+0x38>)
    1f68:	f04f 32ff 	mov.w	r2, #4294967295
    1f6c:	447b      	add	r3, pc
    1f6e:	601a      	str	r2, [r3, #0]
    1f70:	e9c3 2202 	strd	r2, r2, [r3, #8]
    1f74:	e9c3 2204 	strd	r2, r2, [r3, #16]
    1f78:	e9c3 2206 	strd	r2, r2, [r3, #24]
    1f7c:	e9c3 2208 	strd	r2, r2, [r3, #32]
    1f80:	e9c3 220a 	strd	r2, r2, [r3, #40]	; 0x28
    1f84:	631a      	str	r2, [r3, #48]	; 0x30
    1f86:	bd08      	pop	{r3, pc}
    1f88:	000130c0 	andeq	r3, r1, r0, asr #1
    1f8c:	000130ac 	andeq	r3, r1, ip, lsr #1

00001f90 <mapmem.constprop.9>:
    1f90:	b530      	push	{r4, r5, lr}
    1f92:	b083      	sub	sp, #12
    1f94:	2301      	movs	r3, #1
    1f96:	9100      	str	r1, [sp, #0]
    1f98:	4601      	mov	r1, r0
    1f9a:	9201      	str	r2, [sp, #4]
    1f9c:	2000      	movs	r0, #0
    1f9e:	2203      	movs	r2, #3
    1fa0:	f7fe ec1e 	blx	7e0 <mmap@plt>
    1fa4:	4b0d      	ldr	r3, [pc, #52]	; (1fdc <mapmem.constprop.9+0x4c>)
    1fa6:	447b      	add	r3, pc
    1fa8:	4604      	mov	r4, r0
    1faa:	3001      	adds	r0, #1
    1fac:	d002      	beq.n	1fb4 <mapmem.constprop.9+0x24>
    1fae:	4620      	mov	r0, r4
    1fb0:	b003      	add	sp, #12
    1fb2:	bd30      	pop	{r4, r5, pc}
    1fb4:	4a0a      	ldr	r2, [pc, #40]	; (1fe0 <mapmem.constprop.9+0x50>)
    1fb6:	589b      	ldr	r3, [r3, r2]
    1fb8:	681d      	ldr	r5, [r3, #0]
    1fba:	f7fe ec1e 	blx	7f8 <__errno_location@plt>
    1fbe:	6800      	ldr	r0, [r0, #0]
    1fc0:	f7fe ebfc 	blx	7bc <strerror@plt>
    1fc4:	4b07      	ldr	r3, [pc, #28]	; (1fe4 <mapmem.constprop.9+0x54>)
    1fc6:	4a08      	ldr	r2, [pc, #32]	; (1fe8 <mapmem.constprop.9+0x58>)
    1fc8:	2101      	movs	r1, #1
    1fca:	447b      	add	r3, pc
    1fcc:	447a      	add	r2, pc
    1fce:	9000      	str	r0, [sp, #0]
    1fd0:	4628      	mov	r0, r5
    1fd2:	f7fe ec20 	blx	814 <__fprintf_chk@plt>
    1fd6:	4620      	mov	r0, r4
    1fd8:	b003      	add	sp, #12
    1fda:	bd30      	pop	{r4, r5, pc}
    1fdc:	00012fca 	andeq	r2, r1, sl, asr #31
    1fe0:	00000078 	andeq	r0, r0, r8, ror r0
    1fe4:	000022be 			; <UNDEFINED> instruction: 0x000022be
    1fe8:	000022c4 	andeq	r2, r0, r4, asr #5

00001fec <bcm2835_regbase>:
    1fec:	3801      	subs	r0, #1
    1fee:	280a      	cmp	r0, #10
    1ff0:	d82f      	bhi.n	2052 <bcm2835_regbase+0x66>
    1ff2:	e8df f000 	tbb	[pc, r0]
    1ff6:	120e0a06 	andne	r0, lr, #24576	; 0x6000
    1ffa:	061e1a16 			; <UNDEFINED> instruction: 0x061e1a16
    1ffe:	00222a26 	eoreq	r2, r2, r6, lsr #20
    2002:	4b15      	ldr	r3, [pc, #84]	; (2058 <bcm2835_regbase+0x6c>)
    2004:	447b      	add	r3, pc
    2006:	6a58      	ldr	r0, [r3, #36]	; 0x24
    2008:	4770      	bx	lr
    200a:	4b14      	ldr	r3, [pc, #80]	; (205c <bcm2835_regbase+0x70>)
    200c:	447b      	add	r3, pc
    200e:	6898      	ldr	r0, [r3, #8]
    2010:	4770      	bx	lr
    2012:	4b13      	ldr	r3, [pc, #76]	; (2060 <bcm2835_regbase+0x74>)
    2014:	447b      	add	r3, pc
    2016:	68d8      	ldr	r0, [r3, #12]
    2018:	4770      	bx	lr
    201a:	4b12      	ldr	r3, [pc, #72]	; (2064 <bcm2835_regbase+0x78>)
    201c:	447b      	add	r3, pc
    201e:	6918      	ldr	r0, [r3, #16]
    2020:	4770      	bx	lr
    2022:	4b11      	ldr	r3, [pc, #68]	; (2068 <bcm2835_regbase+0x7c>)
    2024:	447b      	add	r3, pc
    2026:	6958      	ldr	r0, [r3, #20]
    2028:	4770      	bx	lr
    202a:	4b10      	ldr	r3, [pc, #64]	; (206c <bcm2835_regbase+0x80>)
    202c:	447b      	add	r3, pc
    202e:	6998      	ldr	r0, [r3, #24]
    2030:	4770      	bx	lr
    2032:	4b0f      	ldr	r3, [pc, #60]	; (2070 <bcm2835_regbase+0x84>)
    2034:	447b      	add	r3, pc
    2036:	69d8      	ldr	r0, [r3, #28]
    2038:	4770      	bx	lr
    203a:	4b0e      	ldr	r3, [pc, #56]	; (2074 <bcm2835_regbase+0x88>)
    203c:	447b      	add	r3, pc
    203e:	6b18      	ldr	r0, [r3, #48]	; 0x30
    2040:	4770      	bx	lr
    2042:	4b0d      	ldr	r3, [pc, #52]	; (2078 <bcm2835_regbase+0x8c>)
    2044:	447b      	add	r3, pc
    2046:	6a98      	ldr	r0, [r3, #40]	; 0x28
    2048:	4770      	bx	lr
    204a:	4b0c      	ldr	r3, [pc, #48]	; (207c <bcm2835_regbase+0x90>)
    204c:	447b      	add	r3, pc
    204e:	6ad8      	ldr	r0, [r3, #44]	; 0x2c
    2050:	4770      	bx	lr
    2052:	f04f 30ff 	mov.w	r0, #4294967295
    2056:	4770      	bx	lr
    2058:	00013014 	andeq	r3, r1, r4, lsl r0
    205c:	0001300c 	andeq	r3, r1, ip
    2060:	00013004 	andeq	r3, r1, r4
    2064:	00012ffc 	strdeq	r2, [r1], -ip
    2068:	00012ff4 	strdeq	r2, [r1], -r4
    206c:	00012fec 	andeq	r2, r1, ip, ror #31
    2070:	00012fe4 	andeq	r2, r1, r4, ror #31
    2074:	00012fdc 	ldrdeq	r2, [r1], -ip
    2078:	00012fd4 	ldrdeq	r2, [r1], -r4
    207c:	00012fcc 	andeq	r2, r1, ip, asr #31

00002080 <bcm2835_set_debug>:
    2080:	4b01      	ldr	r3, [pc, #4]	; (2088 <bcm2835_set_debug+0x8>)
    2082:	447b      	add	r3, pc
    2084:	7018      	strb	r0, [r3, #0]
    2086:	4770      	bx	lr
    2088:	00012fda 	ldrdeq	r2, [r1], -sl

0000208c <bcm2835_version>:
    208c:	f242 7057 	movw	r0, #10071	; 0x2757
    2090:	4770      	bx	lr
    2092:	bf00      	nop

00002094 <bcm2835_peri_read>:
    2094:	b508      	push	{r3, lr}
    2096:	4b09      	ldr	r3, [pc, #36]	; (20bc <bcm2835_peri_read+0x28>)
    2098:	447b      	add	r3, pc
    209a:	781b      	ldrb	r3, [r3, #0]
    209c:	b92b      	cbnz	r3, 20aa <bcm2835_peri_read+0x16>
    209e:	f3bf 8f5b 	dmb	ish
    20a2:	6800      	ldr	r0, [r0, #0]
    20a4:	f3bf 8f5b 	dmb	ish
    20a8:	bd08      	pop	{r3, pc}
    20aa:	4905      	ldr	r1, [pc, #20]	; (20c0 <bcm2835_peri_read+0x2c>)
    20ac:	4602      	mov	r2, r0
    20ae:	2001      	movs	r0, #1
    20b0:	4479      	add	r1, pc
    20b2:	f7fe ebaa 	blx	808 <__printf_chk@plt+0x4>
    20b6:	2000      	movs	r0, #0
    20b8:	bd08      	pop	{r3, pc}
    20ba:	bf00      	nop
    20bc:	00012fc4 	andeq	r2, r1, r4, asr #31
    20c0:	00002204 	andeq	r2, r0, r4, lsl #4

000020c4 <bcm2835_peri_read_nb>:
    20c4:	4b03      	ldr	r3, [pc, #12]	; (20d4 <bcm2835_peri_read_nb+0x10>)
    20c6:	447b      	add	r3, pc
    20c8:	781b      	ldrb	r3, [r3, #0]
    20ca:	b90b      	cbnz	r3, 20d0 <bcm2835_peri_read_nb+0xc>
    20cc:	6800      	ldr	r0, [r0, #0]
    20ce:	4770      	bx	lr
    20d0:	e72a      	b.n	1f28 <bcm2835_peri_read_nb.part.2>
    20d2:	bf00      	nop
    20d4:	00012f96 	muleq	r1, r6, pc	; <UNPREDICTABLE>

000020d8 <bcm2835_peri_write>:
    20d8:	b410      	push	{r4}
    20da:	4c0a      	ldr	r4, [pc, #40]	; (2104 <bcm2835_peri_write+0x2c>)
    20dc:	447c      	add	r4, pc
    20de:	7823      	ldrb	r3, [r4, #0]
    20e0:	b93b      	cbnz	r3, 20f2 <bcm2835_peri_write+0x1a>
    20e2:	f3bf 8f5b 	dmb	ish
    20e6:	6001      	str	r1, [r0, #0]
    20e8:	f3bf 8f5b 	dmb	ish
    20ec:	f85d 4b04 	ldr.w	r4, [sp], #4
    20f0:	4770      	bx	lr
    20f2:	460b      	mov	r3, r1
    20f4:	4904      	ldr	r1, [pc, #16]	; (2108 <bcm2835_peri_write+0x30>)
    20f6:	4602      	mov	r2, r0
    20f8:	f85d 4b04 	ldr.w	r4, [sp], #4
    20fc:	4479      	add	r1, pc
    20fe:	2001      	movs	r0, #1
    2100:	f7fe bb80 	b.w	804 <__printf_chk@plt>
    2104:	00012f80 	andeq	r2, r1, r0, lsl #31
    2108:	000021d8 	ldrdeq	r2, [r0], -r8

0000210c <bcm2835_gpio_pud.part.5>:
    210c:	4b03      	ldr	r3, [pc, #12]	; (211c <bcm2835_gpio_pud.part.5+0x10>)
    210e:	4601      	mov	r1, r0
    2110:	447b      	add	r3, pc
    2112:	6898      	ldr	r0, [r3, #8]
    2114:	3094      	adds	r0, #148	; 0x94
    2116:	f7ff bfdf 	b.w	20d8 <bcm2835_peri_write>
    211a:	bf00      	nop
    211c:	00012f08 	andeq	r2, r1, r8, lsl #30

00002120 <bcm2835_peri_write_nb>:
    2120:	4b05      	ldr	r3, [pc, #20]	; (2138 <bcm2835_peri_write_nb+0x18>)
    2122:	447b      	add	r3, pc
    2124:	781b      	ldrb	r3, [r3, #0]
    2126:	b92b      	cbnz	r3, 2134 <bcm2835_peri_write_nb+0x14>
    2128:	b410      	push	{r4}
    212a:	4602      	mov	r2, r0
    212c:	6011      	str	r1, [r2, #0]
    212e:	f85d 4b04 	ldr.w	r4, [sp], #4
    2132:	4770      	bx	lr
    2134:	e704      	b.n	1f40 <bcm2835_peri_write_nb.part.4>
    2136:	bf00      	nop
    2138:	00012f3a 	andeq	r2, r1, sl, lsr pc

0000213c <bcm2835_peri_set_bits>:
    213c:	b570      	push	{r4, r5, r6, lr}
    213e:	460c      	mov	r4, r1
    2140:	4616      	mov	r6, r2
    2142:	4605      	mov	r5, r0
    2144:	f7ff ffa6 	bl	2094 <bcm2835_peri_read>
    2148:	4044      	eors	r4, r0
    214a:	4601      	mov	r1, r0
    214c:	4034      	ands	r4, r6
    214e:	4628      	mov	r0, r5
    2150:	4061      	eors	r1, r4
    2152:	e8bd 4070 	ldmia.w	sp!, {r4, r5, r6, lr}
    2156:	f7ff bfbf 	b.w	20d8 <bcm2835_peri_write>
    215a:	bf00      	nop

0000215c <bcm2835_gpio_fsel>:
    215c:	e92d 0870 	stmdb	sp!, {r4, r5, r6, fp}
    2160:	f64c 44cd 	movw	r4, #52429	; 0xcccd
    2164:	f6cc 44cc 	movt	r4, #52428	; 0xcccc
    2168:	230a      	movs	r3, #10
    216a:	2207      	movs	r2, #7
    216c:	fba0 bc04 	umull	fp, ip, r0, r4
    2170:	4c09      	ldr	r4, [pc, #36]	; (2198 <bcm2835_gpio_fsel+0x3c>)
    2172:	447c      	add	r4, pc
    2174:	68a6      	ldr	r6, [r4, #8]
    2176:	ea4f 04dc 	mov.w	r4, ip, lsr #3
    217a:	fb03 0314 	mls	r3, r3, r4, r0
    217e:	b2e4      	uxtb	r4, r4
    2180:	eb06 0084 	add.w	r0, r6, r4, lsl #2
    2184:	e8bd 0870 	ldmia.w	sp!, {r4, r5, r6, fp}
    2188:	eb03 0343 	add.w	r3, r3, r3, lsl #1
    218c:	b2db      	uxtb	r3, r3
    218e:	4099      	lsls	r1, r3
    2190:	409a      	lsls	r2, r3
    2192:	f7ff bfd3 	b.w	213c <bcm2835_peri_set_bits>
    2196:	bf00      	nop
    2198:	00012ea6 	andeq	r2, r1, r6, lsr #29

0000219c <bcm2835_gpio_set>:
    219c:	4a08      	ldr	r2, [pc, #32]	; (21c0 <bcm2835_gpio_set+0x24>)
    219e:	0943      	lsrs	r3, r0, #5
    21a0:	f000 011f 	and.w	r1, r0, #31
    21a4:	3307      	adds	r3, #7
    21a6:	447a      	add	r2, pc
    21a8:	b410      	push	{r4}
    21aa:	2401      	movs	r4, #1
    21ac:	6890      	ldr	r0, [r2, #8]
    21ae:	fa04 f101 	lsl.w	r1, r4, r1
    21b2:	f85d 4b04 	ldr.w	r4, [sp], #4
    21b6:	eb00 0083 	add.w	r0, r0, r3, lsl #2
    21ba:	f7ff bf8d 	b.w	20d8 <bcm2835_peri_write>
    21be:	bf00      	nop
    21c0:	00012e72 	andeq	r2, r1, r2, ror lr

000021c4 <bcm2835_gpio_clr>:
    21c4:	4a08      	ldr	r2, [pc, #32]	; (21e8 <bcm2835_gpio_clr+0x24>)
    21c6:	0943      	lsrs	r3, r0, #5
    21c8:	f000 011f 	and.w	r1, r0, #31
    21cc:	330a      	adds	r3, #10
    21ce:	447a      	add	r2, pc
    21d0:	b410      	push	{r4}
    21d2:	2401      	movs	r4, #1
    21d4:	6890      	ldr	r0, [r2, #8]
    21d6:	fa04 f101 	lsl.w	r1, r4, r1
    21da:	f85d 4b04 	ldr.w	r4, [sp], #4
    21de:	eb00 0083 	add.w	r0, r0, r3, lsl #2
    21e2:	f7ff bf79 	b.w	20d8 <bcm2835_peri_write>
    21e6:	bf00      	nop
    21e8:	00012e4a 	andeq	r2, r1, sl, asr #28

000021ec <bcm2835_gpio_set_multi>:
    21ec:	4b03      	ldr	r3, [pc, #12]	; (21fc <bcm2835_gpio_set_multi+0x10>)
    21ee:	4601      	mov	r1, r0
    21f0:	447b      	add	r3, pc
    21f2:	6898      	ldr	r0, [r3, #8]
    21f4:	301c      	adds	r0, #28
    21f6:	f7ff bf6f 	b.w	20d8 <bcm2835_peri_write>
    21fa:	bf00      	nop
    21fc:	00012e28 	andeq	r2, r1, r8, lsr #28

00002200 <bcm2835_gpio_clr_multi>:
    2200:	4b03      	ldr	r3, [pc, #12]	; (2210 <bcm2835_gpio_clr_multi+0x10>)
    2202:	4601      	mov	r1, r0
    2204:	447b      	add	r3, pc
    2206:	6898      	ldr	r0, [r3, #8]
    2208:	3028      	adds	r0, #40	; 0x28
    220a:	f7ff bf65 	b.w	20d8 <bcm2835_peri_write>
    220e:	bf00      	nop
    2210:	00012e14 	andeq	r2, r1, r4, lsl lr

00002214 <bcm2835_gpio_lev>:
    2214:	4a0a      	ldr	r2, [pc, #40]	; (2240 <bcm2835_gpio_lev+0x2c>)
    2216:	0943      	lsrs	r3, r0, #5
    2218:	b510      	push	{r4, lr}
    221a:	447a      	add	r2, pc
    221c:	330d      	adds	r3, #13
    221e:	4604      	mov	r4, r0
    2220:	6890      	ldr	r0, [r2, #8]
    2222:	f004 041f 	and.w	r4, r4, #31
    2226:	eb00 0083 	add.w	r0, r0, r3, lsl #2
    222a:	f7ff ff33 	bl	2094 <bcm2835_peri_read>
    222e:	2301      	movs	r3, #1
    2230:	fa03 f404 	lsl.w	r4, r3, r4
    2234:	4204      	tst	r4, r0
    2236:	bf14      	ite	ne
    2238:	4618      	movne	r0, r3
    223a:	2000      	moveq	r0, #0
    223c:	bd10      	pop	{r4, pc}
    223e:	bf00      	nop
    2240:	00012dfe 	strdeq	r2, [r1], -lr

00002244 <bcm2835_gpio_eds>:
    2244:	4a0a      	ldr	r2, [pc, #40]	; (2270 <bcm2835_gpio_eds+0x2c>)
    2246:	0943      	lsrs	r3, r0, #5
    2248:	b510      	push	{r4, lr}
    224a:	447a      	add	r2, pc
    224c:	3310      	adds	r3, #16
    224e:	4604      	mov	r4, r0
    2250:	6890      	ldr	r0, [r2, #8]
    2252:	f004 041f 	and.w	r4, r4, #31
    2256:	eb00 0083 	add.w	r0, r0, r3, lsl #2
    225a:	f7ff ff1b 	bl	2094 <bcm2835_peri_read>
    225e:	2301      	movs	r3, #1
    2260:	fa03 f404 	lsl.w	r4, r3, r4
    2264:	4204      	tst	r4, r0
    2266:	bf14      	ite	ne
    2268:	4618      	movne	r0, r3
    226a:	2000      	moveq	r0, #0
    226c:	bd10      	pop	{r4, pc}
    226e:	bf00      	nop
    2270:	00012dce 	andeq	r2, r1, lr, asr #27

00002274 <bcm2835_gpio_eds_multi>:
    2274:	4b04      	ldr	r3, [pc, #16]	; (2288 <bcm2835_gpio_eds_multi+0x14>)
    2276:	b510      	push	{r4, lr}
    2278:	447b      	add	r3, pc
    227a:	4604      	mov	r4, r0
    227c:	6898      	ldr	r0, [r3, #8]
    227e:	3040      	adds	r0, #64	; 0x40
    2280:	f7ff ff08 	bl	2094 <bcm2835_peri_read>
    2284:	4020      	ands	r0, r4
    2286:	bd10      	pop	{r4, pc}
    2288:	00012da0 	andeq	r2, r1, r0, lsr #27

0000228c <bcm2835_gpio_set_eds>:
    228c:	4a08      	ldr	r2, [pc, #32]	; (22b0 <bcm2835_gpio_set_eds+0x24>)
    228e:	0943      	lsrs	r3, r0, #5
    2290:	f000 011f 	and.w	r1, r0, #31
    2294:	3310      	adds	r3, #16
    2296:	447a      	add	r2, pc
    2298:	b410      	push	{r4}
    229a:	2401      	movs	r4, #1
    229c:	6890      	ldr	r0, [r2, #8]
    229e:	fa04 f101 	lsl.w	r1, r4, r1
    22a2:	f85d 4b04 	ldr.w	r4, [sp], #4
    22a6:	eb00 0083 	add.w	r0, r0, r3, lsl #2
    22aa:	f7ff bf15 	b.w	20d8 <bcm2835_peri_write>
    22ae:	bf00      	nop
    22b0:	00012d82 	andeq	r2, r1, r2, lsl #27

000022b4 <bcm2835_gpio_set_eds_multi>:
    22b4:	4b03      	ldr	r3, [pc, #12]	; (22c4 <bcm2835_gpio_set_eds_multi+0x10>)
    22b6:	4601      	mov	r1, r0
    22b8:	447b      	add	r3, pc
    22ba:	6898      	ldr	r0, [r3, #8]
    22bc:	3040      	adds	r0, #64	; 0x40
    22be:	f7ff bf0b 	b.w	20d8 <bcm2835_peri_write>
    22c2:	bf00      	nop
    22c4:	00012d60 	andeq	r2, r1, r0, ror #26

000022c8 <bcm2835_gpio_ren>:
    22c8:	b410      	push	{r4}
    22ca:	0941      	lsrs	r1, r0, #5
    22cc:	4c07      	ldr	r4, [pc, #28]	; (22ec <bcm2835_gpio_ren+0x24>)
    22ce:	f000 021f 	and.w	r2, r0, #31
    22d2:	2301      	movs	r3, #1
    22d4:	3113      	adds	r1, #19
    22d6:	447c      	add	r4, pc
    22d8:	fa03 f202 	lsl.w	r2, r3, r2
    22dc:	68a0      	ldr	r0, [r4, #8]
    22de:	f85d 4b04 	ldr.w	r4, [sp], #4
    22e2:	eb00 0081 	add.w	r0, r0, r1, lsl #2
    22e6:	4611      	mov	r1, r2
    22e8:	f7ff bf28 	b.w	213c <bcm2835_peri_set_bits>
    22ec:	00012d42 	andeq	r2, r1, r2, asr #26

000022f0 <bcm2835_gpio_clr_ren>:
    22f0:	4908      	ldr	r1, [pc, #32]	; (2314 <bcm2835_gpio_clr_ren+0x24>)
    22f2:	0943      	lsrs	r3, r0, #5
    22f4:	f000 021f 	and.w	r2, r0, #31
    22f8:	3313      	adds	r3, #19
    22fa:	4479      	add	r1, pc
    22fc:	b410      	push	{r4}
    22fe:	2401      	movs	r4, #1
    2300:	6888      	ldr	r0, [r1, #8]
    2302:	fa04 f202 	lsl.w	r2, r4, r2
    2306:	2100      	movs	r1, #0
    2308:	f85d 4b04 	ldr.w	r4, [sp], #4
    230c:	eb00 0083 	add.w	r0, r0, r3, lsl #2
    2310:	f7ff bf14 	b.w	213c <bcm2835_peri_set_bits>
    2314:	00012d1e 	andeq	r2, r1, lr, lsl sp

00002318 <bcm2835_gpio_fen>:
    2318:	b410      	push	{r4}
    231a:	0941      	lsrs	r1, r0, #5
    231c:	4c07      	ldr	r4, [pc, #28]	; (233c <bcm2835_gpio_fen+0x24>)
    231e:	f000 021f 	and.w	r2, r0, #31
    2322:	2301      	movs	r3, #1
    2324:	3116      	adds	r1, #22
    2326:	447c      	add	r4, pc
    2328:	fa03 f202 	lsl.w	r2, r3, r2
    232c:	68a0      	ldr	r0, [r4, #8]
    232e:	f85d 4b04 	ldr.w	r4, [sp], #4
    2332:	eb00 0081 	add.w	r0, r0, r1, lsl #2
    2336:	4611      	mov	r1, r2
    2338:	f7ff bf00 	b.w	213c <bcm2835_peri_set_bits>
    233c:	00012cf2 	strdeq	r2, [r1], -r2	; <UNPREDICTABLE>

00002340 <bcm2835_gpio_clr_fen>:
    2340:	4908      	ldr	r1, [pc, #32]	; (2364 <bcm2835_gpio_clr_fen+0x24>)
    2342:	0943      	lsrs	r3, r0, #5
    2344:	f000 021f 	and.w	r2, r0, #31
    2348:	3316      	adds	r3, #22
    234a:	4479      	add	r1, pc
    234c:	b410      	push	{r4}
    234e:	2401      	movs	r4, #1
    2350:	6888      	ldr	r0, [r1, #8]
    2352:	fa04 f202 	lsl.w	r2, r4, r2
    2356:	2100      	movs	r1, #0
    2358:	f85d 4b04 	ldr.w	r4, [sp], #4
    235c:	eb00 0083 	add.w	r0, r0, r3, lsl #2
    2360:	f7ff beec 	b.w	213c <bcm2835_peri_set_bits>
    2364:	00012cce 	andeq	r2, r1, lr, asr #25

00002368 <bcm2835_gpio_hen>:
    2368:	b410      	push	{r4}
    236a:	0941      	lsrs	r1, r0, #5
    236c:	4c07      	ldr	r4, [pc, #28]	; (238c <bcm2835_gpio_hen+0x24>)
    236e:	f000 021f 	and.w	r2, r0, #31
    2372:	2301      	movs	r3, #1
    2374:	3119      	adds	r1, #25
    2376:	447c      	add	r4, pc
    2378:	fa03 f202 	lsl.w	r2, r3, r2
    237c:	68a0      	ldr	r0, [r4, #8]
    237e:	f85d 4b04 	ldr.w	r4, [sp], #4
    2382:	eb00 0081 	add.w	r0, r0, r1, lsl #2
    2386:	4611      	mov	r1, r2
    2388:	f7ff bed8 	b.w	213c <bcm2835_peri_set_bits>
    238c:	00012ca2 	andeq	r2, r1, r2, lsr #25

00002390 <bcm2835_gpio_clr_hen>:
    2390:	4908      	ldr	r1, [pc, #32]	; (23b4 <bcm2835_gpio_clr_hen+0x24>)
    2392:	0943      	lsrs	r3, r0, #5
    2394:	f000 021f 	and.w	r2, r0, #31
    2398:	3319      	adds	r3, #25
    239a:	4479      	add	r1, pc
    239c:	b410      	push	{r4}
    239e:	2401      	movs	r4, #1
    23a0:	6888      	ldr	r0, [r1, #8]
    23a2:	fa04 f202 	lsl.w	r2, r4, r2
    23a6:	2100      	movs	r1, #0
    23a8:	f85d 4b04 	ldr.w	r4, [sp], #4
    23ac:	eb00 0083 	add.w	r0, r0, r3, lsl #2
    23b0:	f7ff bec4 	b.w	213c <bcm2835_peri_set_bits>
    23b4:	00012c7e 	andeq	r2, r1, lr, ror ip

000023b8 <bcm2835_gpio_len>:
    23b8:	b410      	push	{r4}
    23ba:	0941      	lsrs	r1, r0, #5
    23bc:	4c07      	ldr	r4, [pc, #28]	; (23dc <bcm2835_gpio_len+0x24>)
    23be:	f000 021f 	and.w	r2, r0, #31
    23c2:	2301      	movs	r3, #1
    23c4:	311c      	adds	r1, #28
    23c6:	447c      	add	r4, pc
    23c8:	fa03 f202 	lsl.w	r2, r3, r2
    23cc:	68a0      	ldr	r0, [r4, #8]
    23ce:	f85d 4b04 	ldr.w	r4, [sp], #4
    23d2:	eb00 0081 	add.w	r0, r0, r1, lsl #2
    23d6:	4611      	mov	r1, r2
    23d8:	f7ff beb0 	b.w	213c <bcm2835_peri_set_bits>
    23dc:	00012c52 	andeq	r2, r1, r2, asr ip

000023e0 <bcm2835_gpio_clr_len>:
    23e0:	4908      	ldr	r1, [pc, #32]	; (2404 <bcm2835_gpio_clr_len+0x24>)
    23e2:	0943      	lsrs	r3, r0, #5
    23e4:	f000 021f 	and.w	r2, r0, #31
    23e8:	331c      	adds	r3, #28
    23ea:	4479      	add	r1, pc
    23ec:	b410      	push	{r4}
    23ee:	2401      	movs	r4, #1
    23f0:	6888      	ldr	r0, [r1, #8]
    23f2:	fa04 f202 	lsl.w	r2, r4, r2
    23f6:	2100      	movs	r1, #0
    23f8:	f85d 4b04 	ldr.w	r4, [sp], #4
    23fc:	eb00 0083 	add.w	r0, r0, r3, lsl #2
    2400:	f7ff be9c 	b.w	213c <bcm2835_peri_set_bits>
    2404:	00012c2e 	andeq	r2, r1, lr, lsr #24

00002408 <bcm2835_gpio_aren>:
    2408:	b410      	push	{r4}
    240a:	0941      	lsrs	r1, r0, #5
    240c:	4c07      	ldr	r4, [pc, #28]	; (242c <bcm2835_gpio_aren+0x24>)
    240e:	f000 021f 	and.w	r2, r0, #31
    2412:	2301      	movs	r3, #1
    2414:	311f      	adds	r1, #31
    2416:	447c      	add	r4, pc
    2418:	fa03 f202 	lsl.w	r2, r3, r2
    241c:	68a0      	ldr	r0, [r4, #8]
    241e:	f85d 4b04 	ldr.w	r4, [sp], #4
    2422:	eb00 0081 	add.w	r0, r0, r1, lsl #2
    2426:	4611      	mov	r1, r2
    2428:	f7ff be88 	b.w	213c <bcm2835_peri_set_bits>
    242c:	00012c02 	andeq	r2, r1, r2, lsl #24

00002430 <bcm2835_gpio_clr_aren>:
    2430:	4908      	ldr	r1, [pc, #32]	; (2454 <bcm2835_gpio_clr_aren+0x24>)
    2432:	0943      	lsrs	r3, r0, #5
    2434:	f000 021f 	and.w	r2, r0, #31
    2438:	331f      	adds	r3, #31
    243a:	4479      	add	r1, pc
    243c:	b410      	push	{r4}
    243e:	2401      	movs	r4, #1
    2440:	6888      	ldr	r0, [r1, #8]
    2442:	fa04 f202 	lsl.w	r2, r4, r2
    2446:	2100      	movs	r1, #0
    2448:	f85d 4b04 	ldr.w	r4, [sp], #4
    244c:	eb00 0083 	add.w	r0, r0, r3, lsl #2
    2450:	f7ff be74 	b.w	213c <bcm2835_peri_set_bits>
    2454:	00012bde 	ldrdeq	r2, [r1], -lr

00002458 <bcm2835_gpio_afen>:
    2458:	b410      	push	{r4}
    245a:	0941      	lsrs	r1, r0, #5
    245c:	4c07      	ldr	r4, [pc, #28]	; (247c <bcm2835_gpio_afen+0x24>)
    245e:	f000 021f 	and.w	r2, r0, #31
    2462:	2301      	movs	r3, #1
    2464:	3122      	adds	r1, #34	; 0x22
    2466:	447c      	add	r4, pc
    2468:	fa03 f202 	lsl.w	r2, r3, r2
    246c:	68a0      	ldr	r0, [r4, #8]
    246e:	f85d 4b04 	ldr.w	r4, [sp], #4
    2472:	eb00 0081 	add.w	r0, r0, r1, lsl #2
    2476:	4611      	mov	r1, r2
    2478:	f7ff be60 	b.w	213c <bcm2835_peri_set_bits>
    247c:	00012bb2 			; <UNDEFINED> instruction: 0x00012bb2

00002480 <bcm2835_gpio_clr_afen>:
    2480:	4908      	ldr	r1, [pc, #32]	; (24a4 <bcm2835_gpio_clr_afen+0x24>)
    2482:	0943      	lsrs	r3, r0, #5
    2484:	f000 021f 	and.w	r2, r0, #31
    2488:	3322      	adds	r3, #34	; 0x22
    248a:	4479      	add	r1, pc
    248c:	b410      	push	{r4}
    248e:	2401      	movs	r4, #1
    2490:	6888      	ldr	r0, [r1, #8]
    2492:	fa04 f202 	lsl.w	r2, r4, r2
    2496:	2100      	movs	r1, #0
    2498:	f85d 4b04 	ldr.w	r4, [sp], #4
    249c:	eb00 0083 	add.w	r0, r0, r3, lsl #2
    24a0:	f7ff be4c 	b.w	213c <bcm2835_peri_set_bits>
    24a4:	00012b8e 	andeq	r2, r1, lr, lsl #23

000024a8 <bcm2835_gpio_pud>:
    24a8:	4b03      	ldr	r3, [pc, #12]	; (24b8 <bcm2835_gpio_pud+0x10>)
    24aa:	447b      	add	r3, pc
    24ac:	785a      	ldrb	r2, [r3, #1]
    24ae:	b10a      	cbz	r2, 24b4 <bcm2835_gpio_pud+0xc>
    24b0:	7098      	strb	r0, [r3, #2]
    24b2:	4770      	bx	lr
    24b4:	e62a      	b.n	210c <bcm2835_gpio_pud.part.5>
    24b6:	bf00      	nop
    24b8:	00012bb2 			; <UNDEFINED> instruction: 0x00012bb2

000024bc <bcm2835_gpio_pad>:
    24bc:	4b05      	ldr	r3, [pc, #20]	; (24d4 <bcm2835_gpio_pad+0x18>)
    24be:	447b      	add	r3, pc
    24c0:	695b      	ldr	r3, [r3, #20]
    24c2:	1c5a      	adds	r2, r3, #1
    24c4:	d004      	beq.n	24d0 <bcm2835_gpio_pad+0x14>
    24c6:	300b      	adds	r0, #11
    24c8:	eb03 0080 	add.w	r0, r3, r0, lsl #2
    24cc:	f7ff bde2 	b.w	2094 <bcm2835_peri_read>
    24d0:	2000      	movs	r0, #0
    24d2:	4770      	bx	lr
    24d4:	00012b5a 	andeq	r2, r1, sl, asr fp

000024d8 <bcm2835_gpio_set_pad>:
    24d8:	4b06      	ldr	r3, [pc, #24]	; (24f4 <bcm2835_gpio_set_pad+0x1c>)
    24da:	447b      	add	r3, pc
    24dc:	695b      	ldr	r3, [r3, #20]
    24de:	1c5a      	adds	r2, r3, #1
    24e0:	d006      	beq.n	24f0 <bcm2835_gpio_set_pad+0x18>
    24e2:	300b      	adds	r0, #11
    24e4:	f041 41b4 	orr.w	r1, r1, #1509949440	; 0x5a000000
    24e8:	eb03 0080 	add.w	r0, r3, r0, lsl #2
    24ec:	f7ff bdf4 	b.w	20d8 <bcm2835_peri_write>
    24f0:	4770      	bx	lr
    24f2:	bf00      	nop
    24f4:	00012b3e 	andeq	r2, r1, lr, lsr fp

000024f8 <bcm2835_delay>:
    24f8:	b5f0      	push	{r4, r5, r6, r7, lr}
    24fa:	f644 54d3 	movw	r4, #19923	; 0x4dd3
    24fe:	f2c1 0462 	movt	r4, #4194	; 0x1062
    2502:	4a11      	ldr	r2, [pc, #68]	; (2548 <bcm2835_delay+0x50>)
    2504:	4911      	ldr	r1, [pc, #68]	; (254c <bcm2835_delay+0x54>)
    2506:	b085      	sub	sp, #20
    2508:	fba0 4504 	umull	r4, r5, r0, r4
    250c:	447a      	add	r2, pc
    250e:	f44f 767a 	mov.w	r6, #1000	; 0x3e8
    2512:	f244 2340 	movw	r3, #16960	; 0x4240
    2516:	5857      	ldr	r7, [r2, r1]
    2518:	f2c0 030f 	movt	r3, #15
    251c:	2100      	movs	r1, #0
    251e:	09aa      	lsrs	r2, r5, #6
    2520:	9201      	str	r2, [sp, #4]
    2522:	683d      	ldr	r5, [r7, #0]
    2524:	fb06 0212 	mls	r2, r6, r2, r0
    2528:	a801      	add	r0, sp, #4
    252a:	9503      	str	r5, [sp, #12]
    252c:	fb03 f302 	mul.w	r3, r3, r2
    2530:	9302      	str	r3, [sp, #8]
    2532:	f7fe e91a 	blx	768 <nanosleep@plt>
    2536:	9a03      	ldr	r2, [sp, #12]
    2538:	683b      	ldr	r3, [r7, #0]
    253a:	429a      	cmp	r2, r3
    253c:	d101      	bne.n	2542 <bcm2835_delay+0x4a>
    253e:	b005      	add	sp, #20
    2540:	bdf0      	pop	{r4, r5, r6, r7, pc}
    2542:	f7fe e91e 	blx	780 <__stack_chk_fail@plt>
    2546:	bf00      	nop
    2548:	00012a64 	andeq	r2, r1, r4, ror #20
    254c:	00000074 	andeq	r0, r0, r4, ror r0

00002550 <bcm2835_gpio_write>:
    2550:	b909      	cbnz	r1, 2556 <bcm2835_gpio_write+0x6>
    2552:	f7ff be37 	b.w	21c4 <bcm2835_gpio_clr>
    2556:	f7ff be21 	b.w	219c <bcm2835_gpio_set>
    255a:	bf00      	nop

0000255c <bcm2835_gpio_write_multi>:
    255c:	4b06      	ldr	r3, [pc, #24]	; (2578 <bcm2835_gpio_write_multi+0x1c>)
    255e:	447b      	add	r3, pc
    2560:	689b      	ldr	r3, [r3, #8]
    2562:	b921      	cbnz	r1, 256e <bcm2835_gpio_write_multi+0x12>
    2564:	4601      	mov	r1, r0
    2566:	f103 0028 	add.w	r0, r3, #40	; 0x28
    256a:	f7ff bdb5 	b.w	20d8 <bcm2835_peri_write>
    256e:	4601      	mov	r1, r0
    2570:	f103 001c 	add.w	r0, r3, #28
    2574:	f7ff bdb0 	b.w	20d8 <bcm2835_peri_write>
    2578:	00012aba 			; <UNDEFINED> instruction: 0x00012aba

0000257c <bcm2835_gpio_write_mask>:
    257c:	b570      	push	{r4, r5, r6, lr}
    257e:	4605      	mov	r5, r0
    2580:	4e07      	ldr	r6, [pc, #28]	; (25a0 <bcm2835_gpio_write_mask+0x24>)
    2582:	460c      	mov	r4, r1
    2584:	4001      	ands	r1, r0
    2586:	447e      	add	r6, pc
    2588:	68b0      	ldr	r0, [r6, #8]
    258a:	301c      	adds	r0, #28
    258c:	f7ff fda4 	bl	20d8 <bcm2835_peri_write>
    2590:	68b0      	ldr	r0, [r6, #8]
    2592:	ea24 0105 	bic.w	r1, r4, r5
    2596:	3028      	adds	r0, #40	; 0x28
    2598:	e8bd 4070 	ldmia.w	sp!, {r4, r5, r6, lr}
    259c:	f7ff bd9c 	b.w	20d8 <bcm2835_peri_write>
    25a0:	00012a92 	muleq	r1, r2, sl

000025a4 <bcm2835_gpio_get_pud>:
    25a4:	4914      	ldr	r1, [pc, #80]	; (25f8 <bcm2835_gpio_get_pud+0x54>)
    25a6:	4479      	add	r1, pc
    25a8:	784b      	ldrb	r3, [r1, #1]
    25aa:	b313      	cbz	r3, 25f2 <bcm2835_gpio_get_pud+0x4e>
    25ac:	4a13      	ldr	r2, [pc, #76]	; (25fc <bcm2835_gpio_get_pud+0x58>)
    25ae:	0903      	lsrs	r3, r0, #4
    25b0:	b510      	push	{r4, lr}
    25b2:	447a      	add	r2, pc
    25b4:	7809      	ldrb	r1, [r1, #0]
    25b6:	3339      	adds	r3, #57	; 0x39
    25b8:	6892      	ldr	r2, [r2, #8]
    25ba:	4604      	mov	r4, r0
    25bc:	eb02 0083 	add.w	r0, r2, r3, lsl #2
    25c0:	b9a1      	cbnz	r1, 25ec <bcm2835_gpio_get_pud+0x48>
    25c2:	f852 0023 	ldr.w	r0, [r2, r3, lsl #2]
    25c6:	0064      	lsls	r4, r4, #1
    25c8:	f004 041e 	and.w	r4, r4, #30
    25cc:	fa20 f404 	lsr.w	r4, r0, r4
    25d0:	f004 0403 	and.w	r4, r4, #3
    25d4:	2c01      	cmp	r4, #1
    25d6:	bf08      	it	eq
    25d8:	2002      	moveq	r0, #2
    25da:	d006      	beq.n	25ea <bcm2835_gpio_get_pud+0x46>
    25dc:	bf38      	it	cc
    25de:	2000      	movcc	r0, #0
    25e0:	d303      	bcc.n	25ea <bcm2835_gpio_get_pud+0x46>
    25e2:	2c02      	cmp	r4, #2
    25e4:	bf0c      	ite	eq
    25e6:	2001      	moveq	r0, #1
    25e8:	2008      	movne	r0, #8
    25ea:	bd10      	pop	{r4, pc}
    25ec:	f7ff fc9c 	bl	1f28 <bcm2835_peri_read_nb.part.2>
    25f0:	e7e9      	b.n	25c6 <bcm2835_gpio_get_pud+0x22>
    25f2:	2008      	movs	r0, #8
    25f4:	4770      	bx	lr
    25f6:	bf00      	nop
    25f8:	00012ab6 			; <UNDEFINED> instruction: 0x00012ab6
    25fc:	00012a66 	andeq	r2, r1, r6, ror #20

00002600 <bcm2835_spi_begin>:
    2600:	b510      	push	{r4, lr}
    2602:	4c1d      	ldr	r4, [pc, #116]	; (2678 <bcm2835_spi_begin+0x78>)
    2604:	447c      	add	r4, pc
    2606:	69a3      	ldr	r3, [r4, #24]
    2608:	3301      	adds	r3, #1
    260a:	bf08      	it	eq
    260c:	2000      	moveq	r0, #0
    260e:	d02c      	beq.n	266a <bcm2835_spi_begin+0x6a>
    2610:	68a0      	ldr	r0, [r4, #8]
    2612:	f44f 0260 	mov.w	r2, #14680064	; 0xe00000
    2616:	f44f 0100 	mov.w	r1, #8388608	; 0x800000
    261a:	f7ff fd8f 	bl	213c <bcm2835_peri_set_bits>
    261e:	68a0      	ldr	r0, [r4, #8]
    2620:	f04f 62e0 	mov.w	r2, #117440512	; 0x7000000
    2624:	f04f 6180 	mov.w	r1, #67108864	; 0x4000000
    2628:	f7ff fd88 	bl	213c <bcm2835_peri_set_bits>
    262c:	68a0      	ldr	r0, [r4, #8]
    262e:	f04f 5260 	mov.w	r2, #939524096	; 0x38000000
    2632:	f04f 5100 	mov.w	r1, #536870912	; 0x20000000
    2636:	f7ff fd81 	bl	213c <bcm2835_peri_set_bits>
    263a:	68a0      	ldr	r0, [r4, #8]
    263c:	2104      	movs	r1, #4
    263e:	2207      	movs	r2, #7
    2640:	4408      	add	r0, r1
    2642:	f7ff fd7b 	bl	213c <bcm2835_peri_set_bits>
    2646:	68a0      	ldr	r0, [r4, #8]
    2648:	2238      	movs	r2, #56	; 0x38
    264a:	2120      	movs	r1, #32
    264c:	3004      	adds	r0, #4
    264e:	f7ff fd75 	bl	213c <bcm2835_peri_set_bits>
    2652:	69a4      	ldr	r4, [r4, #24]
    2654:	2100      	movs	r1, #0
    2656:	4620      	mov	r0, r4
    2658:	f7ff fd3e 	bl	20d8 <bcm2835_peri_write>
    265c:	4b07      	ldr	r3, [pc, #28]	; (267c <bcm2835_spi_begin+0x7c>)
    265e:	447b      	add	r3, pc
    2660:	781b      	ldrb	r3, [r3, #0]
    2662:	b91b      	cbnz	r3, 266c <bcm2835_spi_begin+0x6c>
    2664:	2001      	movs	r0, #1
    2666:	2330      	movs	r3, #48	; 0x30
    2668:	6023      	str	r3, [r4, #0]
    266a:	bd10      	pop	{r4, pc}
    266c:	4620      	mov	r0, r4
    266e:	2130      	movs	r1, #48	; 0x30
    2670:	f7ff fc66 	bl	1f40 <bcm2835_peri_write_nb.part.4>
    2674:	2001      	movs	r0, #1
    2676:	bd10      	pop	{r4, pc}
    2678:	00012a14 	andeq	r2, r1, r4, lsl sl
    267c:	000129fe 	strdeq	r2, [r1], -lr

00002680 <bcm2835_spi_end>:
    2680:	b510      	push	{r4, lr}
    2682:	f44f 0260 	mov.w	r2, #14680064	; 0xe00000
    2686:	4c10      	ldr	r4, [pc, #64]	; (26c8 <bcm2835_spi_end+0x48>)
    2688:	2100      	movs	r1, #0
    268a:	447c      	add	r4, pc
    268c:	68a0      	ldr	r0, [r4, #8]
    268e:	f7ff fd55 	bl	213c <bcm2835_peri_set_bits>
    2692:	68a0      	ldr	r0, [r4, #8]
    2694:	f04f 62e0 	mov.w	r2, #117440512	; 0x7000000
    2698:	2100      	movs	r1, #0
    269a:	f7ff fd4f 	bl	213c <bcm2835_peri_set_bits>
    269e:	68a0      	ldr	r0, [r4, #8]
    26a0:	f04f 5260 	mov.w	r2, #939524096	; 0x38000000
    26a4:	2100      	movs	r1, #0
    26a6:	f7ff fd49 	bl	213c <bcm2835_peri_set_bits>
    26aa:	68a0      	ldr	r0, [r4, #8]
    26ac:	2207      	movs	r2, #7
    26ae:	2100      	movs	r1, #0
    26b0:	3004      	adds	r0, #4
    26b2:	f7ff fd43 	bl	213c <bcm2835_peri_set_bits>
    26b6:	68a0      	ldr	r0, [r4, #8]
    26b8:	2238      	movs	r2, #56	; 0x38
    26ba:	2100      	movs	r1, #0
    26bc:	3004      	adds	r0, #4
    26be:	e8bd 4010 	ldmia.w	sp!, {r4, lr}
    26c2:	f7ff bd3b 	b.w	213c <bcm2835_peri_set_bits>
    26c6:	bf00      	nop
    26c8:	0001298e 	andeq	r2, r1, lr, lsl #19

000026cc <bcm2835_spi_setBitOrder>:
    26cc:	4b02      	ldr	r3, [pc, #8]	; (26d8 <bcm2835_spi_setBitOrder+0xc>)
    26ce:	447b      	add	r3, pc
    26d0:	f883 0034 	strb.w	r0, [r3, #52]	; 0x34
    26d4:	4770      	bx	lr
    26d6:	bf00      	nop
    26d8:	0001294a 	andeq	r2, r1, sl, asr #18

000026dc <bcm2835_spi_setClockDivider>:
    26dc:	4b03      	ldr	r3, [pc, #12]	; (26ec <bcm2835_spi_setClockDivider+0x10>)
    26de:	4601      	mov	r1, r0
    26e0:	447b      	add	r3, pc
    26e2:	6998      	ldr	r0, [r3, #24]
    26e4:	3008      	adds	r0, #8
    26e6:	f7ff bcf7 	b.w	20d8 <bcm2835_peri_write>
    26ea:	bf00      	nop
    26ec:	00012938 	andeq	r2, r1, r8, lsr r9

000026f0 <bcm2835_spi_set_speed_hz>:
    26f0:	b508      	push	{r3, lr}
    26f2:	4601      	mov	r1, r0
    26f4:	f24b 2080 	movw	r0, #45696	; 0xb280
    26f8:	f6c0 60e6 	movt	r0, #3814	; 0xee6
    26fc:	f7fe e81c 	blx	738 <__aeabi_uidiv@plt>
    2700:	4b05      	ldr	r3, [pc, #20]	; (2718 <bcm2835_spi_set_speed_hz+0x28>)
    2702:	f64f 71fe 	movw	r1, #65534	; 0xfffe
    2706:	447b      	add	r3, pc
    2708:	699b      	ldr	r3, [r3, #24]
    270a:	4001      	ands	r1, r0
    270c:	f103 0008 	add.w	r0, r3, #8
    2710:	e8bd 4008 	ldmia.w	sp!, {r3, lr}
    2714:	f7ff bce0 	b.w	20d8 <bcm2835_peri_write>
    2718:	00012912 	andeq	r2, r1, r2, lsl r9

0000271c <bcm2835_spi_setDataMode>:
    271c:	4b03      	ldr	r3, [pc, #12]	; (272c <bcm2835_spi_setDataMode+0x10>)
    271e:	0081      	lsls	r1, r0, #2
    2720:	220c      	movs	r2, #12
    2722:	447b      	add	r3, pc
    2724:	6998      	ldr	r0, [r3, #24]
    2726:	f7ff bd09 	b.w	213c <bcm2835_peri_set_bits>
    272a:	bf00      	nop
    272c:	000128f6 	strdeq	r2, [r1], -r6

00002730 <bcm2835_spi_transfer>:
    2730:	b5f8      	push	{r3, r4, r5, r6, r7, lr}
    2732:	2230      	movs	r2, #48	; 0x30
    2734:	4b24      	ldr	r3, [pc, #144]	; (27c8 <bcm2835_spi_transfer+0x98>)
    2736:	4611      	mov	r1, r2
    2738:	4605      	mov	r5, r0
    273a:	447b      	add	r3, pc
    273c:	699c      	ldr	r4, [r3, #24]
    273e:	1d27      	adds	r7, r4, #4
    2740:	4620      	mov	r0, r4
    2742:	f7ff fcfb 	bl	213c <bcm2835_peri_set_bits>
    2746:	2280      	movs	r2, #128	; 0x80
    2748:	4620      	mov	r0, r4
    274a:	4611      	mov	r1, r2
    274c:	f7ff fcf6 	bl	213c <bcm2835_peri_set_bits>
    2750:	4620      	mov	r0, r4
    2752:	f7ff fc9f 	bl	2094 <bcm2835_peri_read>
    2756:	0341      	lsls	r1, r0, #13
    2758:	d5fa      	bpl.n	2750 <bcm2835_spi_transfer+0x20>
    275a:	4b1c      	ldr	r3, [pc, #112]	; (27cc <bcm2835_spi_transfer+0x9c>)
    275c:	447b      	add	r3, pc
    275e:	f893 3034 	ldrb.w	r3, [r3, #52]	; 0x34
    2762:	b913      	cbnz	r3, 276a <bcm2835_spi_transfer+0x3a>
    2764:	4b1a      	ldr	r3, [pc, #104]	; (27d0 <bcm2835_spi_transfer+0xa0>)
    2766:	447b      	add	r3, pc
    2768:	5d5d      	ldrb	r5, [r3, r5]
    276a:	4e1a      	ldr	r6, [pc, #104]	; (27d4 <bcm2835_spi_transfer+0xa4>)
    276c:	447e      	add	r6, pc
    276e:	7833      	ldrb	r3, [r6, #0]
    2770:	b9ab      	cbnz	r3, 279e <bcm2835_spi_transfer+0x6e>
    2772:	6065      	str	r5, [r4, #4]
    2774:	6823      	ldr	r3, [r4, #0]
    2776:	03db      	lsls	r3, r3, #15
    2778:	d5fc      	bpl.n	2774 <bcm2835_spi_transfer+0x44>
    277a:	6860      	ldr	r0, [r4, #4]
    277c:	4b16      	ldr	r3, [pc, #88]	; (27d8 <bcm2835_spi_transfer+0xa8>)
    277e:	b2c5      	uxtb	r5, r0
    2780:	447b      	add	r3, pc
    2782:	f893 3034 	ldrb.w	r3, [r3, #52]	; 0x34
    2786:	b91b      	cbnz	r3, 2790 <bcm2835_spi_transfer+0x60>
    2788:	4b14      	ldr	r3, [pc, #80]	; (27dc <bcm2835_spi_transfer+0xac>)
    278a:	b2c0      	uxtb	r0, r0
    278c:	447b      	add	r3, pc
    278e:	5c1d      	ldrb	r5, [r3, r0]
    2790:	4620      	mov	r0, r4
    2792:	2280      	movs	r2, #128	; 0x80
    2794:	2100      	movs	r1, #0
    2796:	f7ff fcd1 	bl	213c <bcm2835_peri_set_bits>
    279a:	4628      	mov	r0, r5
    279c:	bdf8      	pop	{r3, r4, r5, r6, r7, pc}
    279e:	4629      	mov	r1, r5
    27a0:	4638      	mov	r0, r7
    27a2:	4d0f      	ldr	r5, [pc, #60]	; (27e0 <bcm2835_spi_transfer+0xb0>)
    27a4:	f7ff fbcc 	bl	1f40 <bcm2835_peri_write_nb.part.4>
    27a8:	7833      	ldrb	r3, [r6, #0]
    27aa:	447d      	add	r5, pc
    27ac:	4620      	mov	r0, r4
    27ae:	2b00      	cmp	r3, #0
    27b0:	d0e0      	beq.n	2774 <bcm2835_spi_transfer+0x44>
    27b2:	f7ff fbb9 	bl	1f28 <bcm2835_peri_read_nb.part.2>
    27b6:	782b      	ldrb	r3, [r5, #0]
    27b8:	03c2      	lsls	r2, r0, #15
    27ba:	d5f7      	bpl.n	27ac <bcm2835_spi_transfer+0x7c>
    27bc:	2b00      	cmp	r3, #0
    27be:	d0dc      	beq.n	277a <bcm2835_spi_transfer+0x4a>
    27c0:	4638      	mov	r0, r7
    27c2:	f7ff fbb1 	bl	1f28 <bcm2835_peri_read_nb.part.2>
    27c6:	e7d9      	b.n	277c <bcm2835_spi_transfer+0x4c>
    27c8:	000128de 	ldrdeq	r2, [r1], -lr
    27cc:	000128bc 			; <UNDEFINED> instruction: 0x000128bc
    27d0:	000019d6 	ldrdeq	r1, [r0], -r6
    27d4:	000128f0 	strdeq	r2, [r1], -r0
    27d8:	00012898 	muleq	r1, r8, r8
    27dc:	000019b0 			; <UNDEFINED> instruction: 0x000019b0
    27e0:	000128b2 			; <UNDEFINED> instruction: 0x000128b2

000027e4 <bcm2835_spi_transfernb>:
    27e4:	4b45      	ldr	r3, [pc, #276]	; (28fc <bcm2835_spi_transfernb+0x118>)
    27e6:	e92d 4ff0 	stmdb	sp!, {r4, r5, r6, r7, r8, r9, sl, fp, lr}
    27ea:	447b      	add	r3, pc
    27ec:	b087      	sub	sp, #28
    27ee:	4690      	mov	r8, r2
    27f0:	699c      	ldr	r4, [r3, #24]
    27f2:	2230      	movs	r2, #48	; 0x30
    27f4:	e9cd 0103 	strd	r0, r1, [sp, #12]
    27f8:	4611      	mov	r1, r2
    27fa:	1d23      	adds	r3, r4, #4
    27fc:	9300      	str	r3, [sp, #0]
    27fe:	4b40      	ldr	r3, [pc, #256]	; (2900 <bcm2835_spi_transfernb+0x11c>)
    2800:	4620      	mov	r0, r4
    2802:	f8df a100 	ldr.w	sl, [pc, #256]	; 2904 <bcm2835_spi_transfernb+0x120>
    2806:	2500      	movs	r5, #0
    2808:	447b      	add	r3, pc
    280a:	f8df b0fc 	ldr.w	fp, [pc, #252]	; 2908 <bcm2835_spi_transfernb+0x124>
    280e:	9302      	str	r3, [sp, #8]
    2810:	f7ff fc94 	bl	213c <bcm2835_peri_set_bits>
    2814:	2280      	movs	r2, #128	; 0x80
    2816:	4620      	mov	r0, r4
    2818:	4611      	mov	r1, r2
    281a:	44fa      	add	sl, pc
    281c:	f7ff fc8e 	bl	213c <bcm2835_peri_set_bits>
    2820:	44fb      	add	fp, pc
    2822:	4b3a      	ldr	r3, [pc, #232]	; (290c <bcm2835_spi_transfernb+0x128>)
    2824:	462e      	mov	r6, r5
    2826:	447b      	add	r3, pc
    2828:	9305      	str	r3, [sp, #20]
    282a:	4545      	cmp	r5, r8
    282c:	bf28      	it	cs
    282e:	4546      	cmpcs	r6, r8
    2830:	d24d      	bcs.n	28ce <bcm2835_spi_transfernb+0xea>
    2832:	9b03      	ldr	r3, [sp, #12]
    2834:	1e77      	subs	r7, r6, #1
    2836:	f8dd 9014 	ldr.w	r9, [sp, #20]
    283a:	441f      	add	r7, r3
    283c:	462b      	mov	r3, r5
    283e:	4635      	mov	r5, r6
    2840:	461e      	mov	r6, r3
    2842:	e001      	b.n	2848 <bcm2835_spi_transfernb+0x64>
    2844:	6061      	str	r1, [r4, #4]
    2846:	3501      	adds	r5, #1
    2848:	4620      	mov	r0, r4
    284a:	f7ff fc23 	bl	2094 <bcm2835_peri_read>
    284e:	4545      	cmp	r5, r8
    2850:	bf2c      	ite	cs
    2852:	2200      	movcs	r2, #0
    2854:	2201      	movcc	r2, #1
    2856:	ea12 4390 	ands.w	r3, r2, r0, lsr #18
    285a:	d00e      	beq.n	287a <bcm2835_spi_transfernb+0x96>
    285c:	f89a 2034 	ldrb.w	r2, [sl, #52]	; 0x34
    2860:	f817 1f01 	ldrb.w	r1, [r7, #1]!
    2864:	b90a      	cbnz	r2, 286a <bcm2835_spi_transfernb+0x86>
    2866:	9b02      	ldr	r3, [sp, #8]
    2868:	5c59      	ldrb	r1, [r3, r1]
    286a:	f899 2000 	ldrb.w	r2, [r9]
    286e:	2a00      	cmp	r2, #0
    2870:	d0e8      	beq.n	2844 <bcm2835_spi_transfernb+0x60>
    2872:	9800      	ldr	r0, [sp, #0]
    2874:	f7ff fb64 	bl	1f40 <bcm2835_peri_write_nb.part.4>
    2878:	e7e5      	b.n	2846 <bcm2835_spi_transfernb+0x62>
    287a:	4633      	mov	r3, r6
    287c:	462e      	mov	r6, r5
    287e:	1e5f      	subs	r7, r3, #1
    2880:	461d      	mov	r5, r3
    2882:	9b04      	ldr	r3, [sp, #16]
    2884:	f8df 9088 	ldr.w	r9, [pc, #136]	; 2910 <bcm2835_spi_transfernb+0x12c>
    2888:	441f      	add	r7, r3
    288a:	4b22      	ldr	r3, [pc, #136]	; (2914 <bcm2835_spi_transfernb+0x130>)
    288c:	44f9      	add	r9, pc
    288e:	447b      	add	r3, pc
    2890:	9301      	str	r3, [sp, #4]
    2892:	e00a      	b.n	28aa <bcm2835_spi_transfernb+0xc6>
    2894:	6860      	ldr	r0, [r4, #4]
    2896:	f899 2034 	ldrb.w	r2, [r9, #52]	; 0x34
    289a:	b2c1      	uxtb	r1, r0
    289c:	4608      	mov	r0, r1
    289e:	b90a      	cbnz	r2, 28a4 <bcm2835_spi_transfernb+0xc0>
    28a0:	9b01      	ldr	r3, [sp, #4]
    28a2:	5c58      	ldrb	r0, [r3, r1]
    28a4:	3501      	adds	r5, #1
    28a6:	f807 0f01 	strb.w	r0, [r7, #1]!
    28aa:	4620      	mov	r0, r4
    28ac:	f7ff fbf2 	bl	2094 <bcm2835_peri_read>
    28b0:	4545      	cmp	r5, r8
    28b2:	bf2c      	ite	cs
    28b4:	2200      	movcs	r2, #0
    28b6:	2201      	movcc	r2, #1
    28b8:	ea12 4350 	ands.w	r3, r2, r0, lsr #17
    28bc:	d0b5      	beq.n	282a <bcm2835_spi_transfernb+0x46>
    28be:	f89b 2000 	ldrb.w	r2, [fp]
    28c2:	2a00      	cmp	r2, #0
    28c4:	d0e6      	beq.n	2894 <bcm2835_spi_transfernb+0xb0>
    28c6:	9800      	ldr	r0, [sp, #0]
    28c8:	f7ff fb2e 	bl	1f28 <bcm2835_peri_read_nb.part.2>
    28cc:	e7e3      	b.n	2896 <bcm2835_spi_transfernb+0xb2>
    28ce:	4d12      	ldr	r5, [pc, #72]	; (2918 <bcm2835_spi_transfernb+0x134>)
    28d0:	447d      	add	r5, pc
    28d2:	e002      	b.n	28da <bcm2835_spi_transfernb+0xf6>
    28d4:	6820      	ldr	r0, [r4, #0]
    28d6:	03c3      	lsls	r3, r0, #15
    28d8:	d407      	bmi.n	28ea <bcm2835_spi_transfernb+0x106>
    28da:	782b      	ldrb	r3, [r5, #0]
    28dc:	2b00      	cmp	r3, #0
    28de:	d0f9      	beq.n	28d4 <bcm2835_spi_transfernb+0xf0>
    28e0:	4620      	mov	r0, r4
    28e2:	f7ff fb21 	bl	1f28 <bcm2835_peri_read_nb.part.2>
    28e6:	03c3      	lsls	r3, r0, #15
    28e8:	d5f7      	bpl.n	28da <bcm2835_spi_transfernb+0xf6>
    28ea:	4620      	mov	r0, r4
    28ec:	2280      	movs	r2, #128	; 0x80
    28ee:	2100      	movs	r1, #0
    28f0:	b007      	add	sp, #28
    28f2:	e8bd 4ff0 	ldmia.w	sp!, {r4, r5, r6, r7, r8, r9, sl, fp, lr}
    28f6:	f7ff bc21 	b.w	213c <bcm2835_peri_set_bits>
    28fa:	bf00      	nop
    28fc:	0001282e 	andeq	r2, r1, lr, lsr #16
    2900:	00001934 	andeq	r1, r0, r4, lsr r9
    2904:	000127fe 	strdeq	r2, [r1], -lr
    2908:	0001283c 	andeq	r2, r1, ip, lsr r8
    290c:	00012836 	andeq	r2, r1, r6, lsr r8
    2910:	0001278c 	andeq	r2, r1, ip, lsl #15
    2914:	000018ae 	andeq	r1, r0, lr, lsr #17
    2918:	0001278c 	andeq	r2, r1, ip, lsl #15

0000291c <bcm2835_spi_writenb>:
    291c:	e92d 43f8 	stmdb	sp!, {r3, r4, r5, r6, r7, r8, r9, lr}
    2920:	2230      	movs	r2, #48	; 0x30
    2922:	f8df 90d8 	ldr.w	r9, [pc, #216]	; 29fc <bcm2835_spi_writenb+0xe0>
    2926:	460d      	mov	r5, r1
    2928:	4607      	mov	r7, r0
    292a:	4611      	mov	r1, r2
    292c:	44f9      	add	r9, pc
    292e:	f8d9 4018 	ldr.w	r4, [r9, #24]
    2932:	1d26      	adds	r6, r4, #4
    2934:	4620      	mov	r0, r4
    2936:	f7ff fc01 	bl	213c <bcm2835_peri_set_bits>
    293a:	2280      	movs	r2, #128	; 0x80
    293c:	4620      	mov	r0, r4
    293e:	4611      	mov	r1, r2
    2940:	f7ff fbfc 	bl	213c <bcm2835_peri_set_bits>
    2944:	b345      	cbz	r5, 2998 <bcm2835_spi_writenb+0x7c>
    2946:	eb07 0805 	add.w	r8, r7, r5
    294a:	4d2d      	ldr	r5, [pc, #180]	; (2a00 <bcm2835_spi_writenb+0xe4>)
    294c:	f108 38ff 	add.w	r8, r8, #4294967295
    2950:	3f01      	subs	r7, #1
    2952:	447d      	add	r5, pc
    2954:	4620      	mov	r0, r4
    2956:	f7ff fb9d 	bl	2094 <bcm2835_peri_read>
    295a:	0340      	lsls	r0, r0, #13
    295c:	d5fa      	bpl.n	2954 <bcm2835_spi_writenb+0x38>
    295e:	f899 3034 	ldrb.w	r3, [r9, #52]	; 0x34
    2962:	f817 1f01 	ldrb.w	r1, [r7, #1]!
    2966:	b913      	cbnz	r3, 296e <bcm2835_spi_writenb+0x52>
    2968:	4b26      	ldr	r3, [pc, #152]	; (2a04 <bcm2835_spi_writenb+0xe8>)
    296a:	447b      	add	r3, pc
    296c:	5c59      	ldrb	r1, [r3, r1]
    296e:	4b26      	ldr	r3, [pc, #152]	; (2a08 <bcm2835_spi_writenb+0xec>)
    2970:	447b      	add	r3, pc
    2972:	781b      	ldrb	r3, [r3, #0]
    2974:	2b00      	cmp	r3, #0
    2976:	d13c      	bne.n	29f2 <bcm2835_spi_writenb+0xd6>
    2978:	6061      	str	r1, [r4, #4]
    297a:	4620      	mov	r0, r4
    297c:	f7ff fb8a 	bl	2094 <bcm2835_peri_read>
    2980:	0381      	lsls	r1, r0, #14
    2982:	d507      	bpl.n	2994 <bcm2835_spi_writenb+0x78>
    2984:	782b      	ldrb	r3, [r5, #0]
    2986:	bb23      	cbnz	r3, 29d2 <bcm2835_spi_writenb+0xb6>
    2988:	4620      	mov	r0, r4
    298a:	6863      	ldr	r3, [r4, #4]
    298c:	f7ff fb82 	bl	2094 <bcm2835_peri_read>
    2990:	0381      	lsls	r1, r0, #14
    2992:	d4f7      	bmi.n	2984 <bcm2835_spi_writenb+0x68>
    2994:	4547      	cmp	r7, r8
    2996:	d1dd      	bne.n	2954 <bcm2835_spi_writenb+0x38>
    2998:	4f1c      	ldr	r7, [pc, #112]	; (2a0c <bcm2835_spi_writenb+0xf0>)
    299a:	4d1d      	ldr	r5, [pc, #116]	; (2a10 <bcm2835_spi_writenb+0xf4>)
    299c:	447f      	add	r7, pc
    299e:	447d      	add	r5, pc
    29a0:	783b      	ldrb	r3, [r7, #0]
    29a2:	b9d3      	cbnz	r3, 29da <bcm2835_spi_writenb+0xbe>
    29a4:	6820      	ldr	r0, [r4, #0]
    29a6:	03c3      	lsls	r3, r0, #15
    29a8:	d41c      	bmi.n	29e4 <bcm2835_spi_writenb+0xc8>
    29aa:	4620      	mov	r0, r4
    29ac:	f7ff fb72 	bl	2094 <bcm2835_peri_read>
    29b0:	0382      	lsls	r2, r0, #14
    29b2:	d5f5      	bpl.n	29a0 <bcm2835_spi_writenb+0x84>
    29b4:	782b      	ldrb	r3, [r5, #0]
    29b6:	b943      	cbnz	r3, 29ca <bcm2835_spi_writenb+0xae>
    29b8:	4620      	mov	r0, r4
    29ba:	6863      	ldr	r3, [r4, #4]
    29bc:	f7ff fb6a 	bl	2094 <bcm2835_peri_read>
    29c0:	0382      	lsls	r2, r0, #14
    29c2:	d5ed      	bpl.n	29a0 <bcm2835_spi_writenb+0x84>
    29c4:	782b      	ldrb	r3, [r5, #0]
    29c6:	2b00      	cmp	r3, #0
    29c8:	d0f6      	beq.n	29b8 <bcm2835_spi_writenb+0x9c>
    29ca:	4630      	mov	r0, r6
    29cc:	f7ff faac 	bl	1f28 <bcm2835_peri_read_nb.part.2>
    29d0:	e7eb      	b.n	29aa <bcm2835_spi_writenb+0x8e>
    29d2:	4630      	mov	r0, r6
    29d4:	f7ff faa8 	bl	1f28 <bcm2835_peri_read_nb.part.2>
    29d8:	e7cf      	b.n	297a <bcm2835_spi_writenb+0x5e>
    29da:	4620      	mov	r0, r4
    29dc:	f7ff faa4 	bl	1f28 <bcm2835_peri_read_nb.part.2>
    29e0:	03c3      	lsls	r3, r0, #15
    29e2:	d5e2      	bpl.n	29aa <bcm2835_spi_writenb+0x8e>
    29e4:	4620      	mov	r0, r4
    29e6:	2280      	movs	r2, #128	; 0x80
    29e8:	2100      	movs	r1, #0
    29ea:	e8bd 43f8 	ldmia.w	sp!, {r3, r4, r5, r6, r7, r8, r9, lr}
    29ee:	f7ff bba5 	b.w	213c <bcm2835_peri_set_bits>
    29f2:	4630      	mov	r0, r6
    29f4:	f7ff faa4 	bl	1f40 <bcm2835_peri_write_nb.part.4>
    29f8:	e7bf      	b.n	297a <bcm2835_spi_writenb+0x5e>
    29fa:	bf00      	nop
    29fc:	000126ec 	andeq	r2, r1, ip, ror #13
    2a00:	0001270a 	andeq	r2, r1, sl, lsl #14
    2a04:	000017d2 	ldrdeq	r1, [r0], -r2
    2a08:	000126ec 	andeq	r2, r1, ip, ror #13
    2a0c:	000126c0 	andeq	r2, r1, r0, asr #13
    2a10:	000126be 			; <UNDEFINED> instruction: 0x000126be

00002a14 <bcm2835_spi_transfern>:
    2a14:	460a      	mov	r2, r1
    2a16:	4601      	mov	r1, r0
    2a18:	f7ff bee4 	b.w	27e4 <bcm2835_spi_transfernb>

00002a1c <bcm2835_spi_chipSelect>:
    2a1c:	4b03      	ldr	r3, [pc, #12]	; (2a2c <bcm2835_spi_chipSelect+0x10>)
    2a1e:	4601      	mov	r1, r0
    2a20:	2203      	movs	r2, #3
    2a22:	447b      	add	r3, pc
    2a24:	6998      	ldr	r0, [r3, #24]
    2a26:	f7ff bb89 	b.w	213c <bcm2835_peri_set_bits>
    2a2a:	bf00      	nop
    2a2c:	000125f6 	strdeq	r2, [r1], -r6

00002a30 <bcm2835_spi_setChipSelectPolarity>:
    2a30:	4b04      	ldr	r3, [pc, #16]	; (2a44 <bcm2835_spi_setChipSelectPolarity+0x14>)
    2a32:	3015      	adds	r0, #21
    2a34:	2201      	movs	r2, #1
    2a36:	447b      	add	r3, pc
    2a38:	b2c0      	uxtb	r0, r0
    2a3a:	4081      	lsls	r1, r0
    2a3c:	4082      	lsls	r2, r0
    2a3e:	6998      	ldr	r0, [r3, #24]
    2a40:	f7ff bb7c 	b.w	213c <bcm2835_peri_set_bits>
    2a44:	000125e2 	andeq	r2, r1, r2, ror #11

00002a48 <bcm2835_spi_write>:
    2a48:	b5f8      	push	{r3, r4, r5, r6, r7, lr}
    2a4a:	2230      	movs	r2, #48	; 0x30
    2a4c:	4b1e      	ldr	r3, [pc, #120]	; (2ac8 <bcm2835_spi_write+0x80>)
    2a4e:	4611      	mov	r1, r2
    2a50:	4605      	mov	r5, r0
    2a52:	447b      	add	r3, pc
    2a54:	699c      	ldr	r4, [r3, #24]
    2a56:	4620      	mov	r0, r4
    2a58:	f7ff fb70 	bl	213c <bcm2835_peri_set_bits>
    2a5c:	2280      	movs	r2, #128	; 0x80
    2a5e:	4620      	mov	r0, r4
    2a60:	4611      	mov	r1, r2
    2a62:	f7ff fb6b 	bl	213c <bcm2835_peri_set_bits>
    2a66:	4620      	mov	r0, r4
    2a68:	f7ff fb14 	bl	2094 <bcm2835_peri_read>
    2a6c:	0342      	lsls	r2, r0, #13
    2a6e:	d5fa      	bpl.n	2a66 <bcm2835_spi_write+0x1e>
    2a70:	4e16      	ldr	r6, [pc, #88]	; (2acc <bcm2835_spi_write+0x84>)
    2a72:	0a29      	lsrs	r1, r5, #8
    2a74:	b2ed      	uxtb	r5, r5
    2a76:	447e      	add	r6, pc
    2a78:	7833      	ldrb	r3, [r6, #0]
    2a7a:	b9bb      	cbnz	r3, 2aac <bcm2835_spi_write+0x64>
    2a7c:	6061      	str	r1, [r4, #4]
    2a7e:	2300      	movs	r3, #0
    2a80:	6065      	str	r5, [r4, #4]
    2a82:	4d13      	ldr	r5, [pc, #76]	; (2ad0 <bcm2835_spi_write+0x88>)
    2a84:	447d      	add	r5, pc
    2a86:	b92b      	cbnz	r3, 2a94 <bcm2835_spi_write+0x4c>
    2a88:	6820      	ldr	r0, [r4, #0]
    2a8a:	03c3      	lsls	r3, r0, #15
    2a8c:	d407      	bmi.n	2a9e <bcm2835_spi_write+0x56>
    2a8e:	782b      	ldrb	r3, [r5, #0]
    2a90:	2b00      	cmp	r3, #0
    2a92:	d0f9      	beq.n	2a88 <bcm2835_spi_write+0x40>
    2a94:	4620      	mov	r0, r4
    2a96:	f7ff fa47 	bl	1f28 <bcm2835_peri_read_nb.part.2>
    2a9a:	03c3      	lsls	r3, r0, #15
    2a9c:	d5f7      	bpl.n	2a8e <bcm2835_spi_write+0x46>
    2a9e:	4620      	mov	r0, r4
    2aa0:	2280      	movs	r2, #128	; 0x80
    2aa2:	2100      	movs	r1, #0
    2aa4:	e8bd 40f8 	ldmia.w	sp!, {r3, r4, r5, r6, r7, lr}
    2aa8:	f7ff bb48 	b.w	213c <bcm2835_peri_set_bits>
    2aac:	1d27      	adds	r7, r4, #4
    2aae:	4638      	mov	r0, r7
    2ab0:	f7ff fa46 	bl	1f40 <bcm2835_peri_write_nb.part.4>
    2ab4:	7833      	ldrb	r3, [r6, #0]
    2ab6:	2b00      	cmp	r3, #0
    2ab8:	d0e1      	beq.n	2a7e <bcm2835_spi_write+0x36>
    2aba:	4629      	mov	r1, r5
    2abc:	4638      	mov	r0, r7
    2abe:	f7ff fa3f 	bl	1f40 <bcm2835_peri_write_nb.part.4>
    2ac2:	7833      	ldrb	r3, [r6, #0]
    2ac4:	e7dd      	b.n	2a82 <bcm2835_spi_write+0x3a>
    2ac6:	bf00      	nop
    2ac8:	000125c6 	andeq	r2, r1, r6, asr #11
    2acc:	000125e6 	andeq	r2, r1, r6, ror #11
    2ad0:	000125d8 	ldrdeq	r2, [r1], -r8

00002ad4 <bcm2835_aux_spi_begin>:
    2ad4:	b570      	push	{r4, r5, r6, lr}
    2ad6:	4c1b      	ldr	r4, [pc, #108]	; (2b44 <bcm2835_aux_spi_begin+0x70>)
    2ad8:	447c      	add	r4, pc
    2ada:	6ae5      	ldr	r5, [r4, #44]	; 0x2c
    2adc:	1c6b      	adds	r3, r5, #1
    2ade:	bf08      	it	eq
    2ae0:	2000      	moveq	r0, #0
    2ae2:	d02e      	beq.n	2b42 <bcm2835_aux_spi_begin+0x6e>
    2ae4:	68a0      	ldr	r0, [r4, #8]
    2ae6:	f44f 12e0 	mov.w	r2, #1835008	; 0x1c0000
    2aea:	f44f 2140 	mov.w	r1, #786432	; 0xc0000
    2aee:	6aa6      	ldr	r6, [r4, #40]	; 0x28
    2af0:	3004      	adds	r0, #4
    2af2:	f7ff fb23 	bl	213c <bcm2835_peri_set_bits>
    2af6:	68a0      	ldr	r0, [r4, #8]
    2af8:	f04f 5260 	mov.w	r2, #939524096	; 0x38000000
    2afc:	f04f 51c0 	mov.w	r1, #402653184	; 0x18000000
    2b00:	3004      	adds	r0, #4
    2b02:	f7ff fb1b 	bl	213c <bcm2835_peri_set_bits>
    2b06:	68a0      	ldr	r0, [r4, #8]
    2b08:	2207      	movs	r2, #7
    2b0a:	2103      	movs	r1, #3
    2b0c:	3008      	adds	r0, #8
    2b0e:	f7ff fb15 	bl	213c <bcm2835_peri_set_bits>
    2b12:	68a0      	ldr	r0, [r4, #8]
    2b14:	2238      	movs	r2, #56	; 0x38
    2b16:	2118      	movs	r1, #24
    2b18:	3008      	adds	r0, #8
    2b1a:	f7ff fb0f 	bl	213c <bcm2835_peri_set_bits>
    2b1e:	4b0a      	ldr	r3, [pc, #40]	; (2b48 <bcm2835_aux_spi_begin+0x74>)
    2b20:	1d30      	adds	r0, r6, #4
    2b22:	2102      	movs	r1, #2
    2b24:	447b      	add	r3, pc
    2b26:	227c      	movs	r2, #124	; 0x7c
    2b28:	605a      	str	r2, [r3, #4]
    2b2a:	f7ff fad5 	bl	20d8 <bcm2835_peri_write>
    2b2e:	2100      	movs	r1, #0
    2b30:	1d28      	adds	r0, r5, #4
    2b32:	f7ff fad1 	bl	20d8 <bcm2835_peri_write>
    2b36:	4628      	mov	r0, r5
    2b38:	f44f 7100 	mov.w	r1, #512	; 0x200
    2b3c:	f7ff facc 	bl	20d8 <bcm2835_peri_write>
    2b40:	2001      	movs	r0, #1
    2b42:	bd70      	pop	{r4, r5, r6, pc}
    2b44:	00012540 	andeq	r2, r1, r0, asr #10
    2b48:	00012538 	andeq	r2, r1, r8, lsr r5

00002b4c <bcm2835_aux_spi_end>:
    2b4c:	b510      	push	{r4, lr}
    2b4e:	f44f 12e0 	mov.w	r2, #1835008	; 0x1c0000
    2b52:	4c0e      	ldr	r4, [pc, #56]	; (2b8c <bcm2835_aux_spi_end+0x40>)
    2b54:	2100      	movs	r1, #0
    2b56:	447c      	add	r4, pc
    2b58:	68a0      	ldr	r0, [r4, #8]
    2b5a:	3004      	adds	r0, #4
    2b5c:	f7ff faee 	bl	213c <bcm2835_peri_set_bits>
    2b60:	68a0      	ldr	r0, [r4, #8]
    2b62:	f04f 5260 	mov.w	r2, #939524096	; 0x38000000
    2b66:	2100      	movs	r1, #0
    2b68:	3004      	adds	r0, #4
    2b6a:	f7ff fae7 	bl	213c <bcm2835_peri_set_bits>
    2b6e:	68a0      	ldr	r0, [r4, #8]
    2b70:	2207      	movs	r2, #7
    2b72:	2100      	movs	r1, #0
    2b74:	3008      	adds	r0, #8
    2b76:	f7ff fae1 	bl	213c <bcm2835_peri_set_bits>
    2b7a:	68a0      	ldr	r0, [r4, #8]
    2b7c:	2238      	movs	r2, #56	; 0x38
    2b7e:	2100      	movs	r1, #0
    2b80:	3008      	adds	r0, #8
    2b82:	e8bd 4010 	ldmia.w	sp!, {r4, lr}
    2b86:	f7ff bad9 	b.w	213c <bcm2835_peri_set_bits>
    2b8a:	bf00      	nop
    2b8c:	000124c2 	andeq	r2, r1, r2, asr #9

00002b90 <bcm2835_aux_spi_CalcClockDivider>:
    2b90:	b508      	push	{r3, lr}
    2b92:	f247 7323 	movw	r3, #30499	; 0x7723
    2b96:	4298      	cmp	r0, r3
    2b98:	bf98      	it	ls
    2b9a:	f640 70ff 	movwls	r0, #4095	; 0xfff
    2b9e:	d907      	bls.n	2bb0 <bcm2835_aux_spi_CalcClockDivider+0x20>
    2ba0:	f645 1340 	movw	r3, #22848	; 0x5940
    2ba4:	f2c0 7373 	movt	r3, #1907	; 0x773
    2ba8:	4298      	cmp	r0, r3
    2baa:	bf88      	it	hi
    2bac:	2000      	movhi	r0, #0
    2bae:	d900      	bls.n	2bb2 <bcm2835_aux_spi_CalcClockDivider+0x22>
    2bb0:	bd08      	pop	{r3, pc}
    2bb2:	4418      	add	r0, r3
    2bb4:	f44f 419b 	mov.w	r1, #19840	; 0x4d80
    2bb8:	f2cf 1119 	movt	r1, #61721	; 0xf119
    2bbc:	0040      	lsls	r0, r0, #1
    2bbe:	4401      	add	r1, r0
    2bc0:	3801      	subs	r0, #1
    2bc2:	f7fd edba 	blx	738 <__aeabi_uidiv@plt>
    2bc6:	f640 73ff 	movw	r3, #4095	; 0xfff
    2bca:	3801      	subs	r0, #1
    2bcc:	b280      	uxth	r0, r0
    2bce:	4298      	cmp	r0, r3
    2bd0:	bf28      	it	cs
    2bd2:	4618      	movcs	r0, r3
    2bd4:	bd08      	pop	{r3, pc}
    2bd6:	bf00      	nop

00002bd8 <bcm2835_aux_spi_setClockDivider>:
    2bd8:	4b01      	ldr	r3, [pc, #4]	; (2be0 <bcm2835_aux_spi_setClockDivider+0x8>)
    2bda:	447b      	add	r3, pc
    2bdc:	6058      	str	r0, [r3, #4]
    2bde:	4770      	bx	lr
    2be0:	00012482 	andeq	r2, r1, r2, lsl #9

00002be4 <bcm2835_aux_spi_write>:
    2be4:	b5f8      	push	{r3, r4, r5, r6, r7, lr}
    2be6:	f44f 6105 	mov.w	r1, #2128	; 0x850
    2bea:	4a10      	ldr	r2, [pc, #64]	; (2c2c <bcm2835_aux_spi_write+0x48>)
    2bec:	f2c0 0106 	movt	r1, #6
    2bf0:	4b0f      	ldr	r3, [pc, #60]	; (2c30 <bcm2835_aux_spi_write+0x4c>)
    2bf2:	4606      	mov	r6, r0
    2bf4:	447a      	add	r2, pc
    2bf6:	447b      	add	r3, pc
    2bf8:	6ad5      	ldr	r5, [r2, #44]	; 0x2c
    2bfa:	685b      	ldr	r3, [r3, #4]
    2bfc:	f105 0408 	add.w	r4, r5, #8
    2c00:	f105 0720 	add.w	r7, r5, #32
    2c04:	4628      	mov	r0, r5
    2c06:	ea41 5103 	orr.w	r1, r1, r3, lsl #20
    2c0a:	f7ff fa65 	bl	20d8 <bcm2835_peri_write>
    2c0e:	1d28      	adds	r0, r5, #4
    2c10:	2102      	movs	r1, #2
    2c12:	f7ff fa61 	bl	20d8 <bcm2835_peri_write>
    2c16:	4620      	mov	r0, r4
    2c18:	f7ff fa3c 	bl	2094 <bcm2835_peri_read>
    2c1c:	0543      	lsls	r3, r0, #21
    2c1e:	d4fa      	bmi.n	2c16 <bcm2835_aux_spi_write+0x32>
    2c20:	0431      	lsls	r1, r6, #16
    2c22:	4638      	mov	r0, r7
    2c24:	e8bd 40f8 	ldmia.w	sp!, {r3, r4, r5, r6, r7, lr}
    2c28:	f7ff ba56 	b.w	20d8 <bcm2835_peri_write>
    2c2c:	00012424 	andeq	r2, r1, r4, lsr #8
    2c30:	00012466 	andeq	r2, r1, r6, ror #8

00002c34 <bcm2835_aux_spi_writenb>:
    2c34:	e92d 43f8 	stmdb	sp!, {r3, r4, r5, r6, r7, r8, r9, lr}
    2c38:	460e      	mov	r6, r1
    2c3a:	4a27      	ldr	r2, [pc, #156]	; (2cd8 <bcm2835_aux_spi_writenb+0xa4>)
    2c3c:	f644 0740 	movw	r7, #18496	; 0x4840
    2c40:	4b26      	ldr	r3, [pc, #152]	; (2cdc <bcm2835_aux_spi_writenb+0xa8>)
    2c42:	f2c0 0706 	movt	r7, #6
    2c46:	447a      	add	r2, pc
    2c48:	4605      	mov	r5, r0
    2c4a:	447b      	add	r3, pc
    2c4c:	f8d2 902c 	ldr.w	r9, [r2, #44]	; 0x2c
    2c50:	6859      	ldr	r1, [r3, #4]
    2c52:	f109 0408 	add.w	r4, r9, #8
    2c56:	f109 0830 	add.w	r8, r9, #48	; 0x30
    2c5a:	4648      	mov	r0, r9
    2c5c:	ea47 5101 	orr.w	r1, r7, r1, lsl #20
    2c60:	f109 0720 	add.w	r7, r9, #32
    2c64:	f7ff fa38 	bl	20d8 <bcm2835_peri_write>
    2c68:	f109 0004 	add.w	r0, r9, #4
    2c6c:	2102      	movs	r1, #2
    2c6e:	f7ff fa33 	bl	20d8 <bcm2835_peri_write>
    2c72:	b356      	cbz	r6, 2cca <bcm2835_aux_spi_writenb+0x96>
    2c74:	4620      	mov	r0, r4
    2c76:	f7ff fa0d 	bl	2094 <bcm2835_peri_read>
    2c7a:	f410 6080 	ands.w	r0, r0, #1024	; 0x400
    2c7e:	d1f9      	bne.n	2c74 <bcm2835_aux_spi_writenb+0x40>
    2c80:	2e03      	cmp	r6, #3
    2c82:	46b4      	mov	ip, r6
    2c84:	f04f 0310 	mov.w	r3, #16
    2c88:	bf28      	it	cs
    2c8a:	f04f 0c03 	movcs.w	ip, #3
    2c8e:	ea4f 01cc 	mov.w	r1, ip, lsl #3
    2c92:	1a59      	subs	r1, r3, r1
    2c94:	b1dd      	cbz	r5, 2cce <bcm2835_aux_spi_writenb+0x9a>
    2c96:	782a      	ldrb	r2, [r5, #0]
    2c98:	3501      	adds	r5, #1
    2c9a:	409a      	lsls	r2, r3
    2c9c:	4310      	orrs	r0, r2
    2c9e:	3b08      	subs	r3, #8
    2ca0:	4299      	cmp	r1, r3
    2ca2:	d1f7      	bne.n	2c94 <bcm2835_aux_spi_writenb+0x60>
    2ca4:	ebb6 060c 	subs.w	r6, r6, ip
    2ca8:	ea40 61cc 	orr.w	r1, r0, ip, lsl #27
    2cac:	bf14      	ite	ne
    2cae:	4640      	movne	r0, r8
    2cb0:	4638      	moveq	r0, r7
    2cb2:	f7ff fa11 	bl	20d8 <bcm2835_peri_write>
    2cb6:	4620      	mov	r0, r4
    2cb8:	f7ff f9ec 	bl	2094 <bcm2835_peri_read>
    2cbc:	0643      	lsls	r3, r0, #25
    2cbe:	d4fa      	bmi.n	2cb6 <bcm2835_aux_spi_writenb+0x82>
    2cc0:	4638      	mov	r0, r7
    2cc2:	f7ff f9e7 	bl	2094 <bcm2835_peri_read>
    2cc6:	2e00      	cmp	r6, #0
    2cc8:	d1d4      	bne.n	2c74 <bcm2835_aux_spi_writenb+0x40>
    2cca:	e8bd 83f8 	ldmia.w	sp!, {r3, r4, r5, r6, r7, r8, r9, pc}
    2cce:	3b08      	subs	r3, #8
    2cd0:	428b      	cmp	r3, r1
    2cd2:	d1e4      	bne.n	2c9e <bcm2835_aux_spi_writenb+0x6a>
    2cd4:	e7e6      	b.n	2ca4 <bcm2835_aux_spi_writenb+0x70>
    2cd6:	bf00      	nop
    2cd8:	000123d2 	ldrdeq	r2, [r1], -r2	; <UNPREDICTABLE>
    2cdc:	00012412 	andeq	r2, r1, r2, lsl r4

00002ce0 <bcm2835_aux_spi_transfernb>:
    2ce0:	e92d 4ff0 	stmdb	sp!, {r4, r5, r6, r7, r8, r9, sl, fp, lr}
    2ce4:	468a      	mov	sl, r1
    2ce6:	4d61      	ldr	r5, [pc, #388]	; (2e6c <bcm2835_aux_spi_transfernb+0x18c>)
    2ce8:	b083      	sub	sp, #12
    2cea:	4b61      	ldr	r3, [pc, #388]	; (2e70 <bcm2835_aux_spi_transfernb+0x190>)
    2cec:	f644 0c40 	movw	ip, #18496	; 0x4840
    2cf0:	447d      	add	r5, pc
    2cf2:	f2c0 0c06 	movt	ip, #6
    2cf6:	447b      	add	r3, pc
    2cf8:	4604      	mov	r4, r0
    2cfa:	6aee      	ldr	r6, [r5, #44]	; 0x2c
    2cfc:	4617      	mov	r7, r2
    2cfe:	6859      	ldr	r1, [r3, #4]
    2d00:	4615      	mov	r5, r2
    2d02:	f106 0330 	add.w	r3, r6, #48	; 0x30
    2d06:	9301      	str	r3, [sp, #4]
    2d08:	4630      	mov	r0, r6
    2d0a:	f106 0808 	add.w	r8, r6, #8
    2d0e:	ea4c 5101 	orr.w	r1, ip, r1, lsl #20
    2d12:	f106 0920 	add.w	r9, r6, #32
    2d16:	f7ff f9df 	bl	20d8 <bcm2835_peri_write>
    2d1a:	1d30      	adds	r0, r6, #4
    2d1c:	2102      	movs	r1, #2
    2d1e:	4656      	mov	r6, sl
    2d20:	f7ff f9da 	bl	20d8 <bcm2835_peri_write>
    2d24:	ea57 0305 	orrs.w	r3, r7, r5
    2d28:	f000 808e 	beq.w	2e48 <bcm2835_aux_spi_transfernb+0x168>
    2d2c:	4640      	mov	r0, r8
    2d2e:	f7ff f9b1 	bl	2094 <bcm2835_peri_read>
    2d32:	f410 6080 	ands.w	r0, r0, #1024	; 0x400
    2d36:	d121      	bne.n	2d7c <bcm2835_aux_spi_transfernb+0x9c>
    2d38:	b307      	cbz	r7, 2d7c <bcm2835_aux_spi_transfernb+0x9c>
    2d3a:	2f03      	cmp	r7, #3
    2d3c:	46bc      	mov	ip, r7
    2d3e:	f04f 0310 	mov.w	r3, #16
    2d42:	bf28      	it	cs
    2d44:	f04f 0c03 	movcs.w	ip, #3
    2d48:	ea4f 01cc 	mov.w	r1, ip, lsl #3
    2d4c:	1a59      	subs	r1, r3, r1
    2d4e:	2c00      	cmp	r4, #0
    2d50:	d07d      	beq.n	2e4e <bcm2835_aux_spi_transfernb+0x16e>
    2d52:	7822      	ldrb	r2, [r4, #0]
    2d54:	3401      	adds	r4, #1
    2d56:	409a      	lsls	r2, r3
    2d58:	4310      	orrs	r0, r2
    2d5a:	3b08      	subs	r3, #8
    2d5c:	428b      	cmp	r3, r1
    2d5e:	d1f6      	bne.n	2d4e <bcm2835_aux_spi_transfernb+0x6e>
    2d60:	ebb7 070c 	subs.w	r7, r7, ip
    2d64:	ea40 61cc 	orr.w	r1, r0, ip, lsl #27
    2d68:	d079      	beq.n	2e5e <bcm2835_aux_spi_transfernb+0x17e>
    2d6a:	9801      	ldr	r0, [sp, #4]
    2d6c:	f7ff f9b4 	bl	20d8 <bcm2835_peri_write>
    2d70:	4640      	mov	r0, r8
    2d72:	f7ff f98f 	bl	2094 <bcm2835_peri_read>
    2d76:	f410 6080 	ands.w	r0, r0, #1024	; 0x400
    2d7a:	d0dd      	beq.n	2d38 <bcm2835_aux_spi_transfernb+0x58>
    2d7c:	4640      	mov	r0, r8
    2d7e:	f7ff f989 	bl	2094 <bcm2835_peri_read>
    2d82:	f010 0f80 	tst.w	r0, #128	; 0x80
    2d86:	4648      	mov	r0, r9
    2d88:	d127      	bne.n	2dda <bcm2835_aux_spi_transfernb+0xfa>
    2d8a:	b335      	cbz	r5, 2dda <bcm2835_aux_spi_transfernb+0xfa>
    2d8c:	f7ff f982 	bl	2094 <bcm2835_peri_read>
    2d90:	2d03      	cmp	r5, #3
    2d92:	462b      	mov	r3, r5
    2d94:	f106 0201 	add.w	r2, r6, #1
    2d98:	bf28      	it	cs
    2d9a:	2303      	movcs	r3, #3
    2d9c:	f1ba 0f00 	cmp.w	sl, #0
    2da0:	d013      	beq.n	2dca <bcm2835_aux_spi_transfernb+0xea>
    2da2:	2b02      	cmp	r3, #2
    2da4:	ea4f 2110 	mov.w	r1, r0, lsr #8
    2da8:	d00c      	beq.n	2dc4 <bcm2835_aux_spi_transfernb+0xe4>
    2daa:	2b03      	cmp	r3, #3
    2dac:	4696      	mov	lr, r2
    2dae:	46b4      	mov	ip, r6
    2db0:	ea4f 4b10 	mov.w	fp, r0, lsr #16
    2db4:	bf1c      	itt	ne
    2db6:	4632      	movne	r2, r6
    2db8:	4676      	movne	r6, lr
    2dba:	d105      	bne.n	2dc8 <bcm2835_aux_spi_transfernb+0xe8>
    2dbc:	f80c bb02 	strb.w	fp, [ip], #2
    2dc0:	4616      	mov	r6, r2
    2dc2:	4662      	mov	r2, ip
    2dc4:	7031      	strb	r1, [r6, #0]
    2dc6:	1c56      	adds	r6, r2, #1
    2dc8:	7010      	strb	r0, [r2, #0]
    2dca:	4640      	mov	r0, r8
    2dcc:	1aed      	subs	r5, r5, r3
    2dce:	f7ff f961 	bl	2094 <bcm2835_peri_read>
    2dd2:	f010 0f80 	tst.w	r0, #128	; 0x80
    2dd6:	4648      	mov	r0, r9
    2dd8:	d0d7      	beq.n	2d8a <bcm2835_aux_spi_transfernb+0xaa>
    2dda:	4653      	mov	r3, sl
    2ddc:	4640      	mov	r0, r8
    2dde:	46a2      	mov	sl, r4
    2de0:	461c      	mov	r4, r3
    2de2:	f7ff f957 	bl	2094 <bcm2835_peri_read>
    2de6:	f010 0f40 	tst.w	r0, #64	; 0x40
    2dea:	4648      	mov	r0, r9
    2dec:	d125      	bne.n	2e3a <bcm2835_aux_spi_transfernb+0x15a>
    2dee:	b325      	cbz	r5, 2e3a <bcm2835_aux_spi_transfernb+0x15a>
    2df0:	f7ff f950 	bl	2094 <bcm2835_peri_read>
    2df4:	2d03      	cmp	r5, #3
    2df6:	462b      	mov	r3, r5
    2df8:	f106 0201 	add.w	r2, r6, #1
    2dfc:	bf28      	it	cs
    2dfe:	2303      	movcs	r3, #3
    2e00:	b19c      	cbz	r4, 2e2a <bcm2835_aux_spi_transfernb+0x14a>
    2e02:	2b02      	cmp	r3, #2
    2e04:	ea4f 2110 	mov.w	r1, r0, lsr #8
    2e08:	d00c      	beq.n	2e24 <bcm2835_aux_spi_transfernb+0x144>
    2e0a:	2b03      	cmp	r3, #3
    2e0c:	4696      	mov	lr, r2
    2e0e:	46b4      	mov	ip, r6
    2e10:	ea4f 4b10 	mov.w	fp, r0, lsr #16
    2e14:	bf1c      	itt	ne
    2e16:	4632      	movne	r2, r6
    2e18:	4676      	movne	r6, lr
    2e1a:	d105      	bne.n	2e28 <bcm2835_aux_spi_transfernb+0x148>
    2e1c:	f80c bb02 	strb.w	fp, [ip], #2
    2e20:	4616      	mov	r6, r2
    2e22:	4662      	mov	r2, ip
    2e24:	7031      	strb	r1, [r6, #0]
    2e26:	1c56      	adds	r6, r2, #1
    2e28:	7010      	strb	r0, [r2, #0]
    2e2a:	4640      	mov	r0, r8
    2e2c:	1aed      	subs	r5, r5, r3
    2e2e:	f7ff f931 	bl	2094 <bcm2835_peri_read>
    2e32:	f010 0f40 	tst.w	r0, #64	; 0x40
    2e36:	4648      	mov	r0, r9
    2e38:	d0d9      	beq.n	2dee <bcm2835_aux_spi_transfernb+0x10e>
    2e3a:	4623      	mov	r3, r4
    2e3c:	4654      	mov	r4, sl
    2e3e:	469a      	mov	sl, r3
    2e40:	ea57 0305 	orrs.w	r3, r7, r5
    2e44:	f47f af72 	bne.w	2d2c <bcm2835_aux_spi_transfernb+0x4c>
    2e48:	b003      	add	sp, #12
    2e4a:	e8bd 8ff0 	ldmia.w	sp!, {r4, r5, r6, r7, r8, r9, sl, fp, pc}
    2e4e:	3b08      	subs	r3, #8
    2e50:	428b      	cmp	r3, r1
    2e52:	d182      	bne.n	2d5a <bcm2835_aux_spi_transfernb+0x7a>
    2e54:	ebb7 070c 	subs.w	r7, r7, ip
    2e58:	ea40 61cc 	orr.w	r1, r0, ip, lsl #27
    2e5c:	d185      	bne.n	2d6a <bcm2835_aux_spi_transfernb+0x8a>
    2e5e:	4648      	mov	r0, r9
    2e60:	f7ff f93a 	bl	20d8 <bcm2835_peri_write>
    2e64:	4640      	mov	r0, r8
    2e66:	f7ff f915 	bl	2094 <bcm2835_peri_read>
    2e6a:	e787      	b.n	2d7c <bcm2835_aux_spi_transfernb+0x9c>
    2e6c:	00012328 	andeq	r2, r1, r8, lsr #6
    2e70:	00012366 	andeq	r2, r1, r6, ror #6

00002e74 <bcm2835_aux_spi_transfern>:
    2e74:	460a      	mov	r2, r1
    2e76:	4601      	mov	r1, r0
    2e78:	f7ff bf32 	b.w	2ce0 <bcm2835_aux_spi_transfernb>

00002e7c <bcm2835_aux_spi_transfer>:
    2e7c:	b5f8      	push	{r3, r4, r5, r6, r7, lr}
    2e7e:	2102      	movs	r1, #2
    2e80:	4b1f      	ldr	r3, [pc, #124]	; (2f00 <bcm2835_aux_spi_transfer+0x84>)
    2e82:	4607      	mov	r7, r0
    2e84:	4d1f      	ldr	r5, [pc, #124]	; (2f04 <bcm2835_aux_spi_transfer+0x88>)
    2e86:	447b      	add	r3, pc
    2e88:	447d      	add	r5, pc
    2e8a:	685e      	ldr	r6, [r3, #4]
    2e8c:	6aec      	ldr	r4, [r5, #44]	; 0x2c
    2e8e:	0536      	lsls	r6, r6, #20
    2e90:	1d20      	adds	r0, r4, #4
    2e92:	f7ff f921 	bl	20d8 <bcm2835_peri_write>
    2e96:	f446 21c1 	orr.w	r1, r6, #395264	; 0x60800
    2e9a:	4620      	mov	r0, r4
    2e9c:	f441 6189 	orr.w	r1, r1, #1096	; 0x448
    2ea0:	f7ff f91a 	bl	20d8 <bcm2835_peri_write>
    2ea4:	f895 3034 	ldrb.w	r3, [r5, #52]	; 0x34
    2ea8:	f104 0508 	add.w	r5, r4, #8
    2eac:	3420      	adds	r4, #32
    2eae:	b913      	cbnz	r3, 2eb6 <bcm2835_aux_spi_transfer+0x3a>
    2eb0:	4b15      	ldr	r3, [pc, #84]	; (2f08 <bcm2835_aux_spi_transfer+0x8c>)
    2eb2:	447b      	add	r3, pc
    2eb4:	5ddf      	ldrb	r7, [r3, r7]
    2eb6:	0639      	lsls	r1, r7, #24
    2eb8:	4620      	mov	r0, r4
    2eba:	f7ff f90d 	bl	20d8 <bcm2835_peri_write>
    2ebe:	4628      	mov	r0, r5
    2ec0:	f7ff f8e8 	bl	2094 <bcm2835_peri_read>
    2ec4:	0643      	lsls	r3, r0, #25
    2ec6:	d4fa      	bmi.n	2ebe <bcm2835_aux_spi_transfer+0x42>
    2ec8:	4620      	mov	r0, r4
    2eca:	f7ff f8e3 	bl	2094 <bcm2835_peri_read>
    2ece:	4b0f      	ldr	r3, [pc, #60]	; (2f0c <bcm2835_aux_spi_transfer+0x90>)
    2ed0:	447b      	add	r3, pc
    2ed2:	f893 3034 	ldrb.w	r3, [r3, #52]	; 0x34
    2ed6:	b2c4      	uxtb	r4, r0
    2ed8:	b91b      	cbnz	r3, 2ee2 <bcm2835_aux_spi_transfer+0x66>
    2eda:	4b0d      	ldr	r3, [pc, #52]	; (2f10 <bcm2835_aux_spi_transfer+0x94>)
    2edc:	b2c0      	uxtb	r0, r0
    2ede:	447b      	add	r3, pc
    2ee0:	5c1c      	ldrb	r4, [r3, r0]
    2ee2:	4b0c      	ldr	r3, [pc, #48]	; (2f14 <bcm2835_aux_spi_transfer+0x98>)
    2ee4:	2100      	movs	r1, #0
    2ee6:	447b      	add	r3, pc
    2ee8:	6add      	ldr	r5, [r3, #44]	; 0x2c
    2eea:	1d28      	adds	r0, r5, #4
    2eec:	f7ff f8f4 	bl	20d8 <bcm2835_peri_write>
    2ef0:	4628      	mov	r0, r5
    2ef2:	f44f 7100 	mov.w	r1, #512	; 0x200
    2ef6:	f7ff f8ef 	bl	20d8 <bcm2835_peri_write>
    2efa:	4620      	mov	r0, r4
    2efc:	bdf8      	pop	{r3, r4, r5, r6, r7, pc}
    2efe:	bf00      	nop
    2f00:	000121d6 	ldrdeq	r2, [r1], -r6
    2f04:	00012190 	muleq	r1, r0, r1
    2f08:	0000128a 	andeq	r1, r0, sl, lsl #5
    2f0c:	00012148 	andeq	r2, r1, r8, asr #2
    2f10:	0000125e 	andeq	r1, r0, lr, asr r2
    2f14:	00012132 	andeq	r2, r1, r2, lsr r1

00002f18 <bcm2835_i2c_begin>:
    2f18:	b538      	push	{r3, r4, r5, lr}
    2f1a:	4c1d      	ldr	r4, [pc, #116]	; (2f90 <bcm2835_i2c_begin+0x78>)
    2f1c:	447c      	add	r4, pc
    2f1e:	69e3      	ldr	r3, [r4, #28]
    2f20:	3301      	adds	r3, #1
    2f22:	d02e      	beq.n	2f82 <bcm2835_i2c_begin+0x6a>
    2f24:	6a25      	ldr	r5, [r4, #32]
    2f26:	1c6b      	adds	r3, r5, #1
    2f28:	d02b      	beq.n	2f82 <bcm2835_i2c_begin+0x6a>
    2f2a:	68a0      	ldr	r0, [r4, #8]
    2f2c:	f44f 72e0 	mov.w	r2, #448	; 0x1c0
    2f30:	f44f 7180 	mov.w	r1, #256	; 0x100
    2f34:	f7ff f902 	bl	213c <bcm2835_peri_set_bits>
    2f38:	68a0      	ldr	r0, [r4, #8]
    2f3a:	f44f 6260 	mov.w	r2, #3584	; 0xe00
    2f3e:	f44f 6100 	mov.w	r1, #2048	; 0x800
    2f42:	f7ff f8fb 	bl	213c <bcm2835_peri_set_bits>
    2f46:	f105 0014 	add.w	r0, r5, #20
    2f4a:	f7ff f8a3 	bl	2094 <bcm2835_peri_read>
    2f4e:	eddf 5a0e 	vldr	s11, [pc, #56]	; 2f88 <bcm2835_i2c_begin+0x70>
    2f52:	4a10      	ldr	r2, [pc, #64]	; (2f94 <bcm2835_i2c_begin+0x7c>)
    2f54:	2301      	movs	r3, #1
    2f56:	ed9f 6a0d 	vldr	s12, [pc, #52]	; 2f8c <bcm2835_i2c_begin+0x74>
    2f5a:	447a      	add	r2, pc
    2f5c:	eef2 6a02 	vmov.f32	s13, #34	; 0x41100000  9.0
    2f60:	b280      	uxth	r0, r0
    2f62:	ee07 0a90 	vmov	s15, r0
    2f66:	4618      	mov	r0, r3
    2f68:	eeb8 7a67 	vcvt.f32.u32	s14, s15
    2f6c:	eec7 7a25 	vdiv.f32	s15, s14, s11
    2f70:	ee67 7a86 	vmul.f32	s15, s15, s12
    2f74:	ee67 7aa6 	vmul.f32	s15, s15, s13
    2f78:	eefd 7ae7 	vcvt.s32.f32	s15, s15
    2f7c:	edc2 7a02 	vstr	s15, [r2, #8]
    2f80:	bd38      	pop	{r3, r4, r5, pc}
    2f82:	2300      	movs	r3, #0
    2f84:	4618      	mov	r0, r3
    2f86:	bd38      	pop	{r3, r4, r5, pc}
    2f88:	4d6e6b28 	vstmdbmi	lr!, {d22-<overflow reg d41>}
    2f8c:	49742400 	ldmdbmi	r4!, {sl, sp}^
    2f90:	000120fc 	strdeq	r2, [r1], -ip
    2f94:	00012102 	andeq	r2, r1, r2, lsl #2

00002f98 <bcm2835_i2c_end>:
    2f98:	b510      	push	{r4, lr}
    2f9a:	f44f 72e0 	mov.w	r2, #448	; 0x1c0
    2f9e:	4c07      	ldr	r4, [pc, #28]	; (2fbc <bcm2835_i2c_end+0x24>)
    2fa0:	2100      	movs	r1, #0
    2fa2:	447c      	add	r4, pc
    2fa4:	68a0      	ldr	r0, [r4, #8]
    2fa6:	f7ff f8c9 	bl	213c <bcm2835_peri_set_bits>
    2faa:	68a0      	ldr	r0, [r4, #8]
    2fac:	f44f 6260 	mov.w	r2, #3584	; 0xe00
    2fb0:	2100      	movs	r1, #0
    2fb2:	e8bd 4010 	ldmia.w	sp!, {r4, lr}
    2fb6:	f7ff b8c1 	b.w	213c <bcm2835_peri_set_bits>
    2fba:	bf00      	nop
    2fbc:	00012076 	andeq	r2, r1, r6, ror r0

00002fc0 <bcm2835_i2c_setSlaveAddress>:
    2fc0:	4b03      	ldr	r3, [pc, #12]	; (2fd0 <bcm2835_i2c_setSlaveAddress+0x10>)
    2fc2:	4601      	mov	r1, r0
    2fc4:	447b      	add	r3, pc
    2fc6:	6a18      	ldr	r0, [r3, #32]
    2fc8:	300c      	adds	r0, #12
    2fca:	f7ff b885 	b.w	20d8 <bcm2835_peri_write>
    2fce:	bf00      	nop
    2fd0:	00012054 	andeq	r2, r1, r4, asr r0

00002fd4 <bcm2835_i2c_setClockDivider>:
    2fd4:	4b13      	ldr	r3, [pc, #76]	; (3024 <bcm2835_i2c_setClockDivider+0x50>)
    2fd6:	4601      	mov	r1, r0
    2fd8:	b500      	push	{lr}
    2fda:	447b      	add	r3, pc
    2fdc:	b083      	sub	sp, #12
    2fde:	9001      	str	r0, [sp, #4]
    2fe0:	6a18      	ldr	r0, [r3, #32]
    2fe2:	3014      	adds	r0, #20
    2fe4:	f7ff f878 	bl	20d8 <bcm2835_peri_write>
    2fe8:	eddd 7a01 	vldr	s15, [sp, #4]
    2fec:	4b0e      	ldr	r3, [pc, #56]	; (3028 <bcm2835_i2c_setClockDivider+0x54>)
    2fee:	ed9f 6a0b 	vldr	s12, [pc, #44]	; 301c <bcm2835_i2c_setClockDivider+0x48>
    2ff2:	447b      	add	r3, pc
    2ff4:	eeb8 7a67 	vcvt.f32.u32	s14, s15
    2ff8:	eddf 6a09 	vldr	s13, [pc, #36]	; 3020 <bcm2835_i2c_setClockDivider+0x4c>
    2ffc:	eec7 7a06 	vdiv.f32	s15, s14, s12
    3000:	eeb2 7a02 	vmov.f32	s14, #34	; 0x41100000  9.0
    3004:	ee67 7aa6 	vmul.f32	s15, s15, s13
    3008:	ee67 7a87 	vmul.f32	s15, s15, s14
    300c:	eefd 7ae7 	vcvt.s32.f32	s15, s15
    3010:	edc3 7a02 	vstr	s15, [r3, #8]
    3014:	b003      	add	sp, #12
    3016:	f85d fb04 	ldr.w	pc, [sp], #4
    301a:	bf00      	nop
    301c:	4d6e6b28 	vstmdbmi	lr!, {d22-<overflow reg d41>}
    3020:	49742400 	ldmdbmi	r4!, {sl, sp}^
    3024:	0001203e 	andeq	r2, r1, lr, lsr r0
    3028:	0001206a 	andeq	r2, r1, sl, rrx

0000302c <bcm2835_i2c_set_baudrate>:
    302c:	b508      	push	{r3, lr}
    302e:	4601      	mov	r1, r0
    3030:	f24b 2080 	movw	r0, #45696	; 0xb280
    3034:	f6c0 60e6 	movt	r0, #3814	; 0xee6
    3038:	f7fd eb7e 	blx	738 <__aeabi_uidiv@plt>
    303c:	f64f 73fe 	movw	r3, #65534	; 0xfffe
    3040:	4018      	ands	r0, r3
    3042:	e8bd 4008 	ldmia.w	sp!, {r3, lr}
    3046:	f7ff bfc5 	b.w	2fd4 <bcm2835_i2c_setClockDivider>
    304a:	bf00      	nop

0000304c <bcm2835_i2c_write>:
    304c:	e92d 4ff8 	stmdb	sp!, {r3, r4, r5, r6, r7, r8, r9, sl, fp, lr}
    3050:	2220      	movs	r2, #32
    3052:	4b3a      	ldr	r3, [pc, #232]	; (313c <bcm2835_i2c_write+0xf0>)
    3054:	460c      	mov	r4, r1
    3056:	4682      	mov	sl, r0
    3058:	4611      	mov	r1, r2
    305a:	447b      	add	r3, pc
    305c:	4625      	mov	r5, r4
    305e:	f8d3 9020 	ldr.w	r9, [r3, #32]
    3062:	f109 0704 	add.w	r7, r9, #4
    3066:	f109 0810 	add.w	r8, r9, #16
    306a:	4648      	mov	r0, r9
    306c:	f7ff f866 	bl	213c <bcm2835_peri_set_bits>
    3070:	4638      	mov	r0, r7
    3072:	f240 3102 	movw	r1, #770	; 0x302
    3076:	f7ff f82f 	bl	20d8 <bcm2835_peri_write>
    307a:	4621      	mov	r1, r4
    307c:	f109 0008 	add.w	r0, r9, #8
    3080:	f7ff f82a 	bl	20d8 <bcm2835_peri_write>
    3084:	b1f4      	cbz	r4, 30c4 <bcm2835_i2c_write+0x78>
    3086:	f8df b0b8 	ldr.w	fp, [pc, #184]	; 3140 <bcm2835_i2c_write+0xf4>
    308a:	f10a 36ff 	add.w	r6, sl, #4294967295
    308e:	2500      	movs	r5, #0
    3090:	44fb      	add	fp, pc
    3092:	e00d      	b.n	30b0 <bcm2835_i2c_write+0x64>
    3094:	f8c9 1010 	str.w	r1, [r9, #16]
    3098:	3c01      	subs	r4, #1
    309a:	f105 0501 	add.w	r5, r5, #1
    309e:	bf14      	ite	ne
    30a0:	2301      	movne	r3, #1
    30a2:	2300      	moveq	r3, #0
    30a4:	2d0f      	cmp	r5, #15
    30a6:	bf8c      	ite	hi
    30a8:	2300      	movhi	r3, #0
    30aa:	f003 0301 	andls.w	r3, r3, #1
    30ae:	b14b      	cbz	r3, 30c4 <bcm2835_i2c_write+0x78>
    30b0:	f89b 3000 	ldrb.w	r3, [fp]
    30b4:	f816 1f01 	ldrb.w	r1, [r6, #1]!
    30b8:	2b00      	cmp	r3, #0
    30ba:	d0eb      	beq.n	3094 <bcm2835_i2c_write+0x48>
    30bc:	4640      	mov	r0, r8
    30be:	f7fe ff3f 	bl	1f40 <bcm2835_peri_write_nb.part.4>
    30c2:	e7e9      	b.n	3098 <bcm2835_i2c_write+0x4c>
    30c4:	f248 0180 	movw	r1, #32896	; 0x8080
    30c8:	4648      	mov	r0, r9
    30ca:	f7ff f805 	bl	20d8 <bcm2835_peri_write>
    30ce:	4638      	mov	r0, r7
    30d0:	f7fe ffe0 	bl	2094 <bcm2835_peri_read>
    30d4:	0781      	lsls	r1, r0, #30
    30d6:	d416      	bmi.n	3106 <bcm2835_i2c_write+0xba>
    30d8:	2c00      	cmp	r4, #0
    30da:	d0f8      	beq.n	30ce <bcm2835_i2c_write+0x82>
    30dc:	1e6e      	subs	r6, r5, #1
    30de:	4456      	add	r6, sl
    30e0:	4638      	mov	r0, r7
    30e2:	f7fe ffd7 	bl	2094 <bcm2835_peri_read>
    30e6:	f010 0f10 	tst.w	r0, #16
    30ea:	4640      	mov	r0, r8
    30ec:	d0ef      	beq.n	30ce <bcm2835_i2c_write+0x82>
    30ee:	f816 1f01 	ldrb.w	r1, [r6, #1]!
    30f2:	3501      	adds	r5, #1
    30f4:	f7fe fff0 	bl	20d8 <bcm2835_peri_write>
    30f8:	3c01      	subs	r4, #1
    30fa:	d1f1      	bne.n	30e0 <bcm2835_i2c_write+0x94>
    30fc:	4638      	mov	r0, r7
    30fe:	f7fe ffc9 	bl	2094 <bcm2835_peri_read>
    3102:	0781      	lsls	r1, r0, #30
    3104:	d5e8      	bpl.n	30d8 <bcm2835_i2c_write+0x8c>
    3106:	4638      	mov	r0, r7
    3108:	f7fe ffc4 	bl	2094 <bcm2835_peri_read>
    310c:	05c2      	lsls	r2, r0, #23
    310e:	bf48      	it	mi
    3110:	2401      	movmi	r4, #1
    3112:	d507      	bpl.n	3124 <bcm2835_i2c_write+0xd8>
    3114:	2202      	movs	r2, #2
    3116:	4648      	mov	r0, r9
    3118:	4611      	mov	r1, r2
    311a:	f7ff f80f 	bl	213c <bcm2835_peri_set_bits>
    311e:	4620      	mov	r0, r4
    3120:	e8bd 8ff8 	ldmia.w	sp!, {r3, r4, r5, r6, r7, r8, r9, sl, fp, pc}
    3124:	4638      	mov	r0, r7
    3126:	f7fe ffb5 	bl	2094 <bcm2835_peri_read>
    312a:	0583      	lsls	r3, r0, #22
    312c:	bf48      	it	mi
    312e:	2402      	movmi	r4, #2
    3130:	d4f0      	bmi.n	3114 <bcm2835_i2c_write+0xc8>
    3132:	2c00      	cmp	r4, #0
    3134:	bf0c      	ite	eq
    3136:	2400      	moveq	r4, #0
    3138:	2404      	movne	r4, #4
    313a:	e7eb      	b.n	3114 <bcm2835_i2c_write+0xc8>
    313c:	00011fbe 			; <UNDEFINED> instruction: 0x00011fbe
    3140:	00011fcc 	andeq	r1, r1, ip, asr #31

00003144 <bcm2835_i2c_read>:
    3144:	4b5b      	ldr	r3, [pc, #364]	; (32b4 <bcm2835_i2c_read+0x170>)
    3146:	2220      	movs	r2, #32
    3148:	e92d 4ff0 	stmdb	sp!, {r4, r5, r6, r7, r8, r9, sl, fp, lr}
    314c:	447b      	add	r3, pc
    314e:	4d5a      	ldr	r5, [pc, #360]	; (32b8 <bcm2835_i2c_read+0x174>)
    3150:	b083      	sub	sp, #12
    3152:	f8d3 b020 	ldr.w	fp, [r3, #32]
    3156:	4680      	mov	r8, r0
    3158:	447d      	add	r5, pc
    315a:	460c      	mov	r4, r1
    315c:	4611      	mov	r1, r2
    315e:	f10b 0910 	add.w	r9, fp, #16
    3162:	4658      	mov	r0, fp
    3164:	f10b 0704 	add.w	r7, fp, #4
    3168:	f7fe ffe8 	bl	213c <bcm2835_peri_set_bits>
    316c:	782b      	ldrb	r3, [r5, #0]
    316e:	2b00      	cmp	r3, #0
    3170:	f040 8086 	bne.w	3280 <bcm2835_i2c_read+0x13c>
    3174:	f240 3302 	movw	r3, #770	; 0x302
    3178:	f8cb 3004 	str.w	r3, [fp, #4]
    317c:	f8cb 4008 	str.w	r4, [fp, #8]
    3180:	2300      	movs	r3, #0
    3182:	f248 0281 	movw	r2, #32897	; 0x8081
    3186:	f8cb 2000 	str.w	r2, [fp]
    318a:	4e4c      	ldr	r6, [pc, #304]	; (32bc <bcm2835_i2c_read+0x178>)
    318c:	f04f 0a00 	mov.w	sl, #0
    3190:	4a4b      	ldr	r2, [pc, #300]	; (32c0 <bcm2835_i2c_read+0x17c>)
    3192:	447e      	add	r6, pc
    3194:	447a      	add	r2, pc
    3196:	9201      	str	r2, [sp, #4]
    3198:	b34b      	cbz	r3, 31ee <bcm2835_i2c_read+0xaa>
    319a:	4638      	mov	r0, r7
    319c:	f7fe fec4 	bl	1f28 <bcm2835_peri_read_nb.part.2>
    31a0:	0780      	lsls	r0, r0, #30
    31a2:	d428      	bmi.n	31f6 <bcm2835_i2c_read+0xb2>
    31a4:	9b01      	ldr	r3, [sp, #4]
    31a6:	781b      	ldrb	r3, [r3, #0]
    31a8:	2c00      	cmp	r4, #0
    31aa:	d0f5      	beq.n	3198 <bcm2835_i2c_read+0x54>
    31ac:	f10a 35ff 	add.w	r5, sl, #4294967295
    31b0:	4445      	add	r5, r8
    31b2:	b973      	cbnz	r3, 31d2 <bcm2835_i2c_read+0x8e>
    31b4:	f8db 3004 	ldr.w	r3, [fp, #4]
    31b8:	069b      	lsls	r3, r3, #26
    31ba:	d518      	bpl.n	31ee <bcm2835_i2c_read+0xaa>
    31bc:	f8db 0010 	ldr.w	r0, [fp, #16]
    31c0:	2300      	movs	r3, #0
    31c2:	3c01      	subs	r4, #1
    31c4:	f10a 0a01 	add.w	sl, sl, #1
    31c8:	f805 0f01 	strb.w	r0, [r5, #1]!
    31cc:	d0e4      	beq.n	3198 <bcm2835_i2c_read+0x54>
    31ce:	2b00      	cmp	r3, #0
    31d0:	d0f0      	beq.n	31b4 <bcm2835_i2c_read+0x70>
    31d2:	4638      	mov	r0, r7
    31d4:	f7fe fea8 	bl	1f28 <bcm2835_peri_read_nb.part.2>
    31d8:	f010 0f20 	tst.w	r0, #32
    31dc:	4648      	mov	r0, r9
    31de:	d03f      	beq.n	3260 <bcm2835_i2c_read+0x11c>
    31e0:	7833      	ldrb	r3, [r6, #0]
    31e2:	2b00      	cmp	r3, #0
    31e4:	d0ea      	beq.n	31bc <bcm2835_i2c_read+0x78>
    31e6:	f7fe fe9f 	bl	1f28 <bcm2835_peri_read_nb.part.2>
    31ea:	7833      	ldrb	r3, [r6, #0]
    31ec:	e7e9      	b.n	31c2 <bcm2835_i2c_read+0x7e>
    31ee:	f8db 0004 	ldr.w	r0, [fp, #4]
    31f2:	0780      	lsls	r0, r0, #30
    31f4:	d5d6      	bpl.n	31a4 <bcm2835_i2c_read+0x60>
    31f6:	b314      	cbz	r4, 323e <bcm2835_i2c_read+0xfa>
    31f8:	4d32      	ldr	r5, [pc, #200]	; (32c4 <bcm2835_i2c_read+0x180>)
    31fa:	f10a 32ff 	add.w	r2, sl, #4294967295
    31fe:	4490      	add	r8, r2
    3200:	447d      	add	r5, pc
    3202:	e009      	b.n	3218 <bcm2835_i2c_read+0xd4>
    3204:	f8db 3004 	ldr.w	r3, [fp, #4]
    3208:	0699      	lsls	r1, r3, #26
    320a:	d519      	bpl.n	3240 <bcm2835_i2c_read+0xfc>
    320c:	f8db 0010 	ldr.w	r0, [fp, #16]
    3210:	3c01      	subs	r4, #1
    3212:	f808 0f01 	strb.w	r0, [r8, #1]!
    3216:	d012      	beq.n	323e <bcm2835_i2c_read+0xfa>
    3218:	782b      	ldrb	r3, [r5, #0]
    321a:	2b00      	cmp	r3, #0
    321c:	d0f2      	beq.n	3204 <bcm2835_i2c_read+0xc0>
    321e:	4638      	mov	r0, r7
    3220:	f7fe fe82 	bl	1f28 <bcm2835_peri_read_nb.part.2>
    3224:	f010 0f20 	tst.w	r0, #32
    3228:	4648      	mov	r0, r9
    322a:	d009      	beq.n	3240 <bcm2835_i2c_read+0xfc>
    322c:	782b      	ldrb	r3, [r5, #0]
    322e:	2b00      	cmp	r3, #0
    3230:	d0ec      	beq.n	320c <bcm2835_i2c_read+0xc8>
    3232:	f7fe fe79 	bl	1f28 <bcm2835_peri_read_nb.part.2>
    3236:	3c01      	subs	r4, #1
    3238:	f808 0f01 	strb.w	r0, [r8, #1]!
    323c:	d1ec      	bne.n	3218 <bcm2835_i2c_read+0xd4>
    323e:	2400      	movs	r4, #0
    3240:	4638      	mov	r0, r7
    3242:	f7fe ff27 	bl	2094 <bcm2835_peri_read>
    3246:	05c2      	lsls	r2, r0, #23
    3248:	bf48      	it	mi
    324a:	2401      	movmi	r4, #1
    324c:	d50c      	bpl.n	3268 <bcm2835_i2c_read+0x124>
    324e:	2202      	movs	r2, #2
    3250:	4638      	mov	r0, r7
    3252:	4611      	mov	r1, r2
    3254:	f7fe ff72 	bl	213c <bcm2835_peri_set_bits>
    3258:	4620      	mov	r0, r4
    325a:	b003      	add	sp, #12
    325c:	e8bd 8ff0 	ldmia.w	sp!, {r4, r5, r6, r7, r8, r9, sl, fp, pc}
    3260:	4b19      	ldr	r3, [pc, #100]	; (32c8 <bcm2835_i2c_read+0x184>)
    3262:	447b      	add	r3, pc
    3264:	781b      	ldrb	r3, [r3, #0]
    3266:	e797      	b.n	3198 <bcm2835_i2c_read+0x54>
    3268:	4638      	mov	r0, r7
    326a:	f7fe ff13 	bl	2094 <bcm2835_peri_read>
    326e:	0583      	lsls	r3, r0, #22
    3270:	bf48      	it	mi
    3272:	2402      	movmi	r4, #2
    3274:	d4eb      	bmi.n	324e <bcm2835_i2c_read+0x10a>
    3276:	2c00      	cmp	r4, #0
    3278:	bf14      	ite	ne
    327a:	2404      	movne	r4, #4
    327c:	2400      	moveq	r4, #0
    327e:	e7e6      	b.n	324e <bcm2835_i2c_read+0x10a>
    3280:	f240 3102 	movw	r1, #770	; 0x302
    3284:	4638      	mov	r0, r7
    3286:	f7fe fe5b 	bl	1f40 <bcm2835_peri_write_nb.part.4>
    328a:	782b      	ldrb	r3, [r5, #0]
    328c:	2b00      	cmp	r3, #0
    328e:	f43f af75 	beq.w	317c <bcm2835_i2c_read+0x38>
    3292:	4621      	mov	r1, r4
    3294:	f10b 0008 	add.w	r0, fp, #8
    3298:	f7fe fe52 	bl	1f40 <bcm2835_peri_write_nb.part.4>
    329c:	782b      	ldrb	r3, [r5, #0]
    329e:	2b00      	cmp	r3, #0
    32a0:	f43f af6e 	beq.w	3180 <bcm2835_i2c_read+0x3c>
    32a4:	f248 0181 	movw	r1, #32897	; 0x8081
    32a8:	4658      	mov	r0, fp
    32aa:	f7fe fe49 	bl	1f40 <bcm2835_peri_write_nb.part.4>
    32ae:	782b      	ldrb	r3, [r5, #0]
    32b0:	e76b      	b.n	318a <bcm2835_i2c_read+0x46>
    32b2:	bf00      	nop
    32b4:	00011ecc 	andeq	r1, r1, ip, asr #29
    32b8:	00011f04 	andeq	r1, r1, r4, lsl #30
    32bc:	00011eca 	andeq	r1, r1, sl, asr #29
    32c0:	00011ec8 	andeq	r1, r1, r8, asr #29
    32c4:	00011e5c 	andeq	r1, r1, ip, asr lr
    32c8:	00011dfa 	strdeq	r1, [r1], -sl

000032cc <bcm2835_smi_begin>:
    32cc:	b510      	push	{r4, lr}
    32ce:	4c61      	ldr	r4, [pc, #388]	; (3454 <bcm2835_smi_begin+0x188>)
    32d0:	447c      	add	r4, pc
    32d2:	6b23      	ldr	r3, [r4, #48]	; 0x30
    32d4:	3301      	adds	r3, #1
    32d6:	bf08      	it	eq
    32d8:	2000      	moveq	r0, #0
    32da:	f000 80ba 	beq.w	3452 <bcm2835_smi_begin+0x186>
    32de:	f44f 72e0 	mov.w	r2, #448	; 0x1c0
    32e2:	f44f 71a0 	mov.w	r1, #320	; 0x140
    32e6:	68a0      	ldr	r0, [r4, #8]
    32e8:	f7fe ff28 	bl	213c <bcm2835_peri_set_bits>
    32ec:	f44f 6260 	mov.w	r2, #3584	; 0xe00
    32f0:	f44f 6120 	mov.w	r1, #2560	; 0xa00
    32f4:	68a0      	ldr	r0, [r4, #8]
    32f6:	f7fe ff21 	bl	213c <bcm2835_peri_set_bits>
    32fa:	f44f 42e0 	mov.w	r2, #28672	; 0x7000
    32fe:	f44f 41a0 	mov.w	r1, #20480	; 0x5000
    3302:	68a0      	ldr	r0, [r4, #8]
    3304:	f7fe ff1a 	bl	213c <bcm2835_peri_set_bits>
    3308:	f44f 3260 	mov.w	r2, #229376	; 0x38000
    330c:	f44f 3120 	mov.w	r1, #163840	; 0x28000
    3310:	68a0      	ldr	r0, [r4, #8]
    3312:	f7fe ff13 	bl	213c <bcm2835_peri_set_bits>
    3316:	f44f 12e0 	mov.w	r2, #1835008	; 0x1c0000
    331a:	f44f 11a0 	mov.w	r1, #1310720	; 0x140000
    331e:	68a0      	ldr	r0, [r4, #8]
    3320:	f7fe ff0c 	bl	213c <bcm2835_peri_set_bits>
    3324:	f44f 0260 	mov.w	r2, #14680064	; 0xe00000
    3328:	f44f 0120 	mov.w	r1, #10485760	; 0xa00000
    332c:	68a0      	ldr	r0, [r4, #8]
    332e:	f7fe ff05 	bl	213c <bcm2835_peri_set_bits>
    3332:	f04f 62e0 	mov.w	r2, #117440512	; 0x7000000
    3336:	f04f 61a0 	mov.w	r1, #83886080	; 0x5000000
    333a:	68a0      	ldr	r0, [r4, #8]
    333c:	f7fe fefe 	bl	213c <bcm2835_peri_set_bits>
    3340:	f04f 5260 	mov.w	r2, #939524096	; 0x38000000
    3344:	f04f 5120 	mov.w	r1, #671088640	; 0x28000000
    3348:	68a0      	ldr	r0, [r4, #8]
    334a:	f7fe fef7 	bl	213c <bcm2835_peri_set_bits>
    334e:	68a0      	ldr	r0, [r4, #8]
    3350:	2207      	movs	r2, #7
    3352:	2105      	movs	r1, #5
    3354:	3004      	adds	r0, #4
    3356:	f7fe fef1 	bl	213c <bcm2835_peri_set_bits>
    335a:	68a0      	ldr	r0, [r4, #8]
    335c:	2238      	movs	r2, #56	; 0x38
    335e:	2128      	movs	r1, #40	; 0x28
    3360:	3004      	adds	r0, #4
    3362:	f7fe feeb 	bl	213c <bcm2835_peri_set_bits>
    3366:	68a0      	ldr	r0, [r4, #8]
    3368:	f44f 72e0 	mov.w	r2, #448	; 0x1c0
    336c:	f44f 71a0 	mov.w	r1, #320	; 0x140
    3370:	3004      	adds	r0, #4
    3372:	f7fe fee3 	bl	213c <bcm2835_peri_set_bits>
    3376:	68a0      	ldr	r0, [r4, #8]
    3378:	f44f 6260 	mov.w	r2, #3584	; 0xe00
    337c:	f44f 6120 	mov.w	r1, #2560	; 0xa00
    3380:	3004      	adds	r0, #4
    3382:	f7fe fedb 	bl	213c <bcm2835_peri_set_bits>
    3386:	68a0      	ldr	r0, [r4, #8]
    3388:	f44f 42e0 	mov.w	r2, #28672	; 0x7000
    338c:	f44f 41a0 	mov.w	r1, #20480	; 0x5000
    3390:	3004      	adds	r0, #4
    3392:	f7fe fed3 	bl	213c <bcm2835_peri_set_bits>
    3396:	68a0      	ldr	r0, [r4, #8]
    3398:	f44f 3260 	mov.w	r2, #229376	; 0x38000
    339c:	f44f 3120 	mov.w	r1, #163840	; 0x28000
    33a0:	3004      	adds	r0, #4
    33a2:	f7fe fecb 	bl	213c <bcm2835_peri_set_bits>
    33a6:	6920      	ldr	r0, [r4, #16]
    33a8:	f04f 41b4 	mov.w	r1, #1509949440	; 0x5a000000
    33ac:	30b0      	adds	r0, #176	; 0xb0
    33ae:	f7fe fe93 	bl	20d8 <bcm2835_peri_write>
    33b2:	6920      	ldr	r0, [r4, #16]
    33b4:	f44f 4180 	mov.w	r1, #16384	; 0x4000
    33b8:	f6c5 2100 	movt	r1, #23040	; 0x5a00
    33bc:	30b4      	adds	r0, #180	; 0xb4
    33be:	f7fe fe8b 	bl	20d8 <bcm2835_peri_write>
    33c2:	6920      	ldr	r0, [r4, #16]
    33c4:	2116      	movs	r1, #22
    33c6:	f6c5 2100 	movt	r1, #23040	; 0x5a00
    33ca:	30b0      	adds	r0, #176	; 0xb0
    33cc:	f7fe fe84 	bl	20d8 <bcm2835_peri_write>
    33d0:	6b20      	ldr	r0, [r4, #48]	; 0x30
    33d2:	f248 1114 	movw	r1, #33044	; 0x8114
    33d6:	f6c0 2114 	movt	r1, #2580	; 0xa14
    33da:	3010      	adds	r0, #16
    33dc:	f7fe fe7c 	bl	20d8 <bcm2835_peri_write>
    33e0:	6b20      	ldr	r0, [r4, #48]	; 0x30
    33e2:	f248 1114 	movw	r1, #33044	; 0x8114
    33e6:	f6c0 2114 	movt	r1, #2580	; 0xa14
    33ea:	3014      	adds	r0, #20
    33ec:	f7fe fe74 	bl	20d8 <bcm2835_peri_write>
    33f0:	6b20      	ldr	r0, [r4, #48]	; 0x30
    33f2:	f248 1114 	movw	r1, #33044	; 0x8114
    33f6:	f6c0 2114 	movt	r1, #2580	; 0xa14
    33fa:	3018      	adds	r0, #24
    33fc:	f7fe fe6c 	bl	20d8 <bcm2835_peri_write>
    3400:	6b20      	ldr	r0, [r4, #48]	; 0x30
    3402:	f248 1114 	movw	r1, #33044	; 0x8114
    3406:	f6c0 2114 	movt	r1, #2580	; 0xa14
    340a:	301c      	adds	r0, #28
    340c:	f7fe fe64 	bl	20d8 <bcm2835_peri_write>
    3410:	6b20      	ldr	r0, [r4, #48]	; 0x30
    3412:	f248 1114 	movw	r1, #33044	; 0x8114
    3416:	f6c0 2114 	movt	r1, #2580	; 0xa14
    341a:	3020      	adds	r0, #32
    341c:	f7fe fe5c 	bl	20d8 <bcm2835_peri_write>
    3420:	6b20      	ldr	r0, [r4, #48]	; 0x30
    3422:	f248 1114 	movw	r1, #33044	; 0x8114
    3426:	f6c0 2114 	movt	r1, #2580	; 0xa14
    342a:	3024      	adds	r0, #36	; 0x24
    342c:	f7fe fe54 	bl	20d8 <bcm2835_peri_write>
    3430:	6b20      	ldr	r0, [r4, #48]	; 0x30
    3432:	f248 1114 	movw	r1, #33044	; 0x8114
    3436:	f6c0 2114 	movt	r1, #2580	; 0xa14
    343a:	3028      	adds	r0, #40	; 0x28
    343c:	f7fe fe4c 	bl	20d8 <bcm2835_peri_write>
    3440:	6b20      	ldr	r0, [r4, #48]	; 0x30
    3442:	f248 1114 	movw	r1, #33044	; 0x8114
    3446:	f6c0 2114 	movt	r1, #2580	; 0xa14
    344a:	302c      	adds	r0, #44	; 0x2c
    344c:	f7fe fe44 	bl	20d8 <bcm2835_peri_write>
    3450:	2001      	movs	r0, #1
    3452:	bd10      	pop	{r4, pc}
    3454:	00011d48 	andeq	r1, r1, r8, asr #26

00003458 <bcm2835_smi_end>:
    3458:	b510      	push	{r4, lr}
    345a:	f44f 72e0 	mov.w	r2, #448	; 0x1c0
    345e:	4c2d      	ldr	r4, [pc, #180]	; (3514 <bcm2835_smi_end+0xbc>)
    3460:	2100      	movs	r1, #0
    3462:	447c      	add	r4, pc
    3464:	68a0      	ldr	r0, [r4, #8]
    3466:	f7fe fe69 	bl	213c <bcm2835_peri_set_bits>
    346a:	68a0      	ldr	r0, [r4, #8]
    346c:	f44f 6260 	mov.w	r2, #3584	; 0xe00
    3470:	2100      	movs	r1, #0
    3472:	f7fe fe63 	bl	213c <bcm2835_peri_set_bits>
    3476:	68a0      	ldr	r0, [r4, #8]
    3478:	f44f 42e0 	mov.w	r2, #28672	; 0x7000
    347c:	2100      	movs	r1, #0
    347e:	f7fe fe5d 	bl	213c <bcm2835_peri_set_bits>
    3482:	68a0      	ldr	r0, [r4, #8]
    3484:	f44f 3260 	mov.w	r2, #229376	; 0x38000
    3488:	2100      	movs	r1, #0
    348a:	f7fe fe57 	bl	213c <bcm2835_peri_set_bits>
    348e:	68a0      	ldr	r0, [r4, #8]
    3490:	f44f 12e0 	mov.w	r2, #1835008	; 0x1c0000
    3494:	2100      	movs	r1, #0
    3496:	f7fe fe51 	bl	213c <bcm2835_peri_set_bits>
    349a:	68a0      	ldr	r0, [r4, #8]
    349c:	f44f 0260 	mov.w	r2, #14680064	; 0xe00000
    34a0:	2100      	movs	r1, #0
    34a2:	f7fe fe4b 	bl	213c <bcm2835_peri_set_bits>
    34a6:	68a0      	ldr	r0, [r4, #8]
    34a8:	f04f 62e0 	mov.w	r2, #117440512	; 0x7000000
    34ac:	2100      	movs	r1, #0
    34ae:	f7fe fe45 	bl	213c <bcm2835_peri_set_bits>
    34b2:	68a0      	ldr	r0, [r4, #8]
    34b4:	f04f 5260 	mov.w	r2, #939524096	; 0x38000000
    34b8:	2100      	movs	r1, #0
    34ba:	f7fe fe3f 	bl	213c <bcm2835_peri_set_bits>
    34be:	68a0      	ldr	r0, [r4, #8]
    34c0:	2207      	movs	r2, #7
    34c2:	2100      	movs	r1, #0
    34c4:	3004      	adds	r0, #4
    34c6:	f7fe fe39 	bl	213c <bcm2835_peri_set_bits>
    34ca:	68a0      	ldr	r0, [r4, #8]
    34cc:	2238      	movs	r2, #56	; 0x38
    34ce:	2100      	movs	r1, #0
    34d0:	3004      	adds	r0, #4
    34d2:	f7fe fe33 	bl	213c <bcm2835_peri_set_bits>
    34d6:	68a0      	ldr	r0, [r4, #8]
    34d8:	f44f 72e0 	mov.w	r2, #448	; 0x1c0
    34dc:	2100      	movs	r1, #0
    34de:	3004      	adds	r0, #4
    34e0:	f7fe fe2c 	bl	213c <bcm2835_peri_set_bits>
    34e4:	68a0      	ldr	r0, [r4, #8]
    34e6:	f44f 6260 	mov.w	r2, #3584	; 0xe00
    34ea:	2100      	movs	r1, #0
    34ec:	3004      	adds	r0, #4
    34ee:	f7fe fe25 	bl	213c <bcm2835_peri_set_bits>
    34f2:	68a0      	ldr	r0, [r4, #8]
    34f4:	f44f 42e0 	mov.w	r2, #28672	; 0x7000
    34f8:	2100      	movs	r1, #0
    34fa:	3004      	adds	r0, #4
    34fc:	f7fe fe1e 	bl	213c <bcm2835_peri_set_bits>
    3500:	68a0      	ldr	r0, [r4, #8]
    3502:	f44f 3260 	mov.w	r2, #229376	; 0x38000
    3506:	2100      	movs	r1, #0
    3508:	3004      	adds	r0, #4
    350a:	e8bd 4010 	ldmia.w	sp!, {r4, lr}
    350e:	f7fe be15 	b.w	213c <bcm2835_peri_set_bits>
    3512:	bf00      	nop
    3514:	00011bb6 			; <UNDEFINED> instruction: 0x00011bb6

00003518 <bcm2835_smi_set_timing>:
    3518:	e92d 41f0 	stmdb	sp!, {r4, r5, r6, r7, r8, lr}
    351c:	e9dd 8706 	ldrd	r8, r7, [sp, #24]
    3520:	b129      	cbz	r1, 352e <bcm2835_smi_set_timing+0x16>
    3522:	2803      	cmp	r0, #3
    3524:	d809      	bhi.n	353a <bcm2835_smi_set_timing+0x22>
    3526:	e8df f000 	tbb	[pc, r0]
    352a:	2f2d2529 	svccs	0x002d2529
    352e:	2803      	cmp	r0, #3
    3530:	d803      	bhi.n	353a <bcm2835_smi_set_timing+0x22>
    3532:	e8df f000 	tbb	[pc, r0]
    3536:	2125042b 			; <UNDEFINED> instruction: 0x2125042b
    353a:	e8bd 81f0 	ldmia.w	sp!, {r4, r5, r6, r7, r8, pc}
    353e:	211c      	movs	r1, #28
    3540:	461c      	mov	r4, r3
    3542:	4b13      	ldr	r3, [pc, #76]	; (3590 <bcm2835_smi_set_timing+0x78>)
    3544:	4616      	mov	r6, r2
    3546:	447b      	add	r3, pc
    3548:	6b1d      	ldr	r5, [r3, #48]	; 0x30
    354a:	440d      	add	r5, r1
    354c:	4628      	mov	r0, r5
    354e:	f7fe fda1 	bl	2094 <bcm2835_peri_read>
    3552:	ea44 4308 	orr.w	r3, r4, r8, lsl #16
    3556:	ea43 2307 	orr.w	r3, r3, r7, lsl #8
    355a:	f248 0180 	movw	r1, #32896	; 0x8080
    355e:	f2cc 01c0 	movt	r1, #49344	; 0xc0c0
    3562:	ea43 6306 	orr.w	r3, r3, r6, lsl #24
    3566:	4001      	ands	r1, r0
    3568:	4628      	mov	r0, r5
    356a:	4319      	orrs	r1, r3
    356c:	e8bd 41f0 	ldmia.w	sp!, {r4, r5, r6, r7, r8, lr}
    3570:	f7fe bdb2 	b.w	20d8 <bcm2835_peri_write>
    3574:	2118      	movs	r1, #24
    3576:	e7e3      	b.n	3540 <bcm2835_smi_set_timing+0x28>
    3578:	212c      	movs	r1, #44	; 0x2c
    357a:	e7e1      	b.n	3540 <bcm2835_smi_set_timing+0x28>
    357c:	2110      	movs	r1, #16
    357e:	e7df      	b.n	3540 <bcm2835_smi_set_timing+0x28>
    3580:	2124      	movs	r1, #36	; 0x24
    3582:	e7dd      	b.n	3540 <bcm2835_smi_set_timing+0x28>
    3584:	2120      	movs	r1, #32
    3586:	e7db      	b.n	3540 <bcm2835_smi_set_timing+0x28>
    3588:	2128      	movs	r1, #40	; 0x28
    358a:	e7d9      	b.n	3540 <bcm2835_smi_set_timing+0x28>
    358c:	2114      	movs	r1, #20
    358e:	e7d7      	b.n	3540 <bcm2835_smi_set_timing+0x28>
    3590:	00011ad2 	ldrdeq	r1, [r1], -r2

00003594 <bcm2835_smi_write>:
    3594:	2803      	cmp	r0, #3
    3596:	d900      	bls.n	359a <bcm2835_smi_write+0x6>
    3598:	4770      	bx	lr
    359a:	4b18      	ldr	r3, [pc, #96]	; (35fc <bcm2835_smi_write+0x68>)
    359c:	e92d 41f0 	stmdb	sp!, {r4, r5, r6, r7, r8, lr}
    35a0:	447b      	add	r3, pc
    35a2:	4605      	mov	r5, r0
    35a4:	4616      	mov	r6, r2
    35a6:	f8d3 8030 	ldr.w	r8, [r3, #48]	; 0x30
    35aa:	460f      	mov	r7, r1
    35ac:	f108 0434 	add.w	r4, r8, #52	; 0x34
    35b0:	4620      	mov	r0, r4
    35b2:	f7fe fd6f 	bl	2094 <bcm2835_peri_read>
    35b6:	0742      	lsls	r2, r0, #29
    35b8:	d41b      	bmi.n	35f2 <bcm2835_smi_write+0x5e>
    35ba:	f006 013f 	and.w	r1, r6, #63	; 0x3f
    35be:	f108 0038 	add.w	r0, r8, #56	; 0x38
    35c2:	ea41 2105 	orr.w	r1, r1, r5, lsl #8
    35c6:	f7fe fd87 	bl	20d8 <bcm2835_peri_write>
    35ca:	4639      	mov	r1, r7
    35cc:	f108 003c 	add.w	r0, r8, #60	; 0x3c
    35d0:	f7fe fd82 	bl	20d8 <bcm2835_peri_write>
    35d4:	210b      	movs	r1, #11
    35d6:	4620      	mov	r0, r4
    35d8:	f7fe fd7e 	bl	20d8 <bcm2835_peri_write>
    35dc:	4620      	mov	r0, r4
    35de:	f7fe fd59 	bl	2094 <bcm2835_peri_read>
    35e2:	0743      	lsls	r3, r0, #29
    35e4:	d5fa      	bpl.n	35dc <bcm2835_smi_write+0x48>
    35e6:	4620      	mov	r0, r4
    35e8:	2104      	movs	r1, #4
    35ea:	e8bd 41f0 	ldmia.w	sp!, {r4, r5, r6, r7, r8, lr}
    35ee:	f7fe bd73 	b.w	20d8 <bcm2835_peri_write>
    35f2:	2104      	movs	r1, #4
    35f4:	4620      	mov	r0, r4
    35f6:	f7fe fd6f 	bl	20d8 <bcm2835_peri_write>
    35fa:	e7de      	b.n	35ba <bcm2835_smi_write+0x26>
    35fc:	00011a78 	andeq	r1, r1, r8, ror sl

00003600 <bcm2835_smi_read>:
    3600:	2803      	cmp	r0, #3
    3602:	b5f8      	push	{r3, r4, r5, r6, r7, lr}
    3604:	bf88      	it	hi
    3606:	2500      	movhi	r5, #0
    3608:	d901      	bls.n	360e <bcm2835_smi_read+0xe>
    360a:	4628      	mov	r0, r5
    360c:	bdf8      	pop	{r3, r4, r5, r6, r7, pc}
    360e:	4b16      	ldr	r3, [pc, #88]	; (3668 <bcm2835_smi_read+0x68>)
    3610:	4605      	mov	r5, r0
    3612:	460e      	mov	r6, r1
    3614:	447b      	add	r3, pc
    3616:	6b1f      	ldr	r7, [r3, #48]	; 0x30
    3618:	f107 0434 	add.w	r4, r7, #52	; 0x34
    361c:	4620      	mov	r0, r4
    361e:	f7fe fd39 	bl	2094 <bcm2835_peri_read>
    3622:	0742      	lsls	r2, r0, #29
    3624:	d41b      	bmi.n	365e <bcm2835_smi_read+0x5e>
    3626:	f006 013f 	and.w	r1, r6, #63	; 0x3f
    362a:	f107 0038 	add.w	r0, r7, #56	; 0x38
    362e:	ea41 2105 	orr.w	r1, r1, r5, lsl #8
    3632:	f7fe fd51 	bl	20d8 <bcm2835_peri_write>
    3636:	2103      	movs	r1, #3
    3638:	4620      	mov	r0, r4
    363a:	f7fe fd4d 	bl	20d8 <bcm2835_peri_write>
    363e:	4620      	mov	r0, r4
    3640:	f7fe fd28 	bl	2094 <bcm2835_peri_read>
    3644:	0743      	lsls	r3, r0, #29
    3646:	d5fa      	bpl.n	363e <bcm2835_smi_read+0x3e>
    3648:	f107 003c 	add.w	r0, r7, #60	; 0x3c
    364c:	f7fe fd22 	bl	2094 <bcm2835_peri_read>
    3650:	2104      	movs	r1, #4
    3652:	4605      	mov	r5, r0
    3654:	4620      	mov	r0, r4
    3656:	f7fe fd3f 	bl	20d8 <bcm2835_peri_write>
    365a:	4628      	mov	r0, r5
    365c:	bdf8      	pop	{r3, r4, r5, r6, r7, pc}
    365e:	2104      	movs	r1, #4
    3660:	4620      	mov	r0, r4
    3662:	f7fe fd39 	bl	20d8 <bcm2835_peri_write>
    3666:	e7de      	b.n	3626 <bcm2835_smi_read+0x26>
    3668:	00011a04 	andeq	r1, r1, r4, lsl #20

0000366c <bcm2835_st_read>:
    366c:	b570      	push	{r4, r5, r6, lr}
    366e:	4c17      	ldr	r4, [pc, #92]	; (36cc <bcm2835_st_read+0x60>)
    3670:	447c      	add	r4, pc
    3672:	6a60      	ldr	r0, [r4, #36]	; 0x24
    3674:	1c43      	adds	r3, r0, #1
    3676:	bf04      	itt	eq
    3678:	2300      	moveq	r3, #0
    367a:	2400      	moveq	r4, #0
    367c:	d01a      	beq.n	36b4 <bcm2835_st_read+0x48>
    367e:	3008      	adds	r0, #8
    3680:	f7fe fd08 	bl	2094 <bcm2835_peri_read>
    3684:	4605      	mov	r5, r0
    3686:	6a60      	ldr	r0, [r4, #36]	; 0x24
    3688:	3004      	adds	r0, #4
    368a:	f7fe fd03 	bl	2094 <bcm2835_peri_read>
    368e:	4606      	mov	r6, r0
    3690:	6a60      	ldr	r0, [r4, #36]	; 0x24
    3692:	3008      	adds	r0, #8
    3694:	f7fe fcfe 	bl	2094 <bcm2835_peri_read>
    3698:	42a8      	cmp	r0, r5
    369a:	4603      	mov	r3, r0
    369c:	d00d      	beq.n	36ba <bcm2835_st_read+0x4e>
    369e:	6a60      	ldr	r0, [r4, #36]	; 0x24
    36a0:	461d      	mov	r5, r3
    36a2:	2400      	movs	r4, #0
    36a4:	3004      	adds	r0, #4
    36a6:	f7fe fcf5 	bl	2094 <bcm2835_peri_read>
    36aa:	1822      	adds	r2, r4, r0
    36ac:	f145 0300 	adc.w	r3, r5, #0
    36b0:	461c      	mov	r4, r3
    36b2:	4613      	mov	r3, r2
    36b4:	4618      	mov	r0, r3
    36b6:	4621      	mov	r1, r4
    36b8:	bd70      	pop	{r4, r5, r6, pc}
    36ba:	4619      	mov	r1, r3
    36bc:	2000      	movs	r0, #0
    36be:	1983      	adds	r3, r0, r6
    36c0:	f141 0400 	adc.w	r4, r1, #0
    36c4:	4618      	mov	r0, r3
    36c6:	4621      	mov	r1, r4
    36c8:	bd70      	pop	{r4, r5, r6, pc}
    36ca:	bf00      	nop
    36cc:	000119a8 	andeq	r1, r1, r8, lsr #19

000036d0 <bcm2835_delayMicroseconds>:
    36d0:	4b2c      	ldr	r3, [pc, #176]	; (3784 <bcm2835_delayMicroseconds+0xb4>)
    36d2:	e92d 4ff0 	stmdb	sp!, {r4, r5, r6, r7, r8, r9, sl, fp, lr}
    36d6:	460f      	mov	r7, r1
    36d8:	492b      	ldr	r1, [pc, #172]	; (3788 <bcm2835_delayMicroseconds+0xb8>)
    36da:	447b      	add	r3, pc
    36dc:	4a2b      	ldr	r2, [pc, #172]	; (378c <bcm2835_delayMicroseconds+0xbc>)
    36de:	b085      	sub	sp, #20
    36e0:	4606      	mov	r6, r0
    36e2:	f853 8001 	ldr.w	r8, [r3, r1]
    36e6:	447a      	add	r2, pc
    36e8:	f892 9000 	ldrb.w	r9, [r2]
    36ec:	f8d8 3000 	ldr.w	r3, [r8]
    36f0:	9303      	str	r3, [sp, #12]
    36f2:	f1b9 0f00 	cmp.w	r9, #0
    36f6:	d00e      	beq.n	3716 <bcm2835_delayMicroseconds+0x46>
    36f8:	4925      	ldr	r1, [pc, #148]	; (3790 <bcm2835_delayMicroseconds+0xc0>)
    36fa:	4602      	mov	r2, r0
    36fc:	463b      	mov	r3, r7
    36fe:	2001      	movs	r0, #1
    3700:	4479      	add	r1, pc
    3702:	f7fd e882 	blx	808 <__printf_chk@plt+0x4>
    3706:	9a03      	ldr	r2, [sp, #12]
    3708:	f8d8 3000 	ldr.w	r3, [r8]
    370c:	429a      	cmp	r2, r3
    370e:	d137      	bne.n	3780 <bcm2835_delayMicroseconds+0xb0>
    3710:	b005      	add	sp, #20
    3712:	e8bd 8ff0 	ldmia.w	sp!, {r4, r5, r6, r7, r8, r9, sl, fp, pc}
    3716:	f7ff ffa9 	bl	366c <bcm2835_st_read>
    371a:	4682      	mov	sl, r0
    371c:	468b      	mov	fp, r1
    371e:	ea5a 030b 	orrs.w	r3, sl, fp
    3722:	d011      	beq.n	3748 <bcm2835_delayMicroseconds+0x78>
    3724:	2300      	movs	r3, #0
    3726:	42bb      	cmp	r3, r7
    3728:	f44f 72e1 	mov.w	r2, #450	; 0x1c2
    372c:	bf08      	it	eq
    372e:	42b2      	cmpeq	r2, r6
    3730:	d316      	bcc.n	3760 <bcm2835_delayMicroseconds+0x90>
    3732:	eb1a 0406 	adds.w	r4, sl, r6
    3736:	eb4b 0507 	adc.w	r5, fp, r7
    373a:	f7ff ff97 	bl	366c <bcm2835_st_read>
    373e:	42a9      	cmp	r1, r5
    3740:	bf08      	it	eq
    3742:	42a0      	cmpeq	r0, r4
    3744:	d3f9      	bcc.n	373a <bcm2835_delayMicroseconds+0x6a>
    3746:	e7de      	b.n	3706 <bcm2835_delayMicroseconds+0x36>
    3748:	f44f 727a 	mov.w	r2, #1000	; 0x3e8
    374c:	4649      	mov	r1, r9
    374e:	fb02 f606 	mul.w	r6, r2, r6
    3752:	a801      	add	r0, sp, #4
    3754:	f8cd 9004 	str.w	r9, [sp, #4]
    3758:	9602      	str	r6, [sp, #8]
    375a:	f7fd e806 	blx	768 <nanosleep@plt>
    375e:	e7d2      	b.n	3706 <bcm2835_delayMicroseconds+0x36>
    3760:	f44f 737a 	mov.w	r3, #1000	; 0x3e8
    3764:	4649      	mov	r1, r9
    3766:	fb03 f306 	mul.w	r3, r3, r6
    376a:	a801      	add	r0, sp, #4
    376c:	f8cd 9004 	str.w	r9, [sp, #4]
    3770:	f5a3 3343 	sub.w	r3, r3, #199680	; 0x30c00
    3774:	f5a3 73a0 	sub.w	r3, r3, #320	; 0x140
    3778:	9302      	str	r3, [sp, #8]
    377a:	f7fc eff6 	blx	768 <nanosleep@plt>
    377e:	e7d8      	b.n	3732 <bcm2835_delayMicroseconds+0x62>
    3780:	f7fc effe 	blx	780 <__stack_chk_fail@plt>
    3784:	00011896 	muleq	r1, r6, r8
    3788:	00000074 	andeq	r0, r0, r4, ror r0
    378c:	00011976 	andeq	r1, r1, r6, ror r9
    3790:	00000c00 	andeq	r0, r0, r0, lsl #24

00003794 <bcm2835_gpio_set_pud>:
    3794:	e92d 43f8 	stmdb	sp!, {r3, r4, r5, r6, r7, r8, r9, lr}
    3798:	4604      	mov	r4, r0
    379a:	4d2d      	ldr	r5, [pc, #180]	; (3850 <bcm2835_gpio_set_pud+0xbc>)
    379c:	447d      	add	r5, pc
    379e:	786e      	ldrb	r6, [r5, #1]
    37a0:	b31e      	cbz	r6, 37ea <bcm2835_gpio_set_pud+0x56>
    37a2:	2901      	cmp	r1, #1
    37a4:	ea4f 0340 	mov.w	r3, r0, lsl #1
    37a8:	f003 031e 	and.w	r3, r3, #30
    37ac:	d037      	beq.n	381e <bcm2835_gpio_set_pud+0x8a>
    37ae:	d334      	bcc.n	381a <bcm2835_gpio_set_pud+0x86>
    37b0:	2902      	cmp	r1, #2
    37b2:	bf04      	itt	eq
    37b4:	2601      	moveq	r6, #1
    37b6:	409e      	lsleq	r6, r3
    37b8:	d115      	bne.n	37e6 <bcm2835_gpio_set_pud+0x52>
    37ba:	4f26      	ldr	r7, [pc, #152]	; (3854 <bcm2835_gpio_set_pud+0xc0>)
    37bc:	0924      	lsrs	r4, r4, #4
    37be:	4a26      	ldr	r2, [pc, #152]	; (3858 <bcm2835_gpio_set_pud+0xc4>)
    37c0:	2003      	movs	r0, #3
    37c2:	447f      	add	r7, pc
    37c4:	3439      	adds	r4, #57	; 0x39
    37c6:	447a      	add	r2, pc
    37c8:	4098      	lsls	r0, r3
    37ca:	7839      	ldrb	r1, [r7, #0]
    37cc:	f8d2 8008 	ldr.w	r8, [r2, #8]
    37d0:	43c5      	mvns	r5, r0
    37d2:	eb08 0984 	add.w	r9, r8, r4, lsl #2
    37d6:	bb29      	cbnz	r1, 3824 <bcm2835_gpio_set_pud+0x90>
    37d8:	f858 0024 	ldr.w	r0, [r8, r4, lsl #2]
    37dc:	4028      	ands	r0, r5
    37de:	ea46 0100 	orr.w	r1, r6, r0
    37e2:	f848 1024 	str.w	r1, [r8, r4, lsl #2]
    37e6:	e8bd 83f8 	ldmia.w	sp!, {r3, r4, r5, r6, r7, r8, r9, pc}
    37ea:	4608      	mov	r0, r1
    37ec:	f7fe fc8e 	bl	210c <bcm2835_gpio_pud.part.5>
    37f0:	200a      	movs	r0, #10
    37f2:	2100      	movs	r1, #0
    37f4:	f7ff ff6c 	bl	36d0 <bcm2835_delayMicroseconds>
    37f8:	2101      	movs	r1, #1
    37fa:	4620      	mov	r0, r4
    37fc:	f000 f82e 	bl	385c <bcm2835_gpio_pudclk>
    3800:	200a      	movs	r0, #10
    3802:	2100      	movs	r1, #0
    3804:	f7ff ff64 	bl	36d0 <bcm2835_delayMicroseconds>
    3808:	7868      	ldrb	r0, [r5, #1]
    380a:	b1c8      	cbz	r0, 3840 <bcm2835_gpio_set_pud+0xac>
    380c:	70ae      	strb	r6, [r5, #2]
    380e:	4620      	mov	r0, r4
    3810:	2100      	movs	r1, #0
    3812:	e8bd 43f8 	ldmia.w	sp!, {r3, r4, r5, r6, r7, r8, r9, lr}
    3816:	f000 b821 	b.w	385c <bcm2835_gpio_pudclk>
    381a:	2600      	movs	r6, #0
    381c:	e7cd      	b.n	37ba <bcm2835_gpio_set_pud+0x26>
    381e:	2602      	movs	r6, #2
    3820:	409e      	lsls	r6, r3
    3822:	e7ca      	b.n	37ba <bcm2835_gpio_set_pud+0x26>
    3824:	4648      	mov	r0, r9
    3826:	f7fe fb7f 	bl	1f28 <bcm2835_peri_read_nb.part.2>
    382a:	783b      	ldrb	r3, [r7, #0]
    382c:	4028      	ands	r0, r5
    382e:	ea46 0100 	orr.w	r1, r6, r0
    3832:	2b00      	cmp	r3, #0
    3834:	d0d5      	beq.n	37e2 <bcm2835_gpio_set_pud+0x4e>
    3836:	4648      	mov	r0, r9
    3838:	e8bd 43f8 	ldmia.w	sp!, {r3, r4, r5, r6, r7, r8, r9, lr}
    383c:	f7fe bb80 	b.w	1f40 <bcm2835_peri_write_nb.part.4>
    3840:	f7fe fc64 	bl	210c <bcm2835_gpio_pud.part.5>
    3844:	4620      	mov	r0, r4
    3846:	2100      	movs	r1, #0
    3848:	e8bd 43f8 	ldmia.w	sp!, {r3, r4, r5, r6, r7, r8, r9, lr}
    384c:	f000 b806 	b.w	385c <bcm2835_gpio_pudclk>
    3850:	000118c0 	andeq	r1, r1, r0, asr #17
    3854:	0001189a 	muleq	r1, sl, r8
    3858:	00011852 	andeq	r1, r1, r2, asr r8

0000385c <bcm2835_gpio_pudclk>:
    385c:	4a10      	ldr	r2, [pc, #64]	; (38a0 <bcm2835_gpio_pudclk+0x44>)
    385e:	b410      	push	{r4}
    3860:	447a      	add	r2, pc
    3862:	7854      	ldrb	r4, [r2, #1]
    3864:	b144      	cbz	r4, 3878 <bcm2835_gpio_pudclk+0x1c>
    3866:	b911      	cbnz	r1, 386e <bcm2835_gpio_pudclk+0x12>
    3868:	f85d 4b04 	ldr.w	r4, [sp], #4
    386c:	4770      	bx	lr
    386e:	7891      	ldrb	r1, [r2, #2]
    3870:	f85d 4b04 	ldr.w	r4, [sp], #4
    3874:	f7ff bf8e 	b.w	3794 <bcm2835_gpio_set_pud>
    3878:	4603      	mov	r3, r0
    387a:	480a      	ldr	r0, [pc, #40]	; (38a4 <bcm2835_gpio_pudclk+0x48>)
    387c:	095a      	lsrs	r2, r3, #5
    387e:	3100      	adds	r1, #0
    3880:	4478      	add	r0, pc
    3882:	f102 0226 	add.w	r2, r2, #38	; 0x26
    3886:	bf18      	it	ne
    3888:	2101      	movne	r1, #1
    388a:	f003 031f 	and.w	r3, r3, #31
    388e:	6880      	ldr	r0, [r0, #8]
    3890:	4099      	lsls	r1, r3
    3892:	f85d 4b04 	ldr.w	r4, [sp], #4
    3896:	eb00 0082 	add.w	r0, r0, r2, lsl #2
    389a:	f7fe bc1d 	b.w	20d8 <bcm2835_peri_write>
    389e:	bf00      	nop
    38a0:	000117fc 	strdeq	r1, [r1], -ip
    38a4:	00011798 	muleq	r1, r8, r7

000038a8 <bcm2835_i2c_read_register_rs>:
    38a8:	4b49      	ldr	r3, [pc, #292]	; (39d0 <bcm2835_i2c_read_register_rs+0x128>)
    38aa:	e92d 47f0 	stmdb	sp!, {r4, r5, r6, r7, r8, r9, sl, lr}
    38ae:	447b      	add	r3, pc
    38b0:	4614      	mov	r4, r2
    38b2:	2220      	movs	r2, #32
    38b4:	f8d3 a020 	ldr.w	sl, [r3, #32]
    38b8:	4606      	mov	r6, r0
    38ba:	4689      	mov	r9, r1
    38bc:	4611      	mov	r1, r2
    38be:	f10a 0704 	add.w	r7, sl, #4
    38c2:	f10a 0508 	add.w	r5, sl, #8
    38c6:	4650      	mov	r0, sl
    38c8:	f10a 0810 	add.w	r8, sl, #16
    38cc:	f7fe fc36 	bl	213c <bcm2835_peri_set_bits>
    38d0:	4638      	mov	r0, r7
    38d2:	f240 3102 	movw	r1, #770	; 0x302
    38d6:	f7fe fbff 	bl	20d8 <bcm2835_peri_write>
    38da:	4628      	mov	r0, r5
    38dc:	2101      	movs	r1, #1
    38de:	f7fe fbfb 	bl	20d8 <bcm2835_peri_write>
    38e2:	4650      	mov	r0, sl
    38e4:	f44f 4100 	mov.w	r1, #32768	; 0x8000
    38e8:	f7fe fbf6 	bl	20d8 <bcm2835_peri_write>
    38ec:	7831      	ldrb	r1, [r6, #0]
    38ee:	4640      	mov	r0, r8
    38f0:	f7fe fbf2 	bl	20d8 <bcm2835_peri_write>
    38f4:	4650      	mov	r0, sl
    38f6:	f248 0180 	movw	r1, #32896	; 0x8080
    38fa:	f7fe fbed 	bl	20d8 <bcm2835_peri_write>
    38fe:	e003      	b.n	3908 <bcm2835_i2c_read_register_rs+0x60>
    3900:	f7fe fbc8 	bl	2094 <bcm2835_peri_read>
    3904:	0780      	lsls	r0, r0, #30
    3906:	d406      	bmi.n	3916 <bcm2835_i2c_read_register_rs+0x6e>
    3908:	4638      	mov	r0, r7
    390a:	f7fe fbc3 	bl	2094 <bcm2835_peri_read>
    390e:	f010 0f01 	tst.w	r0, #1
    3912:	4638      	mov	r0, r7
    3914:	d0f4      	beq.n	3900 <bcm2835_i2c_read_register_rs+0x58>
    3916:	4628      	mov	r0, r5
    3918:	4621      	mov	r1, r4
    391a:	f7fe fbdd 	bl	20d8 <bcm2835_peri_write>
    391e:	f248 0181 	movw	r1, #32897	; 0x8081
    3922:	4650      	mov	r0, sl
    3924:	2600      	movs	r6, #0
    3926:	f7fe fbd7 	bl	20d8 <bcm2835_peri_write>
    392a:	4b2a      	ldr	r3, [pc, #168]	; (39d4 <bcm2835_i2c_read_register_rs+0x12c>)
    392c:	447b      	add	r3, pc
    392e:	6898      	ldr	r0, [r3, #8]
    3930:	eb00 0040 	add.w	r0, r0, r0, lsl #1
    3934:	17c1      	asrs	r1, r0, #31
    3936:	f7ff fecb 	bl	36d0 <bcm2835_delayMicroseconds>
    393a:	4638      	mov	r0, r7
    393c:	f7fe fbaa 	bl	2094 <bcm2835_peri_read>
    3940:	0781      	lsls	r1, r0, #30
    3942:	d417      	bmi.n	3974 <bcm2835_i2c_read_register_rs+0xcc>
    3944:	2c00      	cmp	r4, #0
    3946:	d0f8      	beq.n	393a <bcm2835_i2c_read_register_rs+0x92>
    3948:	1e75      	subs	r5, r6, #1
    394a:	444d      	add	r5, r9
    394c:	4638      	mov	r0, r7
    394e:	f7fe fba1 	bl	2094 <bcm2835_peri_read>
    3952:	f010 0f20 	tst.w	r0, #32
    3956:	4640      	mov	r0, r8
    3958:	d0ef      	beq.n	393a <bcm2835_i2c_read_register_rs+0x92>
    395a:	f7fe fb9b 	bl	2094 <bcm2835_peri_read>
    395e:	3c01      	subs	r4, #1
    3960:	f106 0601 	add.w	r6, r6, #1
    3964:	f805 0f01 	strb.w	r0, [r5, #1]!
    3968:	d1f0      	bne.n	394c <bcm2835_i2c_read_register_rs+0xa4>
    396a:	4638      	mov	r0, r7
    396c:	f7fe fb92 	bl	2094 <bcm2835_peri_read>
    3970:	0781      	lsls	r1, r0, #30
    3972:	d5e7      	bpl.n	3944 <bcm2835_i2c_read_register_rs+0x9c>
    3974:	b1f4      	cbz	r4, 39b4 <bcm2835_i2c_read_register_rs+0x10c>
    3976:	3e01      	subs	r6, #1
    3978:	444e      	add	r6, r9
    397a:	e005      	b.n	3988 <bcm2835_i2c_read_register_rs+0xe0>
    397c:	f7fe fb8a 	bl	2094 <bcm2835_peri_read>
    3980:	3c01      	subs	r4, #1
    3982:	f806 0f01 	strb.w	r0, [r6, #1]!
    3986:	d015      	beq.n	39b4 <bcm2835_i2c_read_register_rs+0x10c>
    3988:	4638      	mov	r0, r7
    398a:	f7fe fb83 	bl	2094 <bcm2835_peri_read>
    398e:	f010 0f20 	tst.w	r0, #32
    3992:	4640      	mov	r0, r8
    3994:	d1f2      	bne.n	397c <bcm2835_i2c_read_register_rs+0xd4>
    3996:	4638      	mov	r0, r7
    3998:	f7fe fb7c 	bl	2094 <bcm2835_peri_read>
    399c:	05c2      	lsls	r2, r0, #23
    399e:	bf48      	it	mi
    39a0:	2401      	movmi	r4, #1
    39a2:	d509      	bpl.n	39b8 <bcm2835_i2c_read_register_rs+0x110>
    39a4:	2202      	movs	r2, #2
    39a6:	4650      	mov	r0, sl
    39a8:	4611      	mov	r1, r2
    39aa:	f7fe fbc7 	bl	213c <bcm2835_peri_set_bits>
    39ae:	4620      	mov	r0, r4
    39b0:	e8bd 87f0 	ldmia.w	sp!, {r4, r5, r6, r7, r8, r9, sl, pc}
    39b4:	2400      	movs	r4, #0
    39b6:	e7ee      	b.n	3996 <bcm2835_i2c_read_register_rs+0xee>
    39b8:	4638      	mov	r0, r7
    39ba:	f7fe fb6b 	bl	2094 <bcm2835_peri_read>
    39be:	0583      	lsls	r3, r0, #22
    39c0:	bf48      	it	mi
    39c2:	2402      	movmi	r4, #2
    39c4:	d4ee      	bmi.n	39a4 <bcm2835_i2c_read_register_rs+0xfc>
    39c6:	2c00      	cmp	r4, #0
    39c8:	bf0c      	ite	eq
    39ca:	2400      	moveq	r4, #0
    39cc:	2404      	movne	r4, #4
    39ce:	e7e9      	b.n	39a4 <bcm2835_i2c_read_register_rs+0xfc>
    39d0:	0001176a 	andeq	r1, r1, sl, ror #14
    39d4:	00011730 	andeq	r1, r1, r0, lsr r7

000039d8 <bcm2835_i2c_write_read_rs>:
    39d8:	e92d 4ff0 	stmdb	sp!, {r4, r5, r6, r7, r8, r9, sl, fp, lr}
    39dc:	b083      	sub	sp, #12
    39de:	4c61      	ldr	r4, [pc, #388]	; (3b64 <bcm2835_i2c_write_read_rs+0x18c>)
    39e0:	460e      	mov	r6, r1
    39e2:	9200      	str	r2, [sp, #0]
    39e4:	2220      	movs	r2, #32
    39e6:	447c      	add	r4, pc
    39e8:	4611      	mov	r1, r2
    39ea:	4681      	mov	r9, r0
    39ec:	f8d4 8020 	ldr.w	r8, [r4, #32]
    39f0:	461c      	mov	r4, r3
    39f2:	f108 0704 	add.w	r7, r8, #4
    39f6:	f108 0308 	add.w	r3, r8, #8
    39fa:	4640      	mov	r0, r8
    39fc:	9301      	str	r3, [sp, #4]
    39fe:	461d      	mov	r5, r3
    3a00:	f7fe fb9c 	bl	213c <bcm2835_peri_set_bits>
    3a04:	4638      	mov	r0, r7
    3a06:	f240 3102 	movw	r1, #770	; 0x302
    3a0a:	f7fe fb65 	bl	20d8 <bcm2835_peri_write>
    3a0e:	4631      	mov	r1, r6
    3a10:	4628      	mov	r0, r5
    3a12:	f108 0a10 	add.w	sl, r8, #16
    3a16:	f7fe fb5f 	bl	20d8 <bcm2835_peri_write>
    3a1a:	b1d6      	cbz	r6, 3a52 <bcm2835_i2c_write_read_rs+0x7a>
    3a1c:	f8df b148 	ldr.w	fp, [pc, #328]	; 3b68 <bcm2835_i2c_write_read_rs+0x190>
    3a20:	f109 39ff 	add.w	r9, r9, #4294967295
    3a24:	2500      	movs	r5, #0
    3a26:	44fb      	add	fp, pc
    3a28:	e009      	b.n	3a3e <bcm2835_i2c_write_read_rs+0x66>
    3a2a:	f8c8 1010 	str.w	r1, [r8, #16]
    3a2e:	3501      	adds	r5, #1
    3a30:	1b72      	subs	r2, r6, r5
    3a32:	bf18      	it	ne
    3a34:	2201      	movne	r2, #1
    3a36:	2d0f      	cmp	r5, #15
    3a38:	bf88      	it	hi
    3a3a:	2200      	movhi	r2, #0
    3a3c:	b14a      	cbz	r2, 3a52 <bcm2835_i2c_write_read_rs+0x7a>
    3a3e:	f89b 2000 	ldrb.w	r2, [fp]
    3a42:	f819 1f01 	ldrb.w	r1, [r9, #1]!
    3a46:	2a00      	cmp	r2, #0
    3a48:	d0ef      	beq.n	3a2a <bcm2835_i2c_write_read_rs+0x52>
    3a4a:	4650      	mov	r0, sl
    3a4c:	f7fe fa78 	bl	1f40 <bcm2835_peri_write_nb.part.4>
    3a50:	e7ed      	b.n	3a2e <bcm2835_i2c_write_read_rs+0x56>
    3a52:	4d46      	ldr	r5, [pc, #280]	; (3b6c <bcm2835_i2c_write_read_rs+0x194>)
    3a54:	f248 0180 	movw	r1, #32896	; 0x8080
    3a58:	4640      	mov	r0, r8
    3a5a:	f7fe fb3d 	bl	20d8 <bcm2835_peri_write>
    3a5e:	447d      	add	r5, pc
    3a60:	e003      	b.n	3a6a <bcm2835_i2c_write_read_rs+0x92>
    3a62:	f8d8 0004 	ldr.w	r0, [r8, #4]
    3a66:	0782      	lsls	r2, r0, #30
    3a68:	d40c      	bmi.n	3a84 <bcm2835_i2c_write_read_rs+0xac>
    3a6a:	4638      	mov	r0, r7
    3a6c:	f7fe fb12 	bl	2094 <bcm2835_peri_read>
    3a70:	07c3      	lsls	r3, r0, #31
    3a72:	d407      	bmi.n	3a84 <bcm2835_i2c_write_read_rs+0xac>
    3a74:	782b      	ldrb	r3, [r5, #0]
    3a76:	2b00      	cmp	r3, #0
    3a78:	d0f3      	beq.n	3a62 <bcm2835_i2c_write_read_rs+0x8a>
    3a7a:	4638      	mov	r0, r7
    3a7c:	f7fe fa54 	bl	1f28 <bcm2835_peri_read_nb.part.2>
    3a80:	0782      	lsls	r2, r0, #30
    3a82:	d5f2      	bpl.n	3a6a <bcm2835_i2c_write_read_rs+0x92>
    3a84:	f8df b0e8 	ldr.w	fp, [pc, #232]	; 3b70 <bcm2835_i2c_write_read_rs+0x198>
    3a88:	4621      	mov	r1, r4
    3a8a:	9801      	ldr	r0, [sp, #4]
    3a8c:	44fb      	add	fp, pc
    3a8e:	f7fe fb23 	bl	20d8 <bcm2835_peri_write>
    3a92:	f248 0181 	movw	r1, #32897	; 0x8081
    3a96:	4640      	mov	r0, r8
    3a98:	f7fe fb1e 	bl	20d8 <bcm2835_peri_write>
    3a9c:	f8db 0008 	ldr.w	r0, [fp, #8]
    3aa0:	2100      	movs	r1, #0
    3aa2:	f8df 90d0 	ldr.w	r9, [pc, #208]	; 3b74 <bcm2835_i2c_write_read_rs+0x19c>
    3aa6:	fb06 0000 	mla	r0, r6, r0, r0
    3aaa:	f7ff fe11 	bl	36d0 <bcm2835_delayMicroseconds>
    3aae:	44f9      	add	r9, pc
    3ab0:	2600      	movs	r6, #0
    3ab2:	f89b 3000 	ldrb.w	r3, [fp]
    3ab6:	b9f3      	cbnz	r3, 3af6 <bcm2835_i2c_write_read_rs+0x11e>
    3ab8:	f8d8 0004 	ldr.w	r0, [r8, #4]
    3abc:	0781      	lsls	r1, r0, #30
    3abe:	d41f      	bmi.n	3b00 <bcm2835_i2c_write_read_rs+0x128>
    3ac0:	2c00      	cmp	r4, #0
    3ac2:	d0f6      	beq.n	3ab2 <bcm2835_i2c_write_read_rs+0xda>
    3ac4:	9b00      	ldr	r3, [sp, #0]
    3ac6:	1e75      	subs	r5, r6, #1
    3ac8:	441d      	add	r5, r3
    3aca:	e007      	b.n	3adc <bcm2835_i2c_write_read_rs+0x104>
    3acc:	f8d8 0010 	ldr.w	r0, [r8, #16]
    3ad0:	3c01      	subs	r4, #1
    3ad2:	f106 0601 	add.w	r6, r6, #1
    3ad6:	f805 0f01 	strb.w	r0, [r5, #1]!
    3ada:	d0ea      	beq.n	3ab2 <bcm2835_i2c_write_read_rs+0xda>
    3adc:	4638      	mov	r0, r7
    3ade:	f7fe fad9 	bl	2094 <bcm2835_peri_read>
    3ae2:	0680      	lsls	r0, r0, #26
    3ae4:	d5e5      	bpl.n	3ab2 <bcm2835_i2c_write_read_rs+0xda>
    3ae6:	f899 3000 	ldrb.w	r3, [r9]
    3aea:	2b00      	cmp	r3, #0
    3aec:	d0ee      	beq.n	3acc <bcm2835_i2c_write_read_rs+0xf4>
    3aee:	4650      	mov	r0, sl
    3af0:	f7fe fa1a 	bl	1f28 <bcm2835_peri_read_nb.part.2>
    3af4:	e7ec      	b.n	3ad0 <bcm2835_i2c_write_read_rs+0xf8>
    3af6:	4638      	mov	r0, r7
    3af8:	f7fe fa16 	bl	1f28 <bcm2835_peri_read_nb.part.2>
    3afc:	0781      	lsls	r1, r0, #30
    3afe:	d5df      	bpl.n	3ac0 <bcm2835_i2c_write_read_rs+0xe8>
    3b00:	b30c      	cbz	r4, 3b46 <bcm2835_i2c_write_read_rs+0x16e>
    3b02:	9b00      	ldr	r3, [sp, #0]
    3b04:	3e01      	subs	r6, #1
    3b06:	4433      	add	r3, r6
    3b08:	461e      	mov	r6, r3
    3b0a:	e005      	b.n	3b18 <bcm2835_i2c_write_read_rs+0x140>
    3b0c:	f7fe fac2 	bl	2094 <bcm2835_peri_read>
    3b10:	3c01      	subs	r4, #1
    3b12:	f806 0f01 	strb.w	r0, [r6, #1]!
    3b16:	d016      	beq.n	3b46 <bcm2835_i2c_write_read_rs+0x16e>
    3b18:	4638      	mov	r0, r7
    3b1a:	f7fe fabb 	bl	2094 <bcm2835_peri_read>
    3b1e:	f010 0f20 	tst.w	r0, #32
    3b22:	4650      	mov	r0, sl
    3b24:	d1f2      	bne.n	3b0c <bcm2835_i2c_write_read_rs+0x134>
    3b26:	4638      	mov	r0, r7
    3b28:	f7fe fab4 	bl	2094 <bcm2835_peri_read>
    3b2c:	05c2      	lsls	r2, r0, #23
    3b2e:	bf48      	it	mi
    3b30:	2401      	movmi	r4, #1
    3b32:	d50a      	bpl.n	3b4a <bcm2835_i2c_write_read_rs+0x172>
    3b34:	2202      	movs	r2, #2
    3b36:	4640      	mov	r0, r8
    3b38:	4611      	mov	r1, r2
    3b3a:	f7fe faff 	bl	213c <bcm2835_peri_set_bits>
    3b3e:	4620      	mov	r0, r4
    3b40:	b003      	add	sp, #12
    3b42:	e8bd 8ff0 	ldmia.w	sp!, {r4, r5, r6, r7, r8, r9, sl, fp, pc}
    3b46:	2400      	movs	r4, #0
    3b48:	e7ed      	b.n	3b26 <bcm2835_i2c_write_read_rs+0x14e>
    3b4a:	4638      	mov	r0, r7
    3b4c:	f7fe faa2 	bl	2094 <bcm2835_peri_read>
    3b50:	0583      	lsls	r3, r0, #22
    3b52:	bf48      	it	mi
    3b54:	2402      	movmi	r4, #2
    3b56:	d4ed      	bmi.n	3b34 <bcm2835_i2c_write_read_rs+0x15c>
    3b58:	2c00      	cmp	r4, #0
    3b5a:	bf0c      	ite	eq
    3b5c:	2400      	moveq	r4, #0
    3b5e:	2404      	movne	r4, #4
    3b60:	e7e8      	b.n	3b34 <bcm2835_i2c_write_read_rs+0x15c>
    3b62:	bf00      	nop
    3b64:	00011632 	andeq	r1, r1, r2, lsr r6
    3b68:	00011636 	andeq	r1, r1, r6, lsr r6
    3b6c:	000115fe 	strdeq	r1, [r1], -lr
    3b70:	000115d0 	ldrdeq	r1, [r1], -r0
    3b74:	000115ae 	andeq	r1, r1, lr, lsr #11

00003b78 <bcm2835_st_delay>:
    3b78:	b538      	push	{r3, r4, r5, lr}
    3b7a:	1884      	adds	r4, r0, r2
    3b7c:	eb41 0503 	adc.w	r5, r1, r3
    3b80:	f7ff fd74 	bl	366c <bcm2835_st_read>
    3b84:	42a9      	cmp	r1, r5
    3b86:	bf08      	it	eq
    3b88:	42a0      	cmpeq	r0, r4
    3b8a:	d3f9      	bcc.n	3b80 <bcm2835_st_delay+0x8>
    3b8c:	bd38      	pop	{r3, r4, r5, pc}
    3b8e:	bf00      	nop

00003b90 <bcm2835_pwm_set_clock>:
    3b90:	4b2a      	ldr	r3, [pc, #168]	; (3c3c <bcm2835_pwm_set_clock+0xac>)
    3b92:	4a2b      	ldr	r2, [pc, #172]	; (3c40 <bcm2835_pwm_set_clock+0xb0>)
    3b94:	e92d 43f0 	stmdb	sp!, {r4, r5, r6, r7, r8, r9, lr}
    3b98:	447b      	add	r3, pc
    3b9a:	4c2a      	ldr	r4, [pc, #168]	; (3c44 <bcm2835_pwm_set_clock+0xb4>)
    3b9c:	4606      	mov	r6, r0
    3b9e:	f853 8002 	ldr.w	r8, [r3, r2]
    3ba2:	b085      	sub	sp, #20
    3ba4:	447c      	add	r4, pc
    3ba6:	6920      	ldr	r0, [r4, #16]
    3ba8:	f8d8 3000 	ldr.w	r3, [r8]
    3bac:	1c42      	adds	r2, r0, #1
    3bae:	9303      	str	r3, [sp, #12]
    3bb0:	d039      	beq.n	3c26 <bcm2835_pwm_set_clock+0x96>
    3bb2:	68e3      	ldr	r3, [r4, #12]
    3bb4:	3301      	adds	r3, #1
    3bb6:	d036      	beq.n	3c26 <bcm2835_pwm_set_clock+0x96>
    3bb8:	af01      	add	r7, sp, #4
    3bba:	2500      	movs	r5, #0
    3bbc:	30a0      	adds	r0, #160	; 0xa0
    3bbe:	2101      	movs	r1, #1
    3bc0:	f6c5 2100 	movt	r1, #23040	; 0x5a00
    3bc4:	46a9      	mov	r9, r5
    3bc6:	f7fe fa87 	bl	20d8 <bcm2835_peri_write>
    3bca:	4629      	mov	r1, r5
    3bcc:	4638      	mov	r0, r7
    3bce:	9501      	str	r5, [sp, #4]
    3bd0:	f44f 43ef 	mov.w	r3, #30592	; 0x7780
    3bd4:	f244 2540 	movw	r5, #16960	; 0x4240
    3bd8:	f2c0 638e 	movt	r3, #1678	; 0x68e
    3bdc:	f2c0 050f 	movt	r5, #15
    3be0:	9302      	str	r3, [sp, #8]
    3be2:	f7fc edc2 	blx	768 <nanosleep@plt>
    3be6:	e005      	b.n	3bf4 <bcm2835_pwm_set_clock+0x64>
    3be8:	2100      	movs	r1, #0
    3bea:	4638      	mov	r0, r7
    3bec:	e9cd 9501 	strd	r9, r5, [sp, #4]
    3bf0:	f7fc edba 	blx	768 <nanosleep@plt>
    3bf4:	6920      	ldr	r0, [r4, #16]
    3bf6:	30a0      	adds	r0, #160	; 0xa0
    3bf8:	f7fe fa4c 	bl	2094 <bcm2835_peri_read>
    3bfc:	0603      	lsls	r3, r0, #24
    3bfe:	d4f3      	bmi.n	3be8 <bcm2835_pwm_set_clock+0x58>
    3c00:	6920      	ldr	r0, [r4, #16]
    3c02:	f44f 4170 	mov.w	r1, #61440	; 0xf000
    3c06:	f2c0 01ff 	movt	r1, #255	; 0xff
    3c0a:	ea01 3106 	and.w	r1, r1, r6, lsl #12
    3c0e:	30a4      	adds	r0, #164	; 0xa4
    3c10:	f041 41b4 	orr.w	r1, r1, #1509949440	; 0x5a000000
    3c14:	f7fe fa60 	bl	20d8 <bcm2835_peri_write>
    3c18:	6920      	ldr	r0, [r4, #16]
    3c1a:	2111      	movs	r1, #17
    3c1c:	f6c5 2100 	movt	r1, #23040	; 0x5a00
    3c20:	30a0      	adds	r0, #160	; 0xa0
    3c22:	f7fe fa59 	bl	20d8 <bcm2835_peri_write>
    3c26:	9a03      	ldr	r2, [sp, #12]
    3c28:	f8d8 3000 	ldr.w	r3, [r8]
    3c2c:	429a      	cmp	r2, r3
    3c2e:	d102      	bne.n	3c36 <bcm2835_pwm_set_clock+0xa6>
    3c30:	b005      	add	sp, #20
    3c32:	e8bd 83f0 	ldmia.w	sp!, {r4, r5, r6, r7, r8, r9, pc}
    3c36:	f7fc eda4 	blx	780 <__stack_chk_fail@plt>
    3c3a:	bf00      	nop
    3c3c:	000113d8 	ldrdeq	r1, [r1], -r8
    3c40:	00000074 	andeq	r0, r0, r4, ror r0
    3c44:	00011474 	andeq	r1, r1, r4, ror r4

00003c48 <bcm2835_pwm_set_mode>:
    3c48:	4b1d      	ldr	r3, [pc, #116]	; (3cc0 <bcm2835_pwm_set_mode+0x78>)
    3c4a:	b570      	push	{r4, r5, r6, lr}
    3c4c:	447b      	add	r3, pc
    3c4e:	691c      	ldr	r4, [r3, #16]
    3c50:	3401      	adds	r4, #1
    3c52:	d017      	beq.n	3c84 <bcm2835_pwm_set_mode+0x3c>
    3c54:	68db      	ldr	r3, [r3, #12]
    3c56:	1c5c      	adds	r4, r3, #1
    3c58:	d014      	beq.n	3c84 <bcm2835_pwm_set_mode+0x3c>
    3c5a:	4604      	mov	r4, r0
    3c5c:	4618      	mov	r0, r3
    3c5e:	4615      	mov	r5, r2
    3c60:	460e      	mov	r6, r1
    3c62:	f7fe fa17 	bl	2094 <bcm2835_peri_read>
    3c66:	b974      	cbnz	r4, 3c86 <bcm2835_pwm_set_mode+0x3e>
    3c68:	b1b6      	cbz	r6, 3c98 <bcm2835_pwm_set_mode+0x50>
    3c6a:	f040 0080 	orr.w	r0, r0, #128	; 0x80
    3c6e:	b1bd      	cbz	r5, 3ca0 <bcm2835_pwm_set_mode+0x58>
    3c70:	f040 0001 	orr.w	r0, r0, #1
    3c74:	4a13      	ldr	r2, [pc, #76]	; (3cc4 <bcm2835_pwm_set_mode+0x7c>)
    3c76:	4b14      	ldr	r3, [pc, #80]	; (3cc8 <bcm2835_pwm_set_mode+0x80>)
    3c78:	447a      	add	r2, pc
    3c7a:	447b      	add	r3, pc
    3c7c:	7812      	ldrb	r2, [r2, #0]
    3c7e:	68db      	ldr	r3, [r3, #12]
    3c80:	b98a      	cbnz	r2, 3ca6 <bcm2835_pwm_set_mode+0x5e>
    3c82:	6018      	str	r0, [r3, #0]
    3c84:	bd70      	pop	{r4, r5, r6, pc}
    3c86:	2c01      	cmp	r4, #1
    3c88:	d1f4      	bne.n	3c74 <bcm2835_pwm_set_mode+0x2c>
    3c8a:	b196      	cbz	r6, 3cb2 <bcm2835_pwm_set_mode+0x6a>
    3c8c:	f440 4000 	orr.w	r0, r0, #32768	; 0x8000
    3c90:	b195      	cbz	r5, 3cb8 <bcm2835_pwm_set_mode+0x70>
    3c92:	f440 7080 	orr.w	r0, r0, #256	; 0x100
    3c96:	e7ed      	b.n	3c74 <bcm2835_pwm_set_mode+0x2c>
    3c98:	f020 0080 	bic.w	r0, r0, #128	; 0x80
    3c9c:	2d00      	cmp	r5, #0
    3c9e:	d1e7      	bne.n	3c70 <bcm2835_pwm_set_mode+0x28>
    3ca0:	f020 0001 	bic.w	r0, r0, #1
    3ca4:	e7e6      	b.n	3c74 <bcm2835_pwm_set_mode+0x2c>
    3ca6:	4601      	mov	r1, r0
    3ca8:	4618      	mov	r0, r3
    3caa:	e8bd 4070 	ldmia.w	sp!, {r4, r5, r6, lr}
    3cae:	f7fe b947 	b.w	1f40 <bcm2835_peri_write_nb.part.4>
    3cb2:	f420 4000 	bic.w	r0, r0, #32768	; 0x8000
    3cb6:	e7eb      	b.n	3c90 <bcm2835_pwm_set_mode+0x48>
    3cb8:	f420 7080 	bic.w	r0, r0, #256	; 0x100
    3cbc:	e7da      	b.n	3c74 <bcm2835_pwm_set_mode+0x2c>
    3cbe:	bf00      	nop
    3cc0:	000113cc 	andeq	r1, r1, ip, asr #7
    3cc4:	000113e4 	andeq	r1, r1, r4, ror #7
    3cc8:	0001139e 	muleq	r1, lr, r3

00003ccc <bcm2835_pwm_set_range>:
    3ccc:	4b13      	ldr	r3, [pc, #76]	; (3d1c <bcm2835_pwm_set_range+0x50>)
    3cce:	447b      	add	r3, pc
    3cd0:	691a      	ldr	r2, [r3, #16]
    3cd2:	3201      	adds	r2, #1
    3cd4:	d014      	beq.n	3d00 <bcm2835_pwm_set_range+0x34>
    3cd6:	68db      	ldr	r3, [r3, #12]
    3cd8:	1c5a      	adds	r2, r3, #1
    3cda:	d011      	beq.n	3d00 <bcm2835_pwm_set_range+0x34>
    3cdc:	b410      	push	{r4}
    3cde:	b938      	cbnz	r0, 3cf0 <bcm2835_pwm_set_range+0x24>
    3ce0:	4a0f      	ldr	r2, [pc, #60]	; (3d20 <bcm2835_pwm_set_range+0x54>)
    3ce2:	447a      	add	r2, pc
    3ce4:	7812      	ldrb	r2, [r2, #0]
    3ce6:	b962      	cbnz	r2, 3d02 <bcm2835_pwm_set_range+0x36>
    3ce8:	6119      	str	r1, [r3, #16]
    3cea:	f85d 4b04 	ldr.w	r4, [sp], #4
    3cee:	4770      	bx	lr
    3cf0:	2801      	cmp	r0, #1
    3cf2:	d1fa      	bne.n	3cea <bcm2835_pwm_set_range+0x1e>
    3cf4:	4a0b      	ldr	r2, [pc, #44]	; (3d24 <bcm2835_pwm_set_range+0x58>)
    3cf6:	447a      	add	r2, pc
    3cf8:	7812      	ldrb	r2, [r2, #0]
    3cfa:	b942      	cbnz	r2, 3d0e <bcm2835_pwm_set_range+0x42>
    3cfc:	6219      	str	r1, [r3, #32]
    3cfe:	e7f4      	b.n	3cea <bcm2835_pwm_set_range+0x1e>
    3d00:	4770      	bx	lr
    3d02:	f103 0010 	add.w	r0, r3, #16
    3d06:	f85d 4b04 	ldr.w	r4, [sp], #4
    3d0a:	f7fe b919 	b.w	1f40 <bcm2835_peri_write_nb.part.4>
    3d0e:	f103 0020 	add.w	r0, r3, #32
    3d12:	f85d 4b04 	ldr.w	r4, [sp], #4
    3d16:	f7fe b913 	b.w	1f40 <bcm2835_peri_write_nb.part.4>
    3d1a:	bf00      	nop
    3d1c:	0001134a 	andeq	r1, r1, sl, asr #6
    3d20:	0001137a 	andeq	r1, r1, sl, ror r3
    3d24:	00011366 	andeq	r1, r1, r6, ror #6

00003d28 <bcm2835_pwm_set_data>:
    3d28:	4b13      	ldr	r3, [pc, #76]	; (3d78 <bcm2835_pwm_set_data+0x50>)
    3d2a:	447b      	add	r3, pc
    3d2c:	691a      	ldr	r2, [r3, #16]
    3d2e:	3201      	adds	r2, #1
    3d30:	d014      	beq.n	3d5c <bcm2835_pwm_set_data+0x34>
    3d32:	68db      	ldr	r3, [r3, #12]
    3d34:	1c5a      	adds	r2, r3, #1
    3d36:	d011      	beq.n	3d5c <bcm2835_pwm_set_data+0x34>
    3d38:	b410      	push	{r4}
    3d3a:	b938      	cbnz	r0, 3d4c <bcm2835_pwm_set_data+0x24>
    3d3c:	4a0f      	ldr	r2, [pc, #60]	; (3d7c <bcm2835_pwm_set_data+0x54>)
    3d3e:	447a      	add	r2, pc
    3d40:	7812      	ldrb	r2, [r2, #0]
    3d42:	b962      	cbnz	r2, 3d5e <bcm2835_pwm_set_data+0x36>
    3d44:	6159      	str	r1, [r3, #20]
    3d46:	f85d 4b04 	ldr.w	r4, [sp], #4
    3d4a:	4770      	bx	lr
    3d4c:	2801      	cmp	r0, #1
    3d4e:	d1fa      	bne.n	3d46 <bcm2835_pwm_set_data+0x1e>
    3d50:	4a0b      	ldr	r2, [pc, #44]	; (3d80 <bcm2835_pwm_set_data+0x58>)
    3d52:	447a      	add	r2, pc
    3d54:	7812      	ldrb	r2, [r2, #0]
    3d56:	b942      	cbnz	r2, 3d6a <bcm2835_pwm_set_data+0x42>
    3d58:	6259      	str	r1, [r3, #36]	; 0x24
    3d5a:	e7f4      	b.n	3d46 <bcm2835_pwm_set_data+0x1e>
    3d5c:	4770      	bx	lr
    3d5e:	f103 0014 	add.w	r0, r3, #20
    3d62:	f85d 4b04 	ldr.w	r4, [sp], #4
    3d66:	f7fe b8eb 	b.w	1f40 <bcm2835_peri_write_nb.part.4>
    3d6a:	f103 0024 	add.w	r0, r3, #36	; 0x24
    3d6e:	f85d 4b04 	ldr.w	r4, [sp], #4
    3d72:	f7fe b8e5 	b.w	1f40 <bcm2835_peri_write_nb.part.4>
    3d76:	bf00      	nop
    3d78:	000112ee 	andeq	r1, r1, lr, ror #5
    3d7c:	0001131e 	andeq	r1, r1, lr, lsl r3
    3d80:	0001130a 	andeq	r1, r1, sl, lsl #6

00003d84 <malloc_aligned>:
    3d84:	4b10      	ldr	r3, [pc, #64]	; (3dc8 <malloc_aligned+0x44>)
    3d86:	4911      	ldr	r1, [pc, #68]	; (3dcc <malloc_aligned+0x48>)
    3d88:	447b      	add	r3, pc
    3d8a:	b570      	push	{r4, r5, r6, lr}
    3d8c:	b082      	sub	sp, #8
    3d8e:	585c      	ldr	r4, [r3, r1]
    3d90:	4606      	mov	r6, r0
    3d92:	6823      	ldr	r3, [r4, #0]
    3d94:	9301      	str	r3, [sp, #4]
    3d96:	f7fc ed30 	blx	7f8 <__errno_location@plt>
    3d9a:	4632      	mov	r2, r6
    3d9c:	f44f 5180 	mov.w	r1, #4096	; 0x1000
    3da0:	4605      	mov	r5, r0
    3da2:	4668      	mov	r0, sp
    3da4:	f7fc ed22 	blx	7ec <posix_memalign@plt>
    3da8:	4603      	mov	r3, r0
    3daa:	b938      	cbnz	r0, 3dbc <malloc_aligned+0x38>
    3dac:	6028      	str	r0, [r5, #0]
    3dae:	9800      	ldr	r0, [sp, #0]
    3db0:	9a01      	ldr	r2, [sp, #4]
    3db2:	6823      	ldr	r3, [r4, #0]
    3db4:	429a      	cmp	r2, r3
    3db6:	d104      	bne.n	3dc2 <malloc_aligned+0x3e>
    3db8:	b002      	add	sp, #8
    3dba:	bd70      	pop	{r4, r5, r6, pc}
    3dbc:	2000      	movs	r0, #0
    3dbe:	602b      	str	r3, [r5, #0]
    3dc0:	e7f6      	b.n	3db0 <malloc_aligned+0x2c>
    3dc2:	f7fc ecde 	blx	780 <__stack_chk_fail@plt>
    3dc6:	bf00      	nop
    3dc8:	000111e8 	andeq	r1, r1, r8, ror #3
    3dcc:	00000074 	andeq	r0, r0, r4, ror r0

00003dd0 <bcm2835_init>:
    3dd0:	b5f0      	push	{r4, r5, r6, r7, lr}
    3dd2:	b087      	sub	sp, #28
    3dd4:	4c93      	ldr	r4, [pc, #588]	; (4024 <bcm2835_init+0x254>)
    3dd6:	4a94      	ldr	r2, [pc, #592]	; (4028 <bcm2835_init+0x258>)
    3dd8:	447c      	add	r4, pc
    3dda:	4b94      	ldr	r3, [pc, #592]	; (402c <bcm2835_init+0x25c>)
    3ddc:	58a5      	ldr	r5, [r4, r2]
    3dde:	447b      	add	r3, pc
    3de0:	781b      	ldrb	r3, [r3, #0]
    3de2:	682a      	ldr	r2, [r5, #0]
    3de4:	9205      	str	r2, [sp, #20]
    3de6:	2b00      	cmp	r3, #0
    3de8:	d040      	beq.n	3e6c <bcm2835_init+0x9c>
    3dea:	4b91      	ldr	r3, [pc, #580]	; (4030 <bcm2835_init+0x260>)
    3dec:	f04f 5000 	mov.w	r0, #536870912	; 0x20000000
    3df0:	2200      	movs	r2, #0
    3df2:	f44f 5180 	mov.w	r1, #4096	; 0x1000
    3df6:	447b      	add	r3, pc
    3df8:	f2c2 0210 	movt	r2, #8208	; 0x2010
    3dfc:	f2c2 0110 	movt	r1, #8208	; 0x2010
    3e00:	6018      	str	r0, [r3, #0]
    3e02:	2001      	movs	r0, #1
    3e04:	615a      	str	r2, [r3, #20]
    3e06:	2200      	movs	r2, #0
    3e08:	6119      	str	r1, [r3, #16]
    3e0a:	f2c2 0220 	movt	r2, #8224	; 0x2020
    3e0e:	f44f 4140 	mov.w	r1, #49152	; 0xc000
    3e12:	609a      	str	r2, [r3, #8]
    3e14:	f2c2 0120 	movt	r1, #8224	; 0x2020
    3e18:	f44f 4280 	mov.w	r2, #16384	; 0x4000
    3e1c:	60d9      	str	r1, [r3, #12]
    3e1e:	f2c2 0220 	movt	r2, #8224	; 0x2020
    3e22:	f44f 41a0 	mov.w	r1, #20480	; 0x5000
    3e26:	619a      	str	r2, [r3, #24]
    3e28:	f2c2 0120 	movt	r1, #8224	; 0x2020
    3e2c:	f44f 4280 	mov.w	r2, #16384	; 0x4000
    3e30:	61d9      	str	r1, [r3, #28]
    3e32:	f2c2 0280 	movt	r2, #8320	; 0x2080
    3e36:	f44f 5140 	mov.w	r1, #12288	; 0x3000
    3e3a:	621a      	str	r2, [r3, #32]
    3e3c:	f2c2 0100 	movt	r1, #8192	; 0x2000
    3e40:	f44f 42a0 	mov.w	r2, #20480	; 0x5000
    3e44:	6259      	str	r1, [r3, #36]	; 0x24
    3e46:	f2c2 0221 	movt	r2, #8225	; 0x2021
    3e4a:	f44f 41a1 	mov.w	r1, #20608	; 0x5080
    3e4e:	629a      	str	r2, [r3, #40]	; 0x28
    3e50:	f2c2 0121 	movt	r1, #8225	; 0x2021
    3e54:	2200      	movs	r2, #0
    3e56:	62d9      	str	r1, [r3, #44]	; 0x2c
    3e58:	f2c2 0260 	movt	r2, #8288	; 0x2060
    3e5c:	631a      	str	r2, [r3, #48]	; 0x30
    3e5e:	9a05      	ldr	r2, [sp, #20]
    3e60:	682b      	ldr	r3, [r5, #0]
    3e62:	429a      	cmp	r2, r3
    3e64:	f040 80dc 	bne.w	4020 <bcm2835_init+0x250>
    3e68:	b007      	add	sp, #28
    3e6a:	bdf0      	pop	{r4, r5, r6, r7, pc}
    3e6c:	4971      	ldr	r1, [pc, #452]	; (4034 <bcm2835_init+0x264>)
    3e6e:	4872      	ldr	r0, [pc, #456]	; (4038 <bcm2835_init+0x268>)
    3e70:	4479      	add	r1, pc
    3e72:	4478      	add	r0, pc
    3e74:	f7fc ec6c 	blx	750 <fopen@plt>
    3e78:	4606      	mov	r6, r0
    3e7a:	b1b0      	cbz	r0, 3eaa <bcm2835_init+0xda>
    3e7c:	4603      	mov	r3, r0
    3e7e:	2210      	movs	r2, #16
    3e80:	2101      	movs	r1, #1
    3e82:	a801      	add	r0, sp, #4
    3e84:	f7fc ec88 	blx	798 <fread@plt>
    3e88:	2807      	cmp	r0, #7
    3e8a:	d90b      	bls.n	3ea4 <bcm2835_init+0xd4>
    3e8c:	e9dd 3202 	ldrd	r3, r2, [sp, #8]
    3e90:	ba1b      	rev	r3, r3
    3e92:	ba12      	rev	r2, r2
    3e94:	2b00      	cmp	r3, #0
    3e96:	f000 8093 	beq.w	3fc0 <bcm2835_init+0x1f0>
    3e9a:	f89d 1004 	ldrb.w	r1, [sp, #4]
    3e9e:	297e      	cmp	r1, #126	; 0x7e
    3ea0:	f000 8092 	beq.w	3fc8 <bcm2835_init+0x1f8>
    3ea4:	4630      	mov	r0, r6
    3ea6:	f7fc ecbc 	blx	820 <fclose@plt>
    3eaa:	f7fc ec70 	blx	78c <geteuid@plt>
    3eae:	f241 0102 	movw	r1, #4098	; 0x1002
    3eb2:	2800      	cmp	r0, #0
    3eb4:	d13c      	bne.n	3f30 <bcm2835_init+0x160>
    3eb6:	4861      	ldr	r0, [pc, #388]	; (403c <bcm2835_init+0x26c>)
    3eb8:	f2c0 0110 	movt	r1, #16
    3ebc:	4478      	add	r0, pc
    3ebe:	f7fc ec8a 	blx	7d4 <open@plt>
    3ec2:	1e06      	subs	r6, r0, #0
    3ec4:	db6c      	blt.n	3fa0 <bcm2835_init+0x1d0>
    3ec6:	4c5e      	ldr	r4, [pc, #376]	; (4040 <bcm2835_init+0x270>)
    3ec8:	4631      	mov	r1, r6
    3eca:	447c      	add	r4, pc
    3ecc:	6ba2      	ldr	r2, [r4, #56]	; 0x38
    3ece:	6860      	ldr	r0, [r4, #4]
    3ed0:	f7fe f85e 	bl	1f90 <mapmem.constprop.9>
    3ed4:	4603      	mov	r3, r0
    3ed6:	1c59      	adds	r1, r3, #1
    3ed8:	6020      	str	r0, [r4, #0]
    3eda:	4630      	mov	r0, r6
    3edc:	d043      	beq.n	3f66 <bcm2835_init+0x196>
    3ede:	f503 1201 	add.w	r2, r3, #2113536	; 0x204000
    3ee2:	f503 1680 	add.w	r6, r3, #1048576	; 0x100000
    3ee6:	f502 5180 	add.w	r1, r2, #4096	; 0x1000
    3eea:	f503 0700 	add.w	r7, r3, #8388608	; 0x800000
    3eee:	61a2      	str	r2, [r4, #24]
    3ef0:	f503 1205 	add.w	r2, r3, #2179072	; 0x214000
    3ef4:	6166      	str	r6, [r4, #20]
    3ef6:	f507 4780 	add.w	r7, r7, #16384	; 0x4000
    3efa:	61e1      	str	r1, [r4, #28]
    3efc:	f506 5680 	add.w	r6, r6, #4096	; 0x1000
    3f00:	f502 5180 	add.w	r1, r2, #4096	; 0x1000
    3f04:	6126      	str	r6, [r4, #16]
    3f06:	f502 5284 	add.w	r2, r2, #4224	; 0x1080
    3f0a:	6227      	str	r7, [r4, #32]
    3f0c:	e9c4 120a 	strd	r1, r2, [r4, #40]	; 0x28
    3f10:	f503 1100 	add.w	r1, r3, #2097152	; 0x200000
    3f14:	f503 1203 	add.w	r2, r3, #2146304	; 0x20c000
    3f18:	e9c4 1202 	strd	r1, r2, [r4, #8]
    3f1c:	f503 5240 	add.w	r2, r3, #12288	; 0x3000
    3f20:	f503 03c0 	add.w	r3, r3, #6291456	; 0x600000
    3f24:	6262      	str	r2, [r4, #36]	; 0x24
    3f26:	6323      	str	r3, [r4, #48]	; 0x30
    3f28:	f7fc ec8c 	blx	844 <close@plt>
    3f2c:	2001      	movs	r0, #1
    3f2e:	e796      	b.n	3e5e <bcm2835_init+0x8e>
    3f30:	4844      	ldr	r0, [pc, #272]	; (4044 <bcm2835_init+0x274>)
    3f32:	f2c0 0110 	movt	r1, #16
    3f36:	4478      	add	r0, pc
    3f38:	f7fc ec4c 	blx	7d4 <open@plt>
    3f3c:	1e06      	subs	r6, r0, #0
    3f3e:	db1f      	blt.n	3f80 <bcm2835_init+0x1b0>
    3f40:	4c41      	ldr	r4, [pc, #260]	; (4048 <bcm2835_init+0x278>)
    3f42:	2300      	movs	r3, #0
    3f44:	461a      	mov	r2, r3
    3f46:	4631      	mov	r1, r6
    3f48:	447c      	add	r4, pc
    3f4a:	6860      	ldr	r0, [r4, #4]
    3f4c:	63a3      	str	r3, [r4, #56]	; 0x38
    3f4e:	f7fe f81f 	bl	1f90 <mapmem.constprop.9>
    3f52:	4603      	mov	r3, r0
    3f54:	1c5a      	adds	r2, r3, #1
    3f56:	6020      	str	r0, [r4, #0]
    3f58:	4630      	mov	r0, r6
    3f5a:	d004      	beq.n	3f66 <bcm2835_init+0x196>
    3f5c:	60a3      	str	r3, [r4, #8]
    3f5e:	f7fc ec72 	blx	844 <close@plt>
    3f62:	2001      	movs	r0, #1
    3f64:	e77b      	b.n	3e5e <bcm2835_init+0x8e>
    3f66:	f7fc ec6e 	blx	844 <close@plt>
    3f6a:	4b38      	ldr	r3, [pc, #224]	; (404c <bcm2835_init+0x27c>)
    3f6c:	2000      	movs	r0, #0
    3f6e:	447b      	add	r3, pc
    3f70:	781c      	ldrb	r4, [r3, #0]
    3f72:	2c00      	cmp	r4, #0
    3f74:	f47f af73 	bne.w	3e5e <bcm2835_init+0x8e>
    3f78:	f7fd ffec 	bl	1f54 <bcm2835_close.part.8>
    3f7c:	4620      	mov	r0, r4
    3f7e:	e76e      	b.n	3e5e <bcm2835_init+0x8e>
    3f80:	4b33      	ldr	r3, [pc, #204]	; (4050 <bcm2835_init+0x280>)
    3f82:	58e3      	ldr	r3, [r4, r3]
    3f84:	681c      	ldr	r4, [r3, #0]
    3f86:	f7fc ec38 	blx	7f8 <__errno_location@plt>
    3f8a:	6800      	ldr	r0, [r0, #0]
    3f8c:	f7fc ec16 	blx	7bc <strerror@plt>
    3f90:	4a30      	ldr	r2, [pc, #192]	; (4054 <bcm2835_init+0x284>)
    3f92:	2101      	movs	r1, #1
    3f94:	447a      	add	r2, pc
    3f96:	4603      	mov	r3, r0
    3f98:	4620      	mov	r0, r4
    3f9a:	f7fc ec3c 	blx	814 <__fprintf_chk@plt>
    3f9e:	e7e4      	b.n	3f6a <bcm2835_init+0x19a>
    3fa0:	4b2b      	ldr	r3, [pc, #172]	; (4050 <bcm2835_init+0x280>)
    3fa2:	58e3      	ldr	r3, [r4, r3]
    3fa4:	681c      	ldr	r4, [r3, #0]
    3fa6:	f7fc ec28 	blx	7f8 <__errno_location@plt>
    3faa:	6800      	ldr	r0, [r0, #0]
    3fac:	f7fc ec06 	blx	7bc <strerror@plt>
    3fb0:	4a29      	ldr	r2, [pc, #164]	; (4058 <bcm2835_init+0x288>)
    3fb2:	2101      	movs	r1, #1
    3fb4:	447a      	add	r2, pc
    3fb6:	4603      	mov	r3, r0
    3fb8:	4620      	mov	r0, r4
    3fba:	f7fc ec2c 	blx	814 <__fprintf_chk@plt>
    3fbe:	e7d4      	b.n	3f6a <bcm2835_init+0x19a>
    3fc0:	9904      	ldr	r1, [sp, #16]
    3fc2:	4613      	mov	r3, r2
    3fc4:	ba0a      	rev	r2, r1
    3fc6:	e768      	b.n	3e9a <bcm2835_init+0xca>
    3fc8:	f89d 1005 	ldrb.w	r1, [sp, #5]
    3fcc:	2900      	cmp	r1, #0
    3fce:	f47f af69 	bne.w	3ea4 <bcm2835_init+0xd4>
    3fd2:	f89d 1006 	ldrb.w	r1, [sp, #6]
    3fd6:	2900      	cmp	r1, #0
    3fd8:	f47f af64 	bne.w	3ea4 <bcm2835_init+0xd4>
    3fdc:	f89d 1007 	ldrb.w	r1, [sp, #7]
    3fe0:	2900      	cmp	r1, #0
    3fe2:	f47f af5f 	bne.w	3ea4 <bcm2835_init+0xd4>
    3fe6:	f1b3 5f7c 	cmp.w	r3, #1056964608	; 0x3f000000
    3fea:	bf18      	it	ne
    3fec:	f1b3 5f00 	cmpne.w	r3, #536870912	; 0x20000000
    3ff0:	bf0c      	ite	eq
    3ff2:	2101      	moveq	r1, #1
    3ff4:	2100      	movne	r1, #0
    3ff6:	f1b3 4f7e 	cmp.w	r3, #4261412864	; 0xfe000000
    3ffa:	bf08      	it	eq
    3ffc:	f041 0101 	orreq.w	r1, r1, #1
    4000:	2900      	cmp	r1, #0
    4002:	f43f af4f 	beq.w	3ea4 <bcm2835_init+0xd4>
    4006:	4915      	ldr	r1, [pc, #84]	; (405c <bcm2835_init+0x28c>)
    4008:	f1b3 4f7e 	cmp.w	r3, #4261412864	; 0xfe000000
    400c:	4479      	add	r1, pc
    400e:	638b      	str	r3, [r1, #56]	; 0x38
    4010:	604a      	str	r2, [r1, #4]
    4012:	f47f af47 	bne.w	3ea4 <bcm2835_init+0xd4>
    4016:	4b12      	ldr	r3, [pc, #72]	; (4060 <bcm2835_init+0x290>)
    4018:	2201      	movs	r2, #1
    401a:	447b      	add	r3, pc
    401c:	705a      	strb	r2, [r3, #1]
    401e:	e741      	b.n	3ea4 <bcm2835_init+0xd4>
    4020:	f7fc ebae 	blx	780 <__stack_chk_fail@plt>
    4024:	00011198 	muleq	r1, r8, r1
    4028:	00000074 	andeq	r0, r0, r4, ror r0
    402c:	0001127e 	andeq	r1, r1, lr, ror r2
    4030:	00011222 	andeq	r1, r1, r2, lsr #4
    4034:	000004b0 			; <UNDEFINED> instruction: 0x000004b0
    4038:	000004b2 			; <UNDEFINED> instruction: 0x000004b2
    403c:	00000488 	andeq	r0, r0, r8, lsl #9
    4040:	0001114e 	andeq	r1, r1, lr, asr #2
    4044:	00000446 	andeq	r0, r0, r6, asr #8
    4048:	000110d0 	ldrdeq	r1, [r1], -r0
    404c:	000110ee 	andeq	r1, r1, lr, ror #1
    4050:	00000078 	andeq	r0, r0, r8, ror r0
    4054:	000003f8 	strdeq	r0, [r0], -r8
    4058:	0000039c 	muleq	r0, ip, r3
    405c:	0001100c 	andeq	r1, r1, ip
    4060:	00011042 	andeq	r1, r1, r2, asr #32

00004064 <bcm2835_close>:
    4064:	b508      	push	{r3, lr}
    4066:	4b04      	ldr	r3, [pc, #16]	; (4078 <bcm2835_close+0x14>)
    4068:	447b      	add	r3, pc
    406a:	781b      	ldrb	r3, [r3, #0]
    406c:	b90b      	cbnz	r3, 4072 <bcm2835_close+0xe>
    406e:	f7fd ff71 	bl	1f54 <bcm2835_close.part.8>
    4072:	2001      	movs	r0, #1
    4074:	bd08      	pop	{r3, pc}
    4076:	bf00      	nop
    4078:	00010ff4 	strdeq	r0, [r1], -r4

0000407c <__libc_csu_init>:
    407c:	e92d 43f8 	stmdb	sp!, {r3, r4, r5, r6, r7, r8, r9, lr}
    4080:	4607      	mov	r7, r0
    4082:	4e0c      	ldr	r6, [pc, #48]	; (40b4 <__libc_csu_init+0x38>)
    4084:	4688      	mov	r8, r1
    4086:	4d0c      	ldr	r5, [pc, #48]	; (40b8 <__libc_csu_init+0x3c>)
    4088:	4691      	mov	r9, r2
    408a:	447e      	add	r6, pc
    408c:	f7fc eb44 	blx	718 <_init>
    4090:	447d      	add	r5, pc
    4092:	1b76      	subs	r6, r6, r5
    4094:	10b6      	asrs	r6, r6, #2
    4096:	d00a      	beq.n	40ae <__libc_csu_init+0x32>
    4098:	3d04      	subs	r5, #4
    409a:	2400      	movs	r4, #0
    409c:	3401      	adds	r4, #1
    409e:	f855 3f04 	ldr.w	r3, [r5, #4]!
    40a2:	464a      	mov	r2, r9
    40a4:	4641      	mov	r1, r8
    40a6:	4638      	mov	r0, r7
    40a8:	4798      	blx	r3
    40aa:	42a6      	cmp	r6, r4
    40ac:	d1f6      	bne.n	409c <__libc_csu_init+0x20>
    40ae:	e8bd 83f8 	ldmia.w	sp!, {r3, r4, r5, r6, r7, r8, r9, pc}
    40b2:	bf00      	nop
    40b4:	00010dda 	ldrdeq	r0, [r1], -sl
    40b8:	00010dd0 	ldrdeq	r0, [r1], -r0	; <UNPREDICTABLE>

000040bc <__libc_csu_fini>:
    40bc:	4770      	bx	lr
    40be:	bf00      	nop

Disassembly of section .fini:

000040c0 <_fini>:
    40c0:	e92d4008 	push	{r3, lr}
    40c4:	e8bd8008 	pop	{r3, pc}

Disassembly of section .rodata:

000040c8 <_IO_stdin_used>:
    40c8:	00020001 	andeq	r0, r2, r1
    40cc:	676f7250 			; <UNDEFINED> instruction: 0x676f7250
    40d0:	206d6172 	rsbcs	r6, sp, r2, ror r1
    40d4:	6e207369 	cdpvs	3, 2, cr7, cr0, cr9, {3}
    40d8:	7320746f 			; <UNDEFINED> instruction: 0x7320746f
    40dc:	74726174 	ldrbtvc	r6, [r2], #-372	; 0xfffffe8c
    40e0:	61206465 			; <UNDEFINED> instruction: 0x61206465
    40e4:	72272073 	eorvc	r2, r7, #115	; 0x73
    40e8:	27746f6f 	ldrbcs	r6, [r4, -pc, ror #30]!
    40ec:	75732820 	ldrbvc	r2, [r3, #-2080]!	; 0xfffff7e0
    40f0:	0a296f64 	beq	a5fe88 <__bss_end__+0xa4ae1c>
    40f4:	00000000 	andeq	r0, r0, r0
    40f8:	326d6362 	rsbcc	r6, sp, #-2013265919	; 0x88000001
    40fc:	5f353338 	svcpl	0x00353338
    4100:	74696e69 	strbtvc	r6, [r9], #-3689	; 0xfffff197
    4104:	66202928 	strtvs	r2, [r0], -r8, lsr #18
    4108:	656c6961 	strbvs	r6, [ip, #-2401]!	; 0xfffff69f
    410c:	00000a64 	andeq	r0, r0, r4, ror #20
    4110:	76726553 			; <UNDEFINED> instruction: 0x76726553
    4114:	3a30206f 	bcc	c0c2d8 <__bss_end__+0xbf726c>
    4118:	20203039 	eorcs	r3, r0, r9, lsr r0
    411c:	76726553 			; <UNDEFINED> instruction: 0x76726553
    4120:	3a31206f 	bcc	c4c2e4 <__bss_end__+0xc37278>
    4124:	00003039 	andeq	r3, r0, r9, lsr r0
    4128:	76726553 			; <UNDEFINED> instruction: 0x76726553
    412c:	3a32206f 	bcc	c8c2f0 <__bss_end__+0xc77284>
    4130:	20203039 	eorcs	r3, r0, r9, lsr r0
    4134:	76726553 			; <UNDEFINED> instruction: 0x76726553
    4138:	3a33206f 	bcc	ccc2fc <__bss_end__+0xcb7290>
    413c:	00003039 	andeq	r3, r0, r9, lsr r0

00004140 <bcm2835_byte_reverse_table>:
    4140:	c0408000 	subgt	r8, r0, r0
    4144:	e060a020 	rsb	sl, r0, r0, lsr #32
    4148:	d0509010 	subsle	r9, r0, r0, lsl r0
    414c:	f070b030 			; <UNDEFINED> instruction: 0xf070b030
    4150:	c8488808 	stmdagt	r8, {r3, fp, pc}^
    4154:	e868a828 	stmda	r8!, {r3, r5, fp, sp, pc}^
    4158:	d8589818 	ldmdale	r8, {r3, r4, fp, ip, pc}^
    415c:	f878b838 			; <UNDEFINED> instruction: 0xf878b838
    4160:	c4448404 	strbgt	r8, [r4], #-1028	; 0xfffffbfc
    4164:	e464a424 	strbt	sl, [r4], #-1060	; 0xfffffbdc
    4168:	d4549414 	ldrble	r9, [r4], #-1044	; 0xfffffbec
    416c:	f474b434 			; <UNDEFINED> instruction: 0xf474b434
    4170:	cc4c8c0c 	mcrrgt	12, 0, r8, ip, cr12
    4174:	ec6cac2c 	stcl	12, cr10, [ip], #-176	; 0xffffff50
    4178:	dc5c9c1c 	mrrcle	12, 1, r9, ip, cr12
    417c:	fc7cbc3c 	ldc2l	12, cr11, [ip], #-240	; 0xffffff10
    4180:	c2428202 	subgt	r8, r2, #536870912	; 0x20000000
    4184:	e262a222 	rsb	sl, r2, #536870914	; 0x20000002
    4188:	d2529212 	subsle	r9, r2, #536870913	; 0x20000001
    418c:	f272b232 	vqsub.s64	d27, d2, d18
    4190:	ca4a8a0a 	bgt	12a69c0 <__bss_end__+0x1291954>
    4194:	ea6aaa2a 	b	1aaea44 <__bss_end__+0x1a999d8>
    4198:	da5a9a1a 	ble	16aaa08 <__bss_end__+0x169599c>
    419c:	fa7aba3a 	blx	1eb2a8c <__bss_end__+0x1e9da20>
    41a0:	c6468606 	strbgt	r8, [r6], -r6, lsl #12
    41a4:	e666a626 	strbt	sl, [r6], -r6, lsr #12
    41a8:	d6569616 			; <UNDEFINED> instruction: 0xd6569616
    41ac:	f676b636 			; <UNDEFINED> instruction: 0xf676b636
    41b0:	ce4e8e0e 	cdpgt	14, 4, cr8, cr14, cr14, {0}
    41b4:	ee6eae2e 	cdp	14, 6, cr10, cr14, cr14, {1}
    41b8:	de5e9e1e 	mrcle	14, 2, r9, cr14, cr14, {0}
    41bc:	fe7ebe3e 	mrc2	14, 3, fp, cr14, cr14, {1}
    41c0:	c1418101 	cmpgt	r1, r1, lsl #2
    41c4:	e161a121 	cmn	r1, r1, lsr #2
    41c8:	d1519111 	cmple	r1, r1, lsl r1
    41cc:	f171b131 			; <UNDEFINED> instruction: 0xf171b131
    41d0:	c9498909 	stmdbgt	r9, {r0, r3, r8, fp, pc}^
    41d4:	e969a929 	stmdb	r9!, {r0, r3, r5, r8, fp, sp, pc}^
    41d8:	d9599919 	ldmdble	r9, {r0, r3, r4, r8, fp, ip, pc}^
    41dc:	f979b939 			; <UNDEFINED> instruction: 0xf979b939
    41e0:	c5458505 	strbgt	r8, [r5, #-1285]	; 0xfffffafb
    41e4:	e565a525 	strb	sl, [r5, #-1317]!	; 0xfffffadb
    41e8:	d5559515 	ldrble	r9, [r5, #-1301]	; 0xfffffaeb
    41ec:	f575b535 			; <UNDEFINED> instruction: 0xf575b535
    41f0:	cd4d8d0d 	stclgt	13, cr8, [sp, #-52]	; 0xffffffcc
    41f4:	ed6dad2d 	stcl	13, cr10, [sp, #-180]!	; 0xffffff4c
    41f8:	dd5d9d1d 	ldclle	13, cr9, [sp, #-116]	; 0xffffff8c
    41fc:	fd7dbd3d 	ldc2l	13, cr11, [sp, #-244]!	; 0xffffff0c
    4200:	c3438303 	movtgt	r8, #13059	; 0x3303
    4204:	e363a323 	cmn	r3, #-1946157056	; 0x8c000000
    4208:	d3539313 	cmple	r3, #1275068416	; 0x4c000000
    420c:	f373b333 	vcge.u<illegal width 64>	d27, d3, d19
    4210:	cb4b8b0b 	blgt	12e6e44 <__bss_end__+0x12d1dd8>
    4214:	eb6bab2b 	bl	1aeeec8 <__bss_end__+0x1ad9e5c>
    4218:	db5b9b1b 	blle	16eae8c <__bss_end__+0x16d5e20>
    421c:	fb7bbb3b 	blx	1ef2f12 <__bss_end__+0x1eddea6>
    4220:	c7478707 	strbgt	r8, [r7, -r7, lsl #14]
    4224:	e767a727 	strb	sl, [r7, -r7, lsr #14]!
    4228:	d7579717 	smmlale	r7, r7, r7, r9
    422c:	f777b737 			; <UNDEFINED> instruction: 0xf777b737
    4230:	cf4f8f0f 	svcgt	0x004f8f0f
    4234:	ef6faf2f 	svc	0x006faf2f
    4238:	df5f9f1f 	svcle	0x005f9f1f
    423c:	ff7fbf3f 			; <UNDEFINED> instruction: 0xff7fbf3f
    4240:	326d6362 	rsbcc	r6, sp, #-2013265919	; 0x88000001
    4244:	5f353338 	svcpl	0x00353338
    4248:	69726570 	ldmdbvs	r2!, {r4, r5, r6, r8, sl, sp, lr}^
    424c:	6165725f 	cmnvs	r5, pc, asr r2
    4250:	626e5f64 	rsbvs	r5, lr, #100, 30	; 0x190
    4254:	61702020 	cmnvs	r0, r0, lsr #32
    4258:	20726464 	rsbscs	r6, r2, r4, ror #8
    425c:	000a7025 	andeq	r7, sl, r5, lsr #32
    4260:	326d6362 	rsbcc	r6, sp, #-2013265919	; 0x88000001
    4264:	5f353338 	svcpl	0x00353338
    4268:	69726570 	ldmdbvs	r2!, {r4, r5, r6, r8, sl, sp, lr}^
    426c:	6972775f 	ldmdbvs	r2!, {r0, r1, r2, r3, r4, r6, r8, r9, sl, ip, sp, lr}^
    4270:	6e5f6574 	mrcvs	5, 2, r6, cr15, cr4, {3}
    4274:	61702062 	cmnvs	r0, r2, rrx
    4278:	20726464 	rsbscs	r6, r2, r4, ror #8
    427c:	202c7025 	eorcs	r7, ip, r5, lsr #32
    4280:	756c6176 	strbvc	r6, [ip, #-374]!	; 0xfffffe8a
    4284:	30252065 	eorcc	r2, r5, r5, rrx
    4288:	000a5838 	andeq	r5, sl, r8, lsr r8
    428c:	6f697067 	svcvs	0x00697067
    4290:	00000000 	andeq	r0, r0, r0
    4294:	326d6362 	rsbcc	r6, sp, #-2013265919	; 0x88000001
    4298:	5f353338 	svcpl	0x00353338
    429c:	74696e69 	strbtvc	r6, [r9], #-3689	; 0xfffff197
    42a0:	7325203a 			; <UNDEFINED> instruction: 0x7325203a
    42a4:	616d6d20 	cmnvs	sp, r0, lsr #26
    42a8:	61662070 	smcvs	25088	; 0x6200
    42ac:	64656c69 	strbtvs	r6, [r5], #-3177	; 0xfffff397
    42b0:	7325203a 			; <UNDEFINED> instruction: 0x7325203a
    42b4:	0000000a 	andeq	r0, r0, sl
    42b8:	326d6362 	rsbcc	r6, sp, #-2013265919	; 0x88000001
    42bc:	5f353338 	svcpl	0x00353338
    42c0:	69726570 	ldmdbvs	r2!, {r4, r5, r6, r8, sl, sp, lr}^
    42c4:	6165725f 	cmnvs	r5, pc, asr r2
    42c8:	70202064 	eorvc	r2, r0, r4, rrx
    42cc:	72646461 	rsbvc	r6, r4, #1627389952	; 0x61000000
    42d0:	0a702520 	beq	1c0d758 <__bss_end__+0x1bf86ec>
    42d4:	00000000 	andeq	r0, r0, r0
    42d8:	326d6362 	rsbcc	r6, sp, #-2013265919	; 0x88000001
    42dc:	5f353338 	svcpl	0x00353338
    42e0:	69726570 	ldmdbvs	r2!, {r4, r5, r6, r8, sl, sp, lr}^
    42e4:	6972775f 	ldmdbvs	r2!, {r0, r1, r2, r3, r4, r6, r8, r9, sl, ip, sp, lr}^
    42e8:	70206574 	eorvc	r6, r0, r4, ror r5
    42ec:	72646461 	rsbvc	r6, r4, #1627389952	; 0x61000000
    42f0:	2c702520 	cfldr64cs	mvdx2, [r0], #-128	; 0xffffff80
    42f4:	6c617620 	stclvs	6, cr7, [r1], #-128	; 0xffffff80
    42f8:	25206575 	strcs	r6, [r0, #-1397]!	; 0xfffffa8b
    42fc:	0a583830 	beq	16123c4 <__bss_end__+0x15fd358>
    4300:	00000000 	andeq	r0, r0, r0
    4304:	326d6362 	rsbcc	r6, sp, #-2013265919	; 0x88000001
    4308:	5f353338 	svcpl	0x00353338
    430c:	616c6564 	cmnvs	ip, r4, ror #10
    4310:	63694d79 	cmnvs	r9, #7744	; 0x1e40
    4314:	65736f72 	ldrbvs	r6, [r3, #-3954]!	; 0xfffff08e
    4318:	646e6f63 	strbtvs	r6, [lr], #-3939	; 0xfffff09d
    431c:	6c252073 	stcvs	0, cr2, [r5], #-460	; 0xfffffe34
    4320:	000a646c 	andeq	r6, sl, ip, ror #8
    4324:	00006272 	andeq	r6, r0, r2, ror r2
    4328:	6f72702f 	svcvs	0x0072702f
    432c:	65642f63 	strbvs	r2, [r4, #-3939]!	; 0xfffff09d
    4330:	65636976 	strbvs	r6, [r3, #-2422]!	; 0xfffff68a
    4334:	6572742d 	ldrbvs	r7, [r2, #-1069]!	; 0xfffffbd3
    4338:	6f732f65 	svcvs	0x00732f65
    433c:	61722f63 	cmnvs	r2, r3, ror #30
    4340:	7365676e 	cmnvc	r5, #28835840	; 0x1b80000
    4344:	00000000 	andeq	r0, r0, r0
    4348:	7665642f 	strbtvc	r6, [r5], -pc, lsr #8
    434c:	6d656d2f 	stclvs	13, cr6, [r5, #-188]!	; 0xffffff44
    4350:	00000000 	andeq	r0, r0, r0
    4354:	326d6362 	rsbcc	r6, sp, #-2013265919	; 0x88000001
    4358:	5f353338 	svcpl	0x00353338
    435c:	74696e69 	strbtvc	r6, [r9], #-3689	; 0xfffff197
    4360:	6e55203a 	mrcvs	0, 2, r2, cr5, cr10, {1}
    4364:	656c6261 	strbvs	r6, [ip, #-609]!	; 0xfffffd9f
    4368:	206f7420 	rsbcs	r7, pc, r0, lsr #8
    436c:	6e65706f 	cdpvs	0, 6, cr7, cr5, cr15, {3}
    4370:	65642f20 	strbvs	r2, [r4, #-3872]!	; 0xfffff0e0
    4374:	656d2f76 	strbvs	r2, [sp, #-3958]!	; 0xfffff08a
    4378:	25203a6d 	strcs	r3, [r0, #-2669]!	; 0xfffff593
    437c:	00000a73 	andeq	r0, r0, r3, ror sl
    4380:	7665642f 	strbtvc	r6, [r5], -pc, lsr #8
    4384:	6970672f 	ldmdbvs	r0!, {r0, r1, r2, r3, r5, r8, r9, sl, sp, lr}^
    4388:	6d656d6f 	stclvs	13, cr6, [r5, #-444]!	; 0xfffffe44
    438c:	00000000 	andeq	r0, r0, r0
    4390:	326d6362 	rsbcc	r6, sp, #-2013265919	; 0x88000001
    4394:	5f353338 	svcpl	0x00353338
    4398:	74696e69 	strbtvc	r6, [r9], #-3689	; 0xfffff197
    439c:	6e55203a 	mrcvs	0, 2, r2, cr5, cr10, {1}
    43a0:	656c6261 	strbvs	r6, [ip, #-609]!	; 0xfffffd9f
    43a4:	206f7420 	rsbcs	r7, pc, r0, lsr #8
    43a8:	6e65706f 	cdpvs	0, 6, cr7, cr5, cr15, {3}
    43ac:	65642f20 	strbvs	r2, [r4, #-3872]!	; 0xfffff0e0
    43b0:	70672f76 	rsbvc	r2, r7, r6, ror pc
    43b4:	656d6f69 	strbvs	r6, [sp, #-3945]!	; 0xfffff097
    43b8:	25203a6d 	strcs	r3, [r0, #-2669]!	; 0xfffff593
    43bc:	00000a73 	andeq	r0, r0, r3, ror sl

Disassembly of section .ARM.extab:

000043c0 <.ARM.extab>:
    43c0:	810105c9 	smlabthi	r1, r9, r5, r0
    43c4:	80acb0b0 	strhthi	fp, [ip], r0
    43c8:	00000000 	andeq	r0, r0, r0
    43cc:	8101b108 	tsthi	r1, r8, lsl #2
    43d0:	8400b0b0 	strhi	fp, [r0], #-176	; 0xffffff50
    43d4:	00000000 	andeq	r0, r0, r0

Disassembly of section .ARM.exidx:

000043d8 <.ARM.exidx>:
    43d8:	7fffc478 	svcvc	0x00ffc478
    43dc:	8005aab0 			; <UNDEFINED> instruction: 0x8005aab0
    43e0:	7fffc53c 	svcvc	0x00ffc53c
    43e4:	00000001 	andeq	r0, r0, r1
    43e8:	7fffc644 	svcvc	0x00ffc644
    43ec:	80a8b0b0 	strhthi	fp, [r8], r0
    43f0:	7fffc6e8 	svcvc	0x00ffc6e8
    43f4:	00000001 	andeq	r0, r0, r1
    43f8:	7fffc974 	svcvc	0x00ffc974
    43fc:	8004afb0 			; <UNDEFINED> instruction: 0x8004afb0
    4400:	7fffcaa8 	svcvc	0x00ffcaa8
    4404:	8004abb0 			; <UNDEFINED> instruction: 0x8004abb0
    4408:	7fffcb38 	svcvc	0x00ffcb38
    440c:	8004adb0 			; <UNDEFINED> instruction: 0x8004adb0
    4410:	7fffcc58 	svcvc	0x00ffcc58
    4414:	8002a9b0 			; <UNDEFINED> instruction: 0x8002a9b0
    4418:	7fffcca8 	svcvc	0x00ffcca8
    441c:	7fffffa4 	svcvc	0x00ffffa4
    4420:	7fffce08 	svcvc	0x00ffce08
    4424:	8004a9b0 			; <UNDEFINED> instruction: 0x8004a9b0
    4428:	7fffcf84 	svcvc	0x00ffcf84
    442c:	8003acb0 			; <UNDEFINED> instruction: 0x8003acb0
    4430:	7fffd014 	svcvc	0x00ffd014
    4434:	8001aab0 			; <UNDEFINED> instruction: 0x8001aab0
    4438:	7fffd068 	svcvc	0x00ffd068
    443c:	8003acb0 			; <UNDEFINED> instruction: 0x8003acb0
    4440:	7fffd0f4 	svcvc	0x00ffd0f4
    4444:	8001aab0 			; <UNDEFINED> instruction: 0x8001aab0
    4448:	7fffd148 	svcvc	0x00ffd148
    444c:	8003acb0 			; <UNDEFINED> instruction: 0x8003acb0
    4450:	7fffd1d4 	svcvc	0x00ffd1d4
    4454:	8001aab0 			; <UNDEFINED> instruction: 0x8001aab0
    4458:	7fffd228 	svcvc	0x00ffd228
    445c:	8004a9b0 			; <UNDEFINED> instruction: 0x8004a9b0
    4460:	7fffd2f8 	svcvc	0x00ffd2f8
    4464:	8003aab0 			; <UNDEFINED> instruction: 0x8003aab0
    4468:	7fffd3a4 	svcvc	0x00ffd3a4
    446c:	8003acb0 			; <UNDEFINED> instruction: 0x8003acb0
    4470:	7fffd460 	svcvc	0x00ffd460
    4474:	8004abb0 			; <UNDEFINED> instruction: 0x8004abb0
    4478:	7fffd508 	svcvc	0x00ffd508
    447c:	8006adb0 			; <UNDEFINED> instruction: 0x8006adb0
    4480:	7fffd634 	svcvc	0x00ffd634
    4484:	8003acb0 			; <UNDEFINED> instruction: 0x8003acb0
    4488:	7fffd6cc 	svcvc	0x00ffd6cc
    448c:	00000001 	andeq	r0, r0, r1
    4490:	7fffd848 	svcvc	0x00ffd848
    4494:	8004abb0 			; <UNDEFINED> instruction: 0x8004abb0
    4498:	7fffd8c8 	svcvc	0x00ffd8c8
    449c:	7fffff30 	svcvc	0x00ffff30
    44a0:	7fffd8d8 	svcvc	0x00ffd8d8
    44a4:	8001a8b0 			; <UNDEFINED> instruction: 0x8001a8b0
    44a8:	7fffd91c 	svcvc	0x00ffd91c
    44ac:	8002a9b0 			; <UNDEFINED> instruction: 0x8002a9b0
    44b0:	7fffd9b8 	svcvc	0x00ffd9b8
    44b4:	8004a9b0 			; <UNDEFINED> instruction: 0x8004a9b0
    44b8:	7fffda14 	svcvc	0x00ffda14
    44bc:	8003aab0 			; <UNDEFINED> instruction: 0x8003aab0
    44c0:	7fffda68 	svcvc	0x00ffda68
    44c4:	00000001 	andeq	r0, r0, r1

Disassembly of section .eh_frame:

000044c8 <__FRAME_END__>:
    44c8:	00000000 	andeq	r0, r0, r0

Disassembly of section .init_array:

00014e64 <__frame_dummy_init_array_entry>:
   14e64:	00000a29 	andeq	r0, r0, r9, lsr #20

Disassembly of section .fini_array:

00014e68 <__do_global_dtors_aux_fini_array_entry>:
   14e68:	000009e9 	andeq	r0, r0, r9, ror #19

Disassembly of section .dynamic:

00014e6c <.dynamic>:
   14e6c:	00000001 	andeq	r0, r0, r1
   14e70:	00000001 	andeq	r0, r0, r1
   14e74:	00000001 	andeq	r0, r0, r1
   14e78:	00000090 	muleq	r0, r0, r0
   14e7c:	00000001 	andeq	r0, r0, r1
   14e80:	0000015a 	andeq	r0, r0, sl, asr r1
   14e84:	0000000c 	andeq	r0, r0, ip
   14e88:	00000718 	andeq	r0, r0, r8, lsl r7
   14e8c:	0000000d 	andeq	r0, r0, sp
   14e90:	000040c0 	andeq	r4, r0, r0, asr #1
   14e94:	00000019 	andeq	r0, r0, r9, lsl r0
   14e98:	00014e64 	andeq	r4, r1, r4, ror #28
   14e9c:	0000001b 	andeq	r0, r0, fp, lsl r0
   14ea0:	00000004 	andeq	r0, r0, r4
   14ea4:	0000001a 	andeq	r0, r0, sl, lsl r0
   14ea8:	00014e68 	andeq	r4, r1, r8, ror #28
   14eac:	0000001c 	andeq	r0, r0, ip, lsl r0
   14eb0:	00000004 	andeq	r0, r0, r4
   14eb4:	6ffffef5 	svcvs	0x00fffef5
   14eb8:	000001b4 			; <UNDEFINED> instruction: 0x000001b4
   14ebc:	00000005 	andeq	r0, r0, r5
   14ec0:	000003cc 	andeq	r0, r0, ip, asr #7
   14ec4:	00000006 	andeq	r0, r0, r6
   14ec8:	000001cc 	andeq	r0, r0, ip, asr #3
   14ecc:	0000000a 	andeq	r0, r0, sl
   14ed0:	00000192 	muleq	r0, r2, r1
   14ed4:	0000000b 	andeq	r0, r0, fp
   14ed8:	00000010 	andeq	r0, r0, r0, lsl r0
   14edc:	00000015 	andeq	r0, r0, r5, lsl r0
   14ee0:	00000000 	andeq	r0, r0, r0
   14ee4:	00000003 	andeq	r0, r0, r3
   14ee8:	00014f74 	andeq	r4, r1, r4, ror pc
   14eec:	00000002 	andeq	r0, r0, r2
   14ef0:	000000b8 	strheq	r0, [r0], -r8
   14ef4:	00000014 	andeq	r0, r0, r4, lsl r0
   14ef8:	00000011 	andeq	r0, r0, r1, lsl r0
   14efc:	00000017 	andeq	r0, r0, r7, lsl r0
   14f00:	00000660 	andeq	r0, r0, r0, ror #12
   14f04:	00000011 	andeq	r0, r0, r1, lsl r0
   14f08:	00000600 	andeq	r0, r0, r0, lsl #12
   14f0c:	00000012 	andeq	r0, r0, r2, lsl r0
   14f10:	00000060 	andeq	r0, r0, r0, rrx
   14f14:	00000013 	andeq	r0, r0, r3, lsl r0
   14f18:	00000008 	andeq	r0, r0, r8
   14f1c:	0000001e 	andeq	r0, r0, lr, lsl r0
   14f20:	00000008 	andeq	r0, r0, r8
   14f24:	6ffffffb 	svcvs	0x00fffffb
   14f28:	08000001 	stmdaeq	r0, {r0}
   14f2c:	6ffffffe 	svcvs	0x00fffffe
   14f30:	000005a0 	andeq	r0, r0, r0, lsr #11
   14f34:	6fffffff 	svcvs	0x00ffffff
   14f38:	00000003 	andeq	r0, r0, r3
   14f3c:	6ffffff0 	svcvs	0x00fffff0
   14f40:	0000055e 	andeq	r0, r0, lr, asr r5
   14f44:	6ffffffa 	svcvs	0x00fffffa
   14f48:	00000006 	andeq	r0, r0, r6
	...

Disassembly of section .got:

00014f74 <.got>:
   14f74:	00014e6c 	andeq	r4, r1, ip, ror #28
	...
   14f80:	00000724 	andeq	r0, r0, r4, lsr #14
   14f84:	00000724 	andeq	r0, r0, r4, lsr #14
   14f88:	00000724 	andeq	r0, r0, r4, lsr #14
   14f8c:	00000724 	andeq	r0, r0, r4, lsr #14
   14f90:	00000724 	andeq	r0, r0, r4, lsr #14
   14f94:	00000724 	andeq	r0, r0, r4, lsr #14
   14f98:	00000724 	andeq	r0, r0, r4, lsr #14
   14f9c:	00000724 	andeq	r0, r0, r4, lsr #14
   14fa0:	00000724 	andeq	r0, r0, r4, lsr #14
   14fa4:	00000724 	andeq	r0, r0, r4, lsr #14
   14fa8:	00000724 	andeq	r0, r0, r4, lsr #14
   14fac:	00000724 	andeq	r0, r0, r4, lsr #14
   14fb0:	00000724 	andeq	r0, r0, r4, lsr #14
   14fb4:	00000724 	andeq	r0, r0, r4, lsr #14
   14fb8:	00000724 	andeq	r0, r0, r4, lsr #14
   14fbc:	00000724 	andeq	r0, r0, r4, lsr #14
   14fc0:	00000724 	andeq	r0, r0, r4, lsr #14
   14fc4:	00000724 	andeq	r0, r0, r4, lsr #14
   14fc8:	00000724 	andeq	r0, r0, r4, lsr #14
   14fcc:	00000724 	andeq	r0, r0, r4, lsr #14
   14fd0:	00000724 	andeq	r0, r0, r4, lsr #14
   14fd4:	00000724 	andeq	r0, r0, r4, lsr #14
   14fd8:	00000724 	andeq	r0, r0, r4, lsr #14
   14fdc:	000040bd 	strheq	r4, [r0], -sp
	...
   14ff4:	0000407d 	andeq	r4, r0, sp, ror r0
   14ff8:	00000851 	andeq	r0, r0, r1, asr r8
   14ffc:	00000000 	andeq	r0, r0, r0

Disassembly of section .data:

00015000 <__data_start>:
   15000:	00000000 	andeq	r0, r0, r0

00015004 <__dso_handle>:
   15004:	00015004 	andeq	r5, r1, r4

00015008 <ENB>:
   15008:	00000001 	andeq	r0, r0, r1

0001500c <IN4>:
   1500c:	00000016 	andeq	r0, r0, r6, lsl r0

00015010 <IN3>:
   15010:	0000001b 	andeq	r0, r0, fp, lsl r0

00015014 <IN2>:
   15014:	00000018 	andeq	r0, r0, r8, lsl r0

00015018 <IN1>:
   15018:	00000017 	andeq	r0, r0, r7, lsl r0

0001501c <bcm2835_peripherals>:
   1501c:	ffffffff 			; <UNDEFINED> instruction: 0xffffffff

00015020 <bcm2835_peripherals_size>:
   15020:	01000000 	mrseq	r0, (UNDEF: 0)

00015024 <bcm2835_gpio>:
   15024:	ffffffff 			; <UNDEFINED> instruction: 0xffffffff

00015028 <bcm2835_pwm>:
   15028:	ffffffff 			; <UNDEFINED> instruction: 0xffffffff

0001502c <bcm2835_clk>:
   1502c:	ffffffff 			; <UNDEFINED> instruction: 0xffffffff

00015030 <bcm2835_pads>:
   15030:	ffffffff 			; <UNDEFINED> instruction: 0xffffffff

00015034 <bcm2835_spi0>:
   15034:	ffffffff 			; <UNDEFINED> instruction: 0xffffffff

00015038 <bcm2835_bsc0>:
   15038:	ffffffff 			; <UNDEFINED> instruction: 0xffffffff

0001503c <bcm2835_bsc1>:
   1503c:	ffffffff 			; <UNDEFINED> instruction: 0xffffffff

00015040 <bcm2835_st>:
   15040:	ffffffff 			; <UNDEFINED> instruction: 0xffffffff

00015044 <bcm2835_aux>:
   15044:	ffffffff 			; <UNDEFINED> instruction: 0xffffffff

00015048 <bcm2835_spi1>:
   15048:	ffffffff 			; <UNDEFINED> instruction: 0xffffffff

0001504c <bcm2835_smi>:
   1504c:	ffffffff 			; <UNDEFINED> instruction: 0xffffffff

00015050 <bcm2835_spi_bit_order>:
   15050:	00000001 	andeq	r0, r0, r1

00015054 <bcm2835_peripherals_base>:
   15054:	20000000 	andcs	r0, r0, r0

Disassembly of section .bss:

00015058 <__bss_start>:
   15058:	00000000 	andeq	r0, r0, r0

0001505c <ENA>:
   1505c:	00000000 	andeq	r0, r0, r0

00015060 <debug>:
	...

00015061 <pud_type_rpi4>:
	...

00015062 <pud_compat_setting>:
	...

00015064 <spi1_speed>:
   15064:	00000000 	andeq	r0, r0, r0

00015068 <i2c_byte_wait_us>:
   15068:	00000000 	andeq	r0, r0, r0

Disassembly of section .comment:

00000000 <.comment>:
   0:	3a434347 	bcc	10d0d24 <__bss_end__+0x10bbcb8>
   4:	62552820 	subsvs	r2, r5, #32, 16	; 0x200000
   8:	75746e75 	ldrbvc	r6, [r4, #-3701]!	; 0xfffff18b
   c:	6e694c2f 	cdpvs	12, 6, cr4, cr9, cr15, {1}
  10:	206f7261 	rsbcs	r7, pc, r1, ror #4
  14:	2e352e37 	mrccs	14, 1, r2, cr5, cr7, {1}
  18:	75332d30 	ldrvc	r2, [r3, #-3376]!	; 0xfffff2d0
  1c:	746e7562 	strbtvc	r7, [lr], #-1378	; 0xfffffa9e
  20:	317e3175 	cmncc	lr, r5, ror r1
  24:	34302e38 	ldrtcc	r2, [r0], #-3640	; 0xfffff1c8
  28:	2e372029 	cdpcs	0, 3, cr2, cr7, cr9, {1}
  2c:	00302e35 	eorseq	r2, r0, r5, lsr lr

Disassembly of section .ARM.attributes:

00000000 <.ARM.attributes>:
   0:	00003241 	andeq	r3, r0, r1, asr #4
   4:	61656100 	cmnvs	r5, r0, lsl #2
   8:	01006962 	tsteq	r0, r2, ror #18
   c:	00000028 	andeq	r0, r0, r8, lsr #32
  10:	412d3705 			; <UNDEFINED> instruction: 0x412d3705
  14:	070a0600 	streq	r0, [sl, -r0, lsl #12]
  18:	09010841 	stmdbeq	r1, {r0, r6, fp}
  1c:	12040a02 	andne	r0, r4, #8192	; 0x2000
  20:	14011304 	strne	r1, [r1], #-772	; 0xfffffcfc
  24:	17011501 	strne	r1, [r1, -r1, lsl #10]
  28:	19011803 	stmdbne	r1, {r0, r1, fp, ip}
  2c:	1c021a01 			; <UNDEFINED> instruction: 0x1c021a01
  30:	Address 0x00000030 is out of bounds.


Disassembly of section .debug_aranges:

00000000 <.debug_aranges>:
   0:	0000001c 	andeq	r0, r0, ip, lsl r0
   4:	00000002 	andeq	r0, r0, r2
   8:	00040000 	andeq	r0, r4, r0
   c:	00000000 	andeq	r0, r0, r0
  10:	00001f28 	andeq	r1, r0, r8, lsr #30
  14:	00002154 	andeq	r2, r0, r4, asr r1
	...

Disassembly of section .debug_info:

00000000 <.debug_info>:
       0:	000056a2 	andeq	r5, r0, r2, lsr #13
       4:	00000004 	andeq	r0, r0, r4
       8:	01040000 	mrseq	r0, (UNDEF: 4)
       c:	00000847 	andeq	r0, r0, r7, asr #16
      10:	0014020c 	andseq	r0, r4, ip, lsl #4
      14:	000aeb00 	andeq	lr, sl, r0, lsl #22
      18:	001f2800 	andseq	r2, pc, r0, lsl #16
      1c:	00215400 	eoreq	r5, r1, r0, lsl #8
      20:	00000000 	andeq	r0, r0, r0
      24:	07040200 	streq	r0, [r4, -r0, lsl #4]
      28:	00000f84 	andeq	r0, r0, r4, lsl #31
      2c:	7a070802 	bvc	1c203c <__bss_end__+0x1acfd0>
      30:	0200000f 	andeq	r0, r0, #15
      34:	05460801 	strbeq	r0, [r6, #-2049]	; 0xfffff7ff
      38:	1b030000 	blne	c0040 <__bss_end__+0xaafd4>
      3c:	04000000 	streq	r0, [r0], #-0
      40:	000025d8 	ldrdeq	r2, [r0], -r8
      44:	05040400 	streq	r0, [r4, #-1024]	; 0xfffffc00
      48:	00746e69 	rsbseq	r6, r4, r9, ror #28
      4c:	8b050402 	blhi	14105c <__bss_end__+0x12bff0>
      50:	0200000a 	andeq	r0, r0, #10
      54:	0a860508 	beq	fe18147c <__bss_end__+0xfe16c410>
      58:	02020000 	andeq	r0, r2, #0
      5c:	0014e607 	andseq	lr, r4, r7, lsl #12
      60:	07040200 	streq	r0, [r4, -r0, lsl #4]
      64:	00000f7f 	andeq	r0, r0, pc, ror pc
      68:	48060102 	stmdami	r6, {r1, r8}
      6c:	03000005 	movweq	r0, #5
      70:	0000032d 	andeq	r0, r0, sp, lsr #6
      74:	00332505 	eorseq	r2, r3, r5, lsl #10
      78:	02020000 	andeq	r0, r2, #0
      7c:	0012ca05 	andseq	ip, r2, r5, lsl #20
      80:	06b70300 	ldrteq	r0, [r7], r0, lsl #6
      84:	27050000 	strcs	r0, [r5, -r0]
      88:	0000005a 	andeq	r0, r0, sl, asr r0
      8c:	000a6a03 	andeq	r6, sl, r3, lsl #20
      90:	25290500 	strcs	r0, [r9, #-1280]!	; 0xfffffb00
      94:	03000000 	movweq	r0, #0
      98:	0000092b 	andeq	r0, r0, fp, lsr #18
      9c:	002c2f05 	eoreq	r2, ip, r5, lsl #30
      a0:	c0030000 	andgt	r0, r3, r0
      a4:	05000009 	streq	r0, [r0, #-9]
      a8:	00005337 	andeq	r5, r0, r7, lsr r3
      ac:	0fdd0300 	svceq	0x00dd0300
      b0:	8c050000 	stchi	0, cr0, [r5], {-0}
      b4:	0000004c 	andeq	r0, r0, ip, asr #32
      b8:	0011eb03 	andseq	lr, r1, r3, lsl #22
      bc:	a28d0500 	addge	r0, sp, #0, 10
      c0:	03000000 	movweq	r0, #0
      c4:	000010c8 	andeq	r1, r0, r8, asr #1
      c8:	004c9405 	subeq	r9, ip, r5, lsl #8
      cc:	04050000 	streq	r0, [r5], #-0
      d0:	0000ce06 	andeq	ip, r0, r6, lsl #28
      d4:	05cf0300 	strbeq	r0, [pc, #768]	; 3dc <_init-0x33c>
      d8:	b8050000 	stmdalt	r5, {}	; <UNPREDICTABLE>
      dc:	0000004c 	andeq	r0, r0, ip, asr #32
      e0:	00e60407 	rsceq	r0, r6, r7, lsl #8
      e4:	01020000 	mrseq	r0, (UNDEF: 2)
      e8:	00054f08 	andeq	r4, r5, r8, lsl #30
      ec:	00e60800 	rsceq	r0, r6, r0, lsl #16
      f0:	32090000 	andcc	r0, r9, #0
      f4:	98000005 	stmdals	r0, {r0, r2}
      f8:	0272f506 	rsbseq	pc, r2, #25165824	; 0x1800000
      fc:	d10a0000 	mrsle	r0, (UNDEF: 10)
     100:	0600000c 	streq	r0, [r0], -ip
     104:	000045f6 	strdeq	r4, [r0], -r6
     108:	160a0000 	strne	r0, [sl], -r0
     10c:	06000007 	streq	r0, [r0], -r7
     110:	0000e0fb 	strdeq	lr, [r0], -fp
     114:	300a0400 	andcc	r0, sl, r0, lsl #8
     118:	06000014 			; <UNDEFINED> instruction: 0x06000014
     11c:	0000e0fc 	strdeq	lr, [r0], -ip
     120:	790a0800 	stmdbvc	sl, {fp}
     124:	06000009 	streq	r0, [r0], -r9
     128:	0000e0fd 	strdeq	lr, [r0], -sp
     12c:	2c0a0c00 	stccs	12, cr0, [sl], {-0}
     130:	06000001 	streq	r0, [r0], -r1
     134:	0000e0fe 	strdeq	lr, [r0], -lr	; <UNPREDICTABLE>
     138:	3f0a1000 	svccc	0x000a1000
     13c:	06000015 			; <UNDEFINED> instruction: 0x06000015
     140:	0000e0ff 	strdeq	lr, [r0], -pc	; <UNPREDICTABLE>
     144:	050b1400 	streq	r1, [fp, #-1024]	; 0xfffffc00
     148:	0600000b 	streq	r0, [r0], -fp
     14c:	00e00100 	rsceq	r0, r0, r0, lsl #2
     150:	0b180000 	bleq	600158 <__bss_end__+0x5eb0ec>
     154:	00000bde 	ldrdeq	r0, [r0], -lr
     158:	e0010106 	and	r0, r1, r6, lsl #2
     15c:	1c000000 	stcne	0, cr0, [r0], {-0}
     160:	00126a0b 	andseq	r6, r2, fp, lsl #20
     164:	01020600 	tsteq	r2, r0, lsl #12
     168:	000000e0 	andeq	r0, r0, r0, ror #1
     16c:	02260b20 	eoreq	r0, r6, #32, 22	; 0x8000
     170:	04060000 	streq	r0, [r6], #-0
     174:	0000e001 	andeq	lr, r0, r1
     178:	550b2400 	strpl	r2, [fp, #-1024]	; 0xfffffc00
     17c:	06000011 			; <UNDEFINED> instruction: 0x06000011
     180:	00e00105 	rsceq	r0, r0, r5, lsl #2
     184:	0b280000 	bleq	a0018c <__bss_end__+0x9eb120>
     188:	000000c5 	andeq	r0, r0, r5, asr #1
     18c:	e0010606 	and	r0, r1, r6, lsl #12
     190:	2c000000 	stccs	0, cr0, [r0], {-0}
     194:	0007a90b 	andeq	sl, r7, fp, lsl #18
     198:	01080600 	tsteq	r8, r0, lsl #12
     19c:	000002b5 			; <UNDEFINED> instruction: 0x000002b5
     1a0:	02b20b30 	adcseq	r0, r2, #48, 22	; 0xc000
     1a4:	0a060000 	beq	1801ac <__bss_end__+0x16b140>
     1a8:	0002bb01 	andeq	fp, r2, r1, lsl #22
     1ac:	9e0b3400 	cfcpysls	mvf3, mvf11
     1b0:	06000014 			; <UNDEFINED> instruction: 0x06000014
     1b4:	0045010c 	subeq	r0, r5, ip, lsl #2
     1b8:	0b380000 	bleq	e001c0 <__bss_end__+0xdeb154>
     1bc:	00000961 	andeq	r0, r0, r1, ror #18
     1c0:	45011006 	strmi	r1, [r1, #-6]
     1c4:	3c000000 	stccc	0, cr0, [r0], {-0}
     1c8:	000a2c0b 	andeq	r2, sl, fp, lsl #24
     1cc:	01120600 	tsteq	r2, r0, lsl #12
     1d0:	000000ad 	andeq	r0, r0, sp, lsr #1
     1d4:	02e00b40 	rsceq	r0, r0, #64, 22	; 0x10000
     1d8:	16060000 	strne	r0, [r6], -r0
     1dc:	00005a01 	andeq	r5, r0, r1, lsl #20
     1e0:	380b4400 	stmdacc	fp, {sl, lr}
     1e4:	06000013 			; <UNDEFINED> instruction: 0x06000013
     1e8:	00680117 	rsbeq	r0, r8, r7, lsl r1
     1ec:	0b460000 	bleq	11801f4 <__bss_end__+0x116b188>
     1f0:	00001177 	andeq	r1, r0, r7, ror r1
     1f4:	c1011806 	tstgt	r1, r6, lsl #16
     1f8:	47000002 	strmi	r0, [r0, -r2]
     1fc:	0001df0b 	andeq	sp, r1, fp, lsl #30
     200:	011c0600 	tsteq	ip, r0, lsl #12
     204:	000002d1 	ldrdeq	r0, [r0], -r1
     208:	0a300b48 	beq	c02f30 <__bss_end__+0xbedec4>
     20c:	25060000 	strcs	r0, [r6, #-0]
     210:	0000b801 	andeq	fp, r0, r1, lsl #16
     214:	660b5000 	strvs	r5, [fp], -r0
     218:	0600000c 	streq	r0, [r0], -ip
     21c:	00ce012d 	sbceq	r0, lr, sp, lsr #2
     220:	0b580000 	bleq	1600228 <__bss_end__+0x15eb1bc>
     224:	00000c6d 	andeq	r0, r0, sp, ror #24
     228:	ce012e06 	cdpgt	14, 0, cr2, cr1, cr6, {0}
     22c:	5c000000 	stcpl	0, cr0, [r0], {-0}
     230:	000c740b 	andeq	r7, ip, fp, lsl #8
     234:	012f0600 			; <UNDEFINED> instruction: 0x012f0600
     238:	000000ce 	andeq	r0, r0, lr, asr #1
     23c:	0c7b0b60 			; <UNDEFINED> instruction: 0x0c7b0b60
     240:	30060000 	andcc	r0, r6, r0
     244:	0000ce01 	andeq	ip, r0, r1, lsl #28
     248:	820b6400 	andhi	r6, fp, #0, 8
     24c:	0600000c 	streq	r0, [r0], -ip
     250:	003a0132 	eorseq	r0, sl, r2, lsr r1
     254:	0b680000 	bleq	1a0025c <__bss_end__+0x19eb1f0>
     258:	0000162e 	andeq	r1, r0, lr, lsr #12
     25c:	45013306 	strmi	r3, [r1, #-774]	; 0xfffffcfa
     260:	6c000000 	stcvs	0, cr0, [r0], {-0}
     264:	0009aa0b 	andeq	sl, r9, fp, lsl #20
     268:	01350600 	teqeq	r5, r0, lsl #12
     26c:	000002d7 	ldrdeq	r0, [r0], -r7
     270:	36030070 			; <UNDEFINED> instruction: 0x36030070
     274:	07000005 	streq	r0, [r0, -r5]
     278:	0000f207 	andeq	pc, r0, r7, lsl #4
     27c:	06ac0c00 	strteq	r0, [ip], r0, lsl #24
     280:	9a060000 	bls	180288 <__bss_end__+0x16b21c>
     284:	0004bf09 	andeq	fp, r4, r9, lsl #30
     288:	a0060c00 	andge	r0, r6, r0, lsl #24
     28c:	000002b5 			; <UNDEFINED> instruction: 0x000002b5
     290:	0011d30a 	andseq	sp, r1, sl, lsl #6
     294:	b5a10600 	strlt	r0, [r1, #1536]!	; 0x600
     298:	00000002 	andeq	r0, r0, r2
     29c:	000c890a 	andeq	r8, ip, sl, lsl #18
     2a0:	bba20600 	bllt	fe881aa8 <__bss_end__+0xfe86ca3c>
     2a4:	04000002 	streq	r0, [r0], #-2
     2a8:	00073a0a 	andeq	r3, r7, sl, lsl #20
     2ac:	45a60600 	strmi	r0, [r6, #1536]!	; 0x600
     2b0:	08000000 	stmdaeq	r0, {}	; <UNPREDICTABLE>
     2b4:	84040700 	strhi	r0, [r4], #-1792	; 0xfffff900
     2b8:	07000002 	streq	r0, [r0, -r2]
     2bc:	0000f204 	andeq	pc, r0, r4, lsl #4
     2c0:	00e60d00 	rsceq	r0, r6, r0, lsl #26
     2c4:	02d10000 	sbcseq	r0, r1, #0
     2c8:	250e0000 	strcs	r0, [lr, #-0]
     2cc:	00000000 	andeq	r0, r0, r0
     2d0:	7d040700 	stcvc	7, cr0, [r4, #-0]
     2d4:	0d000002 	stceq	0, cr0, [r0, #-8]
     2d8:	000000e6 	andeq	r0, r0, r6, ror #1
     2dc:	000002e7 	andeq	r0, r0, r7, ror #5
     2e0:	0000250e 	andeq	r2, r0, lr, lsl #10
     2e4:	0f002700 	svceq	0x00002700
     2e8:	000005e1 	andeq	r0, r0, r1, ror #11
     2ec:	00093610 	andeq	r3, r9, r0, lsl r6
     2f0:	013f0600 	teqeq	pc, r0, lsl #12
     2f4:	000002e7 	andeq	r0, r0, r7, ror #5
     2f8:	00118110 	andseq	r8, r1, r0, lsl r1
     2fc:	01400600 	cmpeq	r0, r0, lsl #12
     300:	000002e7 	andeq	r0, r0, r7, ror #5
     304:	00005310 	andeq	r5, r0, r0, lsl r3
     308:	01410600 	cmpeq	r1, r0, lsl #12
     30c:	000002e7 	andeq	r0, r0, r7, ror #5
     310:	00ed0407 	rsceq	r0, sp, r7, lsl #8
     314:	10060000 	andne	r0, r6, r0
     318:	03000003 	movweq	r0, #3
     31c:	00000fdf 	ldrdeq	r0, [r0], -pc	; <UNPREDICTABLE>
     320:	00ad3908 	adceq	r3, sp, r8, lsl #18
     324:	3f110000 	svccc	0x00110000
     328:	08000007 	stmdaeq	r0, {r0, r1, r2}
     32c:	0002bb87 	andeq	fp, r2, r7, lsl #23
     330:	14f91100 	ldrbtne	r1, [r9], #256	; 0x100
     334:	88080000 	stmdahi	r8, {}	; <UNPREDICTABLE>
     338:	000002bb 			; <UNDEFINED> instruction: 0x000002bb
     33c:	0012c311 	andseq	ip, r2, r1, lsl r3
     340:	bb890800 	bllt	fe242348 <__bss_end__+0xfe22d2dc>
     344:	09000002 	stmdbeq	r0, {r1}
     348:	00000e7d 	andeq	r0, r0, sp, ror lr
     34c:	6c090908 			; <UNDEFINED> instruction: 0x6c090908
     350:	0a000003 	beq	364 <_init-0x3b4>
     354:	000015da 	ldrdeq	r1, [r0], -sl
     358:	00c30b09 	sbceq	r0, r3, r9, lsl #22
     35c:	0a000000 	beq	364 <_init-0x3b4>
     360:	000012d4 	ldrdeq	r1, [r0], -r4
     364:	00d50c09 	sbcseq	r0, r5, r9, lsl #24
     368:	00040000 	andeq	r0, r4, r0
     36c:	0010ca03 	andseq	ip, r0, r3, lsl #20
     370:	c3070a00 	movwgt	r0, #31232	; 0x7a00
     374:	0d000000 	stceq	0, cr0, [r0, #-0]
     378:	000000e0 	andeq	r0, r0, r0, ror #1
     37c:	00000387 	andeq	r0, r0, r7, lsl #7
     380:	0000250e 	andeq	r2, r0, lr, lsl #10
     384:	11000100 	mrsne	r0, (UNDEF: 16)
     388:	0000021d 	andeq	r0, r0, sp, lsl r2
     38c:	03779f0b 	cmneq	r7, #11, 30	; 0x2c
     390:	e7110000 	ldr	r0, [r1, -r0]
     394:	0b000013 	bleq	3e8 <_init-0x330>
     398:	000045a0 	andeq	r4, r0, r0, lsr #11
     39c:	053b1100 	ldreq	r1, [fp, #-256]!	; 0xffffff00
     3a0:	a10b0000 	mrsge	r0, (UNDEF: 11)
     3a4:	0000004c 	andeq	r0, r0, ip, asr #32
     3a8:	00021f11 	andeq	r1, r2, r1, lsl pc
     3ac:	77a60b00 	strvc	r0, [r6, r0, lsl #22]!
     3b0:	10000003 	andne	r0, r0, r3
     3b4:	0000042b 	andeq	r0, r0, fp, lsr #8
     3b8:	bf02220c 	svclt	0x0002220c
     3bc:	07000003 	streq	r0, [r0, -r3]
     3c0:	0000e004 	andeq	lr, r0, r4
     3c4:	14cf1100 	strbne	r1, [pc], #256	; 3cc <_init-0x34c>
     3c8:	240d0000 	strcs	r0, [sp], #-0
     3cc:	000000e0 	andeq	r0, r0, r0, ror #1
     3d0:	0008f111 	andeq	pc, r8, r1, lsl r1	; <UNPREDICTABLE>
     3d4:	45320d00 	ldrmi	r0, [r2, #-3328]!	; 0xfffff300
     3d8:	11000000 	mrsne	r0, (UNDEF: 0)
     3dc:	000010a0 	andeq	r1, r0, r0, lsr #1
     3e0:	0045370d 	subeq	r3, r5, sp, lsl #14
     3e4:	19110000 	ldmdbne	r1, {}	; <UNPREDICTABLE>
     3e8:	0d00000f 	stceq	0, cr0, [r0, #-60]	; 0xffffffc4
     3ec:	0000453b 	andeq	r4, r0, fp, lsr r5
     3f0:	032f0300 			; <UNDEFINED> instruction: 0x032f0300
     3f4:	180e0000 	stmdane	lr, {}	; <UNPREDICTABLE>
     3f8:	0000006f 	andeq	r0, r0, pc, rrx
     3fc:	0006b903 	andeq	fp, r6, r3, lsl #18
     400:	81190e00 	tsthi	r9, r0, lsl #28
     404:	03000000 	movweq	r0, #0
     408:	00000a6c 	andeq	r0, r0, ip, ror #20
     40c:	008c1a0e 	addeq	r1, ip, lr, lsl #20
     410:	07120000 	ldreq	r0, [r2, -r0]
     414:	03000004 	movweq	r0, #4
     418:	0000092d 	andeq	r0, r0, sp, lsr #18
     41c:	00971b0e 	addseq	r1, r7, lr, lsl #22
     420:	85100000 	ldrhi	r0, [r0, #-0]
     424:	0f000014 	svceq	0x00000014
     428:	031b02d3 	tsteq	fp, #805306381	; 0x3000000d
     42c:	90100000 	andsls	r0, r0, r0
     430:	0f000007 	svceq	0x00000007
     434:	003a02d5 	ldrsbteq	r0, [sl], -r5
     438:	f0100000 			; <UNDEFINED> instruction: 0xf0100000
     43c:	0f000006 	svceq	0x00000006
     440:	044602d8 	strbeq	r0, [r6], #-728	; 0xfffffd28
     444:	04070000 	streq	r0, [r7], #-0
     448:	00000407 	andeq	r0, r0, r7, lsl #8
     44c:	0009c910 	andeq	ip, r9, r0, lsl r9
     450:	02dd0f00 	sbcseq	r0, sp, #0, 30
     454:	00000458 	andeq	r0, r0, r8, asr r4
     458:	04120407 	ldreq	r0, [r2], #-1031	; 0xfffffbf9
     45c:	13100000 	tstne	r0, #0
     460:	0f00000b 	svceq	0x0000000b
     464:	045802e2 	ldrbeq	r0, [r8], #-738	; 0xfffffd1e
     468:	20100000 	andscs	r0, r0, r0
     46c:	0f000010 	svceq	0x00000010
     470:	045802e7 	ldrbeq	r0, [r8], #-743	; 0xfffffd19
     474:	a7100000 	ldrge	r0, [r0, -r0]
     478:	0f000010 	svceq	0x00000010
     47c:	045802ec 	ldrbeq	r0, [r8], #-748	; 0xfffffd14
     480:	08100000 	ldmdaeq	r0, {}	; <UNPREDICTABLE>
     484:	0f000005 	svceq	0x00000005
     488:	045802f1 	ldrbeq	r0, [r8], #-753	; 0xfffffd0f
     48c:	eb100000 	bl	400494 <__bss_end__+0x3eb428>
     490:	0f00000b 	svceq	0x0000000b
     494:	045802f6 	ldrbeq	r0, [r8], #-758	; 0xfffffd0a
     498:	2d100000 	ldccs	0, cr0, [r0, #-0]
     49c:	0f000008 	svceq	0x00000008
     4a0:	045802fb 	ldrbeq	r0, [r8], #-763	; 0xfffffd05
     4a4:	3a100000 	bcc	4004ac <__bss_end__+0x3eb440>
     4a8:	0f000008 	svceq	0x00000008
     4ac:	04580300 	ldrbeq	r0, [r8], #-768	; 0xfffffd00
     4b0:	6e100000 	cdpvs	0, 1, cr0, cr0, cr0, {0}
     4b4:	0f00000d 	svceq	0x0000000d
     4b8:	04580305 	ldrbeq	r0, [r8], #-773	; 0xfffffcfb
     4bc:	f8100000 			; <UNDEFINED> instruction: 0xf8100000
     4c0:	0f00000b 	svceq	0x0000000b
     4c4:	0458030a 	ldrbeq	r0, [r8], #-778	; 0xfffffcf6
     4c8:	f1100000 	setpan	#0
     4cc:	0f000015 	svceq	0x00000015
     4d0:	04580310 	ldrbeq	r0, [r8], #-784	; 0xfffffcf0
     4d4:	07130000 	ldreq	r0, [r3, -r0]
     4d8:	00002504 	andeq	r2, r0, r4, lsl #10
     4dc:	03160f00 	tsteq	r6, #0, 30
     4e0:	00000527 	andeq	r0, r0, r7, lsr #10
     4e4:	00152c14 	andseq	r2, r5, r4, lsl ip
     4e8:	c2140100 	andsgt	r0, r4, #0, 2
     4ec:	02000006 	andeq	r0, r0, #6
     4f0:	00124e14 	andseq	r4, r2, r4, lsl lr
     4f4:	76140300 	ldrvc	r0, [r4], -r0, lsl #6
     4f8:	04000012 	streq	r0, [r0], #-18	; 0xffffffee
     4fc:	000dc014 	andeq	ip, sp, r4, lsl r0
     500:	66140500 	ldrvs	r0, [r4], -r0, lsl #10
     504:	06000007 	streq	r0, [r0], -r7
     508:	00046414 	andeq	r6, r4, r4, lsl r4
     50c:	79140700 	ldmdbvc	r4, {r8, r9, sl}
     510:	08000004 	stmdaeq	r0, {r2}
     514:	000fb314 	andeq	fp, pc, r4, lsl r3	; <UNPREDICTABLE>
     518:	7b140900 	blvc	502920 <__bss_end__+0x4ed8b4>
     51c:	0a000007 	beq	540 <_init-0x1d8>
     520:	0000eb14 	andeq	lr, r0, r4, lsl fp
     524:	13000b00 	movwne	r0, #2816	; 0xb00
     528:	00250407 	eoreq	r0, r5, r7, lsl #8
     52c:	5b0f0000 	blpl	3c0534 <__bss_end__+0x3ab4c8>
     530:	00056c03 	andeq	r6, r5, r3, lsl #24
     534:	04ca1400 	strbeq	r1, [sl], #1024	; 0x400
     538:	14000000 	strne	r0, [r0], #-0
     53c:	000010d1 	ldrdeq	r1, [r0], -r1	; <UNPREDICTABLE>
     540:	12f31401 	rscsne	r1, r3, #16777216	; 0x1000000
     544:	14040000 	strne	r0, [r4], #-0
     548:	0000130a 	andeq	r1, r0, sl, lsl #6
     54c:	13211405 			; <UNDEFINED> instruction: 0x13211405
     550:	14060000 	strne	r0, [r6], #-0
     554:	000012dc 	ldrdeq	r1, [r0], -ip
     558:	13471407 	movtne	r1, #29703	; 0x7407
     55c:	14030000 	strne	r0, [r3], #-0
     560:	0000135e 	andeq	r1, r0, lr, asr r3
     564:	0e501402 	cdpeq	4, 5, cr1, cr0, cr2, {0}
     568:	00070000 	andeq	r0, r7, r0
     56c:	25040713 	strcs	r0, [r4, #-1811]	; 0xfffff8ed
     570:	0f000000 	svceq	0x00000000
     574:	058d036b 	streq	r0, [sp, #875]	; 0x36b
     578:	4f140000 	svcmi	0x00140000
     57c:	00000004 	andeq	r0, r0, r4
     580:	00137514 	andseq	r7, r3, r4, lsl r5
     584:	1e140100 	mufnes	f0, f4, f0
     588:	02000005 	andeq	r0, r0, #5
     58c:	04071300 	streq	r1, [r7], #-768	; 0xfffffd00
     590:	00000025 	andeq	r0, r0, r5, lsr #32
     594:	52039f0f 	andpl	r9, r3, #15, 30	; 0x3c
     598:	14000007 	strne	r0, [r0], #-7
     59c:	00000aaf 	andeq	r0, r0, pc, lsr #21
     5a0:	0abe1400 	beq	fef855a8 <__bss_end__+0xfef7053c>
     5a4:	14010000 	strne	r0, [r1], #-0
     5a8:	00000acd 	andeq	r0, r0, sp, asr #21
     5ac:	0adc1404 	beq	ff7055c4 <__bss_end__+0xff6f0558>
     5b0:	140e0000 	strne	r0, [lr], #-0
     5b4:	00000b33 	andeq	r0, r0, r3, lsr fp
     5b8:	0b42140f 	bleq	10855fc <__bss_end__+0x1070590>
     5bc:	14110000 	ldrne	r0, [r1], #-0
     5c0:	00000b51 	andeq	r0, r0, r1, asr fp
     5c4:	0b601412 	bleq	1805614 <__bss_end__+0x17f05a8>
     5c8:	14150000 	ldrne	r0, [r5], #-0
     5cc:	00000b6f 	andeq	r0, r0, pc, ror #22
     5d0:	0b7e1416 	bleq	1f85630 <__bss_end__+0x1f705c4>
     5d4:	14170000 	ldrne	r0, [r7], #-0
     5d8:	00000b8d 	andeq	r0, r0, sp, lsl #23
     5dc:	0b9c1418 	bleq	fe705644 <__bss_end__+0xfe6f05d8>
     5e0:	140a0000 	strne	r0, [sl], #-0
     5e4:	00000c1b 	andeq	r0, r0, fp, lsl ip
     5e8:	0c2a1409 	cfstrseq	mvf1, [sl], #-36	; 0xffffffdc
     5ec:	14190000 	ldrne	r0, [r9], #-0
     5f0:	00000c39 	andeq	r0, r0, r9, lsr ip
     5f4:	0c48140b 	cfstrdeq	mvd1, [r8], {11}
     5f8:	14080000 	strne	r0, [r8], #-0
     5fc:	00000c57 	andeq	r0, r0, r7, asr ip
     600:	0df01407 	cfldrdeq	mvd1, [r0, #28]!
     604:	14020000 	strne	r0, [r2], #-0
     608:	00000e02 	andeq	r0, r0, r2, lsl #28
     60c:	0e141403 	cfmulseq	mvf1, mvf4, mvf3
     610:	14040000 	strne	r0, [r4], #-0
     614:	00000e26 	andeq	r0, r0, r6, lsr #28
     618:	0ef5140e 	cdpeq	4, 15, cr1, cr5, cr14, {0}
     61c:	140f0000 	strne	r0, [pc], #-0	; 624 <_init-0xf4>
     620:	00000f07 	andeq	r0, r0, r7, lsl #30
     624:	05a21411 	streq	r1, [r2, #1041]!	; 0x411
     628:	14120000 	ldrne	r0, [r2], #-0
     62c:	00000f20 	andeq	r0, r0, r0, lsr #30
     630:	0f32141b 	svceq	0x0032141b
     634:	14160000 	ldrne	r0, [r6], #-0
     638:	00000f44 	andeq	r0, r0, r4, asr #30
     63c:	0f561417 	svceq	0x00561417
     640:	14180000 	ldrne	r0, [r8], #-0
     644:	00000f68 	andeq	r0, r0, r8, ror #30
     648:	100e140a 	andne	r1, lr, sl, lsl #8
     64c:	14090000 	strne	r0, [r9], #-0
     650:	00000704 	andeq	r0, r0, r4, lsl #14
     654:	102c1419 	eorne	r1, ip, r9, lsl r4
     658:	140b0000 	strne	r0, [fp], #-0
     65c:	0000103e 	andeq	r1, r0, lr, lsr r0
     660:	10651408 	rsbne	r1, r5, r8, lsl #8
     664:	14070000 	strne	r0, [r7], #-0
     668:	00001077 	andeq	r1, r0, r7, ror r0
     66c:	110d1405 	tstne	sp, r5, lsl #8
     670:	14060000 	strne	r0, [r6], #-0
     674:	0000111f 	andeq	r1, r0, pc, lsl r1
     678:	1131140c 	teqne	r1, ip, lsl #8
     67c:	140d0000 	strne	r0, [sp], #-0
     680:	00001143 	andeq	r1, r0, r3, asr #2
     684:	081b1413 	ldmdaeq	fp, {r0, r1, r4, sl, ip}
     688:	14100000 	ldrne	r0, [r0], #-0
     68c:	00001165 	andeq	r1, r0, r5, ror #2
     690:	0009141a 	andeq	r1, r9, sl, lsl r4
     694:	14140000 	ldrne	r0, [r4], #-0
     698:	0000123c 	andeq	r1, r0, ip, lsr r2
     69c:	0e9c1415 	mrceq	4, 4, r1, cr12, cr5, {0}
     6a0:	141c0000 	ldrne	r0, [ip], #-0
     6a4:	00000eae 	andeq	r0, r0, lr, lsr #29
     6a8:	0ec0141d 	mcreq	4, 6, r1, cr0, cr13, {0}
     6ac:	141e0000 	ldrne	r0, [lr], #-0
     6b0:	00000ed2 	ldrdeq	r0, [r0], -r2
     6b4:	0063141f 	rsbeq	r1, r3, pc, lsl r4
     6b8:	14020000 	strne	r0, [r2], #-0
     6bc:	00000078 	andeq	r0, r0, r8, ror r0
     6c0:	008d1403 	addeq	r1, sp, r3, lsl #8
     6c4:	14040000 	strne	r0, [r4], #-0
     6c8:	000000a2 	andeq	r0, r0, r2, lsr #1
     6cc:	0117140e 	tsteq	r7, lr, lsl #8
     6d0:	140f0000 	strne	r0, [pc], #-0	; 6d8 <_init-0x40>
     6d4:	00000945 	andeq	r0, r0, r5, asr #18
     6d8:	013b1411 	teqeq	fp, r1, lsl r4
     6dc:	14120000 	ldrne	r0, [r2], #-0
     6e0:	00000150 	andeq	r0, r0, r0, asr r1
     6e4:	0165141b 	cmneq	r5, fp, lsl r4
     6e8:	14160000 	ldrne	r0, [r6], #-0
     6ec:	0000017a 	andeq	r0, r0, sl, ror r1
     6f0:	018f1417 	orreq	r1, pc, r7, lsl r4	; <UNPREDICTABLE>
     6f4:	14180000 	ldrne	r0, [r8], #-0
     6f8:	000001a4 	andeq	r0, r0, r4, lsr #3
     6fc:	0234140a 	eorseq	r1, r4, #167772160	; 0xa000000
     700:	14090000 	strne	r0, [r9], #-0
     704:	00000249 	andeq	r0, r0, r9, asr #4
     708:	025e1419 	subseq	r1, lr, #419430400	; 0x19000000
     70c:	140b0000 	strne	r0, [fp], #-0
     710:	00000273 	andeq	r0, r0, r3, ror r2
     714:	02881408 	addeq	r1, r8, #8, 8	; 0x8000000
     718:	14070000 	strne	r0, [r7], #-0
     71c:	0000029d 	muleq	r0, sp, r2
     720:	035b1405 	cmpeq	fp, #83886080	; 0x5000000
     724:	14060000 	strne	r0, [r6], #-0
     728:	00000370 	andeq	r0, r0, r0, ror r3
     72c:	0385140c 	orreq	r1, r5, #12, 8	; 0xc000000
     730:	140d0000 	strne	r0, [sp], #-0
     734:	0000039a 	muleq	r0, sl, r3
     738:	03af1413 			; <UNDEFINED> instruction: 0x03af1413
     73c:	14100000 	ldrne	r0, [r0], #-0
     740:	000003c4 	andeq	r0, r0, r4, asr #7
     744:	03d9141a 	bicseq	r1, r9, #436207616	; 0x1a000000
     748:	14140000 	ldrne	r0, [r4], #-0
     74c:	000004aa 	andeq	r0, r0, sl, lsr #9
     750:	07130015 			; <UNDEFINED> instruction: 0x07130015
     754:	00002504 	andeq	r2, r0, r4, lsl #10
     758:	04540f00 	ldrbeq	r0, [r4], #-3840	; 0xfffff100
     75c:	0000076d 	andeq	r0, r0, sp, ror #14
     760:	00056e14 	andeq	r6, r5, r4, lsl lr
     764:	b4140000 	ldrlt	r0, [r4], #-0
     768:	01000011 	tsteq	r0, r1, lsl r0
     76c:	04071300 	streq	r1, [r7], #-768	; 0xfffffd00
     770:	00000025 	andeq	r0, r0, r5, lsr #32
     774:	9404c70f 	strls	ip, [r4], #-1807	; 0xfffff8f1
     778:	14000007 	strne	r0, [r0], #-7
     77c:	00000987 	andeq	r0, r0, r7, lsl #19
     780:	121e1400 	andsne	r1, lr, #0, 8
     784:	14010000 	strne	r0, [r1], #-0
     788:	00000feb 	andeq	r0, r0, fp, ror #31
     78c:	06521402 	ldrbeq	r1, [r2], -r2, lsl #8
     790:	00040000 	andeq	r0, r4, r0
     794:	00042215 	andeq	r2, r4, r5, lsl r2
     798:	052b0100 	streq	r0, [fp, #-256]!	; 0xffffff00
     79c:	01505403 	cmpeq	r0, r3, lsl #8
     7a0:	042e1500 	strteq	r1, [lr], #-1280	; 0xfffffb00
     7a4:	2c010000 	stccs	0, cr0, [r1], {-0}
     7a8:	50200305 	eorpl	r0, r0, r5, lsl #6
     7ac:	3a150001 	bcc	5407b8 <__bss_end__+0x52b74c>
     7b0:	01000004 	tsteq	r0, r4
     7b4:	1c030530 	cfstr32ne	mvfx0, [r3], {48}	; 0x30
     7b8:	15000150 	strne	r0, [r0, #-336]	; 0xfffffeb0
     7bc:	0000045e 	andeq	r0, r0, lr, asr r4
     7c0:	03053401 	movweq	r3, #21505	; 0x5401
     7c4:	00015024 	andeq	r5, r1, r4, lsr #32
     7c8:	00046a15 	andeq	r6, r4, r5, lsl sl
     7cc:	05350100 	ldreq	r0, [r5, #-256]!	; 0xffffff00
     7d0:	01502803 	cmpeq	r0, r3, lsl #16
     7d4:	04761500 	ldrbteq	r1, [r6], #-1280	; 0xfffffb00
     7d8:	36010000 	strcc	r0, [r1], -r0
     7dc:	502c0305 	eorpl	r0, ip, r5, lsl #6
     7e0:	82150001 	andshi	r0, r5, #1
     7e4:	01000004 	tsteq	r0, r4
     7e8:	30030537 	andcc	r0, r3, r7, lsr r5
     7ec:	15000150 	strne	r0, [r0, #-336]	; 0xfffffeb0
     7f0:	0000048e 	andeq	r0, r0, lr, lsl #9
     7f4:	03053801 	movweq	r3, #22529	; 0x5801
     7f8:	00015034 	andeq	r5, r1, r4, lsr r0
     7fc:	00049a15 	andeq	r9, r4, r5, lsl sl
     800:	05390100 	ldreq	r0, [r9, #-256]!	; 0xffffff00
     804:	01503803 	cmpeq	r0, r3, lsl #16
     808:	04a61500 	strteq	r1, [r6], #1280	; 0x500
     80c:	3a010000 	bcc	40814 <__bss_end__+0x2b7a8>
     810:	503c0305 	eorspl	r0, ip, r5, lsl #6
     814:	4c150001 	ldcmi	0, cr0, [r5], {1}
     818:	01000004 	tsteq	r0, r4
     81c:	4003053b 	andmi	r0, r3, fp, lsr r5
     820:	15000150 	strne	r0, [r0, #-336]	; 0xfffffeb0
     824:	000004b2 			; <UNDEFINED> instruction: 0x000004b2
     828:	03053c01 	movweq	r3, #23553	; 0x5c01
     82c:	00015044 	andeq	r5, r1, r4, asr #32
     830:	0004be15 	andeq	fp, r4, r5, lsl lr
     834:	053d0100 	ldreq	r0, [sp, #-256]!	; 0xffffff00
     838:	01504803 	cmpeq	r0, r3, lsl #16
     83c:	04ca1500 	strbeq	r1, [sl], #1280	; 0x500
     840:	3f010000 	svccc	0x00010000
     844:	504c0305 	subpl	r0, ip, r5, lsl #6
     848:	da160001 	ble	580854 <__bss_end__+0x56b7e8>
     84c:	01000002 	tsteq	r0, r2
     850:	0003f147 	andeq	pc, r3, r7, asr #2
     854:	60030500 	andvs	r0, r3, r0, lsl #10
     858:	16000150 			; <UNDEFINED> instruction: 0x16000150
     85c:	000007b2 			; <UNDEFINED> instruction: 0x000007b2
     860:	03f14b01 	mvnseq	r4, #1024	; 0x400
     864:	03050000 	movweq	r0, #20480	; 0x5000
     868:	00015061 	andeq	r5, r1, r1, rrx
     86c:	000cd816 	andeq	sp, ip, r6, lsl r8
     870:	f14f0100 			; <UNDEFINED> instruction: 0xf14f0100
     874:	05000003 	streq	r0, [r0, #-3]
     878:	01506203 	cmpeq	r0, r3, lsl #4
     87c:	09fe1600 	ldmibeq	lr!, {r9, sl, ip}^
     880:	53010000 	movwpl	r0, #4096	; 0x1000
     884:	00000045 	andeq	r0, r0, r5, asr #32
     888:	50680305 	rsbpl	r0, r8, r5, lsl #6
     88c:	c7160001 	ldrgt	r0, [r6, -r1]
     890:	0100000f 	tsteq	r0, pc
     894:	0003f158 	andeq	pc, r3, r8, asr r1	; <UNPREDICTABLE>
     898:	50030500 	andpl	r0, r3, r0, lsl #10
     89c:	0d000150 	stfeqs	f0, [r0, #-320]	; 0xfffffec0
     8a0:	000003f1 	strdeq	r0, [r0], -r1
     8a4:	000008af 	andeq	r0, r0, pc, lsr #17
     8a8:	0000250e 	andeq	r2, r0, lr, lsl #10
     8ac:	1600ff00 	strne	pc, [r0], -r0, lsl #30
     8b0:	000013cc 	andeq	r1, r0, ip, asr #7
     8b4:	089f5901 	ldmeq	pc, {r0, r8, fp, ip, lr}	; <UNPREDICTABLE>
     8b8:	03050000 	movweq	r0, #20480	; 0x5000
     8bc:	00004140 	andeq	r4, r0, r0, asr #2
     8c0:	0013b017 	andseq	fp, r3, r7, lsl r0
     8c4:	03e80100 	mvneq	r0, #0, 2
     8c8:	00000407 	andeq	r0, r0, r7, lsl #8
     8cc:	50640305 	rsbpl	r0, r4, r5, lsl #6
     8d0:	b9180001 	ldmdblt	r8, {r0}
     8d4:	01000002 	tsteq	r0, r2
     8d8:	0045085b 	subeq	r0, r5, fp, asr r8
     8dc:	19010000 	stmdbne	r1, {}	; <UNPREDICTABLE>
     8e0:	000003ee 	andeq	r0, r0, lr, ror #7
     8e4:	4507bf01 	strmi	fp, [r7, #-3841]	; 0xfffff0ff
     8e8:	d0000000 	andle	r0, r0, r0
     8ec:	9400003d 	strls	r0, [r0], #-61	; 0xffffffc3
     8f0:	01000002 	tsteq	r0, r2
     8f4:	000b5a9c 	muleq	fp, ip, sl
     8f8:	00ff1a00 	rscseq	r1, pc, r0, lsl #20
     8fc:	c1010000 	mrsgt	r0, (UNDEF: 1)
     900:	00004507 	andeq	r4, r0, r7, lsl #10
     904:	00000000 	andeq	r0, r0, r0
     908:	6b6f1b00 	blvs	1bc7510 <__bss_end__+0x1bb24a4>
     90c:	07c20100 	strbeq	r0, [r2, r0, lsl #2]
     910:	00000045 	andeq	r0, r0, r5, asr #32
     914:	00000022 	andeq	r0, r0, r2, lsr #32
     918:	0070661b 	rsbseq	r6, r0, fp, lsl r6
     91c:	5a07c301 	bpl	1f1528 <__bss_end__+0x1dc4bc>
     920:	6600000b 	strvs	r0, [r0], -fp
     924:	1c000000 	stcne	0, cr0, [r0], {-0}
     928:	00001574 	andeq	r1, r0, r4, ror r5
     92c:	1d085001 	stcne	0, cr5, [r8, #-4]
     930:	00000748 	andeq	r0, r0, r8, asr #14
     934:	000009d1 	ldrdeq	r0, [r0], -r1
     938:	6675621e 			; <UNDEFINED> instruction: 0x6675621e
     93c:	07df0100 	ldrbeq	r0, [pc, r0, lsl #2]
     940:	00000b65 	andeq	r0, r0, r5, ror #22
     944:	1a549102 	bne	1524d54 <__bss_end__+0x150fce8>
     948:	00000aa2 	andeq	r0, r0, r2, lsr #21
     94c:	0707e001 	streq	lr, [r7, -r1]
     950:	a5000004 	strge	r0, [r0, #-4]
     954:	1a000000 	bne	95c <_start+0x40>
     958:	000009d4 	ldrdeq	r0, [r0], -r4
     95c:	0707e101 	streq	lr, [r7, -r1, lsl #2]
     960:	dd000004 	stcle	0, cr0, [r0, #-16]
     964:	1f000000 	svcne	0x00000000
     968:	00004e1f 	andeq	r4, r0, pc, lsl lr
     96c:	00003e7c 	andeq	r3, r0, ip, ror lr
     970:	0000000c 	andeq	r0, r0, ip
     974:	c007e201 	andgt	lr, r7, r1, lsl #4
     978:	20000009 	andcs	r0, r0, r9
     97c:	00004e54 	andeq	r4, r0, r4, asr lr
     980:	00000142 	andeq	r0, r0, r2, asr #2
     984:	004e4820 	subeq	r4, lr, r0, lsr #16
     988:	00016b00 	andeq	r6, r1, r0, lsl #22
     98c:	4e3c2000 	cdpmi	0, 3, cr2, cr12, cr0, {0}
     990:	017f0000 	cmneq	pc, r0
     994:	30200000 	eorcc	r0, r0, r0
     998:	9300004e 	movwls	r0, #78	; 0x4e
     99c:	21000001 	tstcs	r0, r1
     9a0:	00003e88 	andeq	r3, r0, r8, lsl #29
     9a4:	000055f5 	strdeq	r5, [r0], -r5	; <UNPREDICTABLE>
     9a8:	02500122 	subseq	r0, r0, #-2147483640	; 0x80000008
     9ac:	01225491 			; <UNDEFINED> instruction: 0x01225491
     9b0:	22310151 	eorscs	r0, r1, #1073741844	; 0x40000014
     9b4:	40015201 	andmi	r5, r1, r1, lsl #4
     9b8:	02530122 	subseq	r0, r3, #-2147483640	; 0x80000008
     9bc:	00000076 	andeq	r0, r0, r6, ror r0
     9c0:	003eaa21 	eorseq	sl, lr, r1, lsr #20
     9c4:	00560500 	subseq	r0, r6, r0, lsl #10
     9c8:	50012200 	andpl	r2, r1, r0, lsl #4
     9cc:	00007602 	andeq	r7, r0, r2, lsl #12
     9d0:	4df72300 	ldclmi	3, cr2, [r7]
     9d4:	3eae0000 	cdpcc	0, 10, cr0, cr14, cr0, {0}
     9d8:	07600000 	strbeq	r0, [r0, -r0]!
     9dc:	1e010000 	cdpne	0, 0, cr0, cr1, cr0, {0}
     9e0:	000a0108 	andeq	r0, sl, r8, lsl #2
     9e4:	4e122000 	cdpmi	0, 1, cr2, cr2, cr0, {0}
     9e8:	01c00000 	biceq	r0, r0, r0
     9ec:	07200000 	streq	r0, [r0, -r0]!
     9f0:	d800004e 	stmdale	r0, {r1, r2, r3, r6}
     9f4:	24000001 	strcs	r0, [r0], #-1
     9f8:	00003ec2 	andeq	r3, r0, r2, asr #29
     9fc:	00005610 	andeq	r5, r0, r0, lsl r6
     a00:	4df71f00 	ldclmi	15, cr1, [r7]
     a04:	3f300000 	svccc	0x00300000
     a08:	000c0000 	andeq	r0, ip, r0
     a0c:	41010000 	mrsmi	r0, (UNDEF: 1)
     a10:	000a3108 	andeq	r3, sl, r8, lsl #2
     a14:	4e122000 	cdpmi	0, 1, cr2, cr2, cr0, {0}
     a18:	01f00000 	mvnseq	r0, r0
     a1c:	07200000 	streq	r0, [r0, -r0]!
     a20:	0800004e 	stmdaeq	r0, {r1, r2, r3, r6}
     a24:	24000002 	strcs	r0, [r0], #-2
     a28:	00003f3c 	andeq	r3, r0, ip, lsr pc
     a2c:	00005610 	andeq	r5, r0, r0, lsl r6
     a30:	08d21f00 	ldmeq	r2, {r8, r9, sl, fp, ip}^
     a34:	3f6a0000 	svccc	0x006a0000
     a38:	00160000 	andseq	r0, r6, r0
     a3c:	55010000 	strpl	r0, [r1, #-0]
     a40:	000a4f08 	andeq	r4, sl, r8, lsl #30
     a44:	3f7c2400 	svccc	0x007c2400
     a48:	4f520000 	svcmi	0x00520000
     a4c:	1f000000 	svcne	0x00000000
     a50:	00004e7e 	andeq	r4, r0, lr, ror lr
     a54:	00003f90 	muleq	r0, r0, pc	; <UNPREDICTABLE>
     a58:	00000010 	andeq	r0, r0, r0, lsl r0
     a5c:	8b084301 	blhi	211668 <__bss_end__+0x1fc5fc>
     a60:	2000000a 	andcs	r0, r0, sl
     a64:	00004e99 	muleq	r0, r9, lr
     a68:	00000220 	andeq	r0, r0, r0, lsr #4
     a6c:	004e8e20 	subeq	r8, lr, r0, lsr #28
     a70:	00023800 	andeq	r3, r2, r0, lsl #16
     a74:	3f9e2100 	svccc	0x009e2100
     a78:	561f0000 	ldrpl	r0, [pc], -r0
     a7c:	01220000 			; <UNDEFINED> instruction: 0x01220000
     a80:	00740250 	rsbseq	r0, r4, r0, asr r2
     a84:	01510122 	cmpeq	r1, r2, lsr #2
     a88:	1f000031 	svcne	0x00000031
     a8c:	00004e7e 	andeq	r4, r0, lr, ror lr
     a90:	00003fb0 			; <UNDEFINED> instruction: 0x00003fb0
     a94:	00000012 	andeq	r0, r0, r2, lsl r0
     a98:	c7082001 	strgt	r2, [r8, -r1]
     a9c:	2000000a 	andcs	r0, r0, sl
     aa0:	00004e99 	muleq	r0, r9, lr
     aa4:	0000024b 	andeq	r0, r0, fp, asr #4
     aa8:	004e8e20 	subeq	r8, lr, r0, lsr #28
     aac:	00026300 	andeq	r6, r2, r0, lsl #6
     ab0:	3fbe2100 	svccc	0x00be2100
     ab4:	561f0000 	ldrpl	r0, [pc], -r0
     ab8:	01220000 			; <UNDEFINED> instruction: 0x01220000
     abc:	00740250 	rsbseq	r0, r4, r0, asr r2
     ac0:	01510122 	cmpeq	r1, r2, lsr #2
     ac4:	24000031 	strcs	r0, [r0], #-49	; 0xffffffcf
     ac8:	00003e78 	andeq	r3, r0, r8, ror lr
     acc:	0000562a 	andeq	r5, r0, sl, lsr #12
     ad0:	003eae24 	eorseq	sl, lr, r4, lsr #28
     ad4:	00563500 	subseq	r3, r6, r0, lsl #10
     ad8:	3ed42500 	cdpcc	5, 13, cr2, cr4, cr0, {0}
     adc:	4f920000 	svcmi	0x00920000
     ae0:	0aed0000 	beq	ffb40ae8 <__bss_end__+0xffb2ba7c>
     ae4:	01220000 			; <UNDEFINED> instruction: 0x01220000
     ae8:	00760251 	rsbseq	r0, r6, r1, asr r2
     aec:	3f2c2400 	svccc	0x002c2400
     af0:	56410000 	strbpl	r0, [r1], -r0
     af4:	52250000 	eorpl	r0, r5, #0
     af8:	9200003f 	andls	r0, r0, #63	; 0x3f
     afc:	0f00004f 	svceq	0x0000004f
     b00:	2200000b 	andcs	r0, r0, #11
     b04:	76025101 	strvc	r5, [r2], -r1, lsl #2
     b08:	52012200 	andpl	r2, r1, #0, 4
     b0c:	25003001 	strcs	r3, [r0, #-1]
     b10:	00003f62 	andeq	r3, r0, r2, ror #30
     b14:	00005641 	andeq	r5, r0, r1, asr #12
     b18:	00000b23 	andeq	r0, r0, r3, lsr #22
     b1c:	02500122 	subseq	r0, r0, #-2147483640	; 0x80000008
     b20:	24000076 	strcs	r0, [r0], #-118	; 0xffffff8a
     b24:	00003f6a 	andeq	r3, r0, sl, ror #30
     b28:	00005641 	andeq	r5, r0, r1, asr #12
     b2c:	003f8a24 	eorseq	r8, pc, r4, lsr #20
     b30:	00564d00 	subseq	r4, r6, r0, lsl #26
     b34:	3f902400 	svccc	0x00902400
     b38:	56580000 	ldrbpl	r0, [r8], -r0
     b3c:	aa240000 	bge	900b44 <__bss_end__+0x8ebad8>
     b40:	4d00003f 	stcmi	0, cr0, [r0, #-252]	; 0xffffff04
     b44:	24000056 	strcs	r0, [r0], #-86	; 0xffffffaa
     b48:	00003fb0 			; <UNDEFINED> instruction: 0x00003fb0
     b4c:	00005658 	andeq	r5, r0, r8, asr r6
     b50:	00402424 	subeq	r2, r0, r4, lsr #8
     b54:	00566400 	subseq	r6, r6, r0, lsl #8
     b58:	04070000 	streq	r0, [r7], #-0
     b5c:	00000272 	andeq	r0, r0, r2, ror r2
     b60:	000b5a06 	andeq	r5, fp, r6, lsl #20
     b64:	00330d00 	eorseq	r0, r3, r0, lsl #26
     b68:	0b750000 	bleq	1d40b70 <__bss_end__+0x1d2bb04>
     b6c:	250e0000 	strcs	r0, [lr, #-0]
     b70:	0f000000 	svceq	0x00000000
     b74:	0e472600 	cdpeq	6, 4, cr2, cr7, cr0, {0}
     b78:	b7010000 	strlt	r0, [r1, -r0]
     b7c:	0b9b0107 	bleq	fe6c0fa0 <__bss_end__+0xfe6abf34>
     b80:	4b270000 	blmi	9c0b88 <__bss_end__+0x9abb1c>
     b84:	0100000e 	tsteq	r0, lr
     b88:	0b9b07b7 	bleq	fe6c2a6c <__bss_end__+0xfe6ada00>
     b8c:	f9270000 			; <UNDEFINED> instruction: 0xf9270000
     b90:	01000009 	tsteq	r0, r9
     b94:	003a07b7 	ldrhteq	r0, [sl], -r7
     b98:	07000000 	streq	r0, [r0, -r0]
     b9c:	0000ce04 	andeq	ip, r0, r4, lsl #28
     ba0:	0e492800 	cdpeq	8, 4, cr2, cr9, cr0, {0}
     ba4:	af010000 	svcge	0x00010000
     ba8:	0000ce07 	andeq	ip, r0, r7, lsl #28
     bac:	0bee0100 	bleq	ffb80fb4 <__bss_end__+0xffb6bf48>
     bb0:	6d290000 	stcvs	0, cr0, [r9, #-0]
     bb4:	01006773 	tsteq	r0, r3, ror r7
     bb8:	031007af 	tsteq	r0, #45875200	; 0x2bc0000
     bbc:	f9270000 			; <UNDEFINED> instruction: 0xf9270000
     bc0:	01000009 	tsteq	r0, r9
     bc4:	003a07af 	eorseq	r0, sl, pc, lsr #15
     bc8:	66290000 	strtvs	r0, [r9], -r0
     bcc:	af010064 	svcge	0x00010064
     bd0:	00004507 	andeq	r4, r0, r7, lsl #10
     bd4:	666f2900 	strbtvs	r2, [pc], -r0, lsl #18
     bd8:	af010066 	svcge	0x00010066
     bdc:	00031b07 	andeq	r1, r3, r7, lsl #22
     be0:	616d2a00 	cmnvs	sp, r0, lsl #20
     be4:	b1010070 	tstlt	r1, r0, ror r0
     be8:	0000ce07 	andeq	ip, r0, r7, lsl #28
     bec:	d2190000 	andsle	r0, r9, #0
     bf0:	01000000 	mrseq	r0, (UNDEF: 0)
     bf4:	00ce07a4 	sbceq	r0, lr, r4, lsr #15
     bf8:	3d840000 	stccc	0, cr0, [r4]
     bfc:	004c0000 	subeq	r0, ip, r0
     c00:	9c010000 	stcls	0, cr0, [r1], {-0}
     c04:	00000c58 	andeq	r0, r0, r8, asr ip
     c08:	0009f92b 	andeq	pc, r9, fp, lsr #18
     c0c:	07a40100 	streq	r0, [r4, r0, lsl #2]!
     c10:	0000003a 	andeq	r0, r0, sl, lsr r0
     c14:	00000276 	andeq	r0, r0, r6, ror r2
     c18:	6d656d2a 	stclvs	13, cr6, [r5, #-168]!	; 0xffffff58
     c1c:	07a60100 	streq	r0, [r6, r0, lsl #2]!
     c20:	000000ce 	andeq	r0, r0, lr, asr #1
     c24:	003d9a24 	eorseq	r9, sp, r4, lsr #20
     c28:	00564d00 	subseq	r4, r6, r0, lsl #26
     c2c:	3da82500 	cfstr32cc	mvfx2, [r8]
     c30:	566d0000 	strbtpl	r0, [sp], -r0
     c34:	0c4e0000 	mareq	acc0, r0, lr
     c38:	01220000 			; <UNDEFINED> instruction: 0x01220000
     c3c:	007d0250 	rsbseq	r0, sp, r0, asr r2
     c40:	03510122 	cmpeq	r1, #-2147483640	; 0x80000008
     c44:	2210000a 	andscs	r0, r0, #10
     c48:	76025201 	strvc	r5, [r2], -r1, lsl #4
     c4c:	c6240000 	strtgt	r0, [r4], -r0
     c50:	6400003d 	strvs	r0, [r0], #-61	; 0xffffffc3
     c54:	00000056 	andeq	r0, r0, r6, asr r0
     c58:	0004352c 	andeq	r3, r4, ip, lsr #10
     c5c:	07970100 	ldreq	r0, [r7, r0, lsl #2]
     c60:	00003d28 	andeq	r3, r0, r8, lsr #26
     c64:	0000005c 	andeq	r0, r0, ip, asr r0
     c68:	0ceb9c01 	stcleq	12, cr9, [fp], #4
     c6c:	ac2b0000 	stcge	0, cr0, [fp], #-0
     c70:	01000011 	tsteq	r0, r1, lsl r0
     c74:	03f10797 	mvnseq	r0, #39583744	; 0x25c0000
     c78:	02940000 	addseq	r0, r4, #0
     c7c:	452b0000 	strmi	r0, [fp, #-0]!
     c80:	01000004 	tsteq	r0, r4
     c84:	04070797 	streq	r0, [r7], #-1943	; 0xfffff869
     c88:	02ce0000 	sbceq	r0, lr, #0
     c8c:	f5230000 			; <UNDEFINED> instruction: 0xf5230000
     c90:	3c00004c 	stccc	0, cr0, [r0], {76}	; 0x4c
     c94:	0800003d 	stmdaeq	r0, {r0, r2, r3, r4, r5}
     c98:	01000007 	tsteq	r0, r7
     c9c:	0cbe079e 	ldceq	7, cr0, [lr], #632	; 0x278
     ca0:	0c200000 	stceq	0, cr0, [r0], #-0
     ca4:	0800004d 	stmdaeq	r0, {r0, r2, r3, r6}
     ca8:	20000003 	andcs	r0, r0, r3
     cac:	00004d01 	andeq	r4, r0, r1, lsl #26
     cb0:	00000334 	andeq	r0, r0, r4, lsr r3
     cb4:	003d6a2d 	eorseq	r6, sp, sp, lsr #20
     cb8:	004ef200 	subeq	pc, lr, r0, lsl #4
     cbc:	f52e0000 			; <UNDEFINED> instruction: 0xf52e0000
     cc0:	5000004c 	andpl	r0, r0, ip, asr #32
     cc4:	2800003d 	stmdacs	r0, {r0, r2, r3, r4, r5}
     cc8:	01000007 	tsteq	r0, r7
     ccc:	0c2007a0 	stceq	7, cr0, [r0], #-640	; 0xfffffd80
     cd0:	5600004d 	strpl	r0, [r0], -sp, asr #32
     cd4:	20000003 	andcs	r0, r0, r3
     cd8:	00004d01 	andeq	r4, r0, r1, lsl #26
     cdc:	00000382 	andeq	r0, r0, r2, lsl #7
     ce0:	003d762d 	eorseq	r7, sp, sp, lsr #12
     ce4:	004ef200 	subeq	pc, lr, r0, lsl #4
     ce8:	2c000000 	stccs	0, cr0, [r0], {-0}
     cec:	00000e67 	andeq	r0, r0, r7, ror #28
     cf0:	cc078b01 			; <UNDEFINED> instruction: 0xcc078b01
     cf4:	5c00003c 	stcpl	0, cr0, [r0], {60}	; 0x3c
     cf8:	01000000 	mrseq	r0, (UNDEF: 0)
     cfc:	000d7e9c 	muleq	sp, ip, lr
     d00:	11ac2b00 			; <UNDEFINED> instruction: 0x11ac2b00
     d04:	8b010000 	blhi	40d0c <__bss_end__+0x2bca0>
     d08:	0003f107 	andeq	pc, r3, r7, lsl #2
     d0c:	0003a400 	andeq	sl, r3, r0, lsl #8
     d10:	0e772b00 	vaddeq.f64	d18, d7, d0
     d14:	8b010000 	blhi	40d1c <__bss_end__+0x2bcb0>
     d18:	00040707 	andeq	r0, r4, r7, lsl #14
     d1c:	0003de00 	andeq	sp, r3, r0, lsl #28
     d20:	4cf52300 	ldclmi	3, cr2, [r5]
     d24:	3ce00000 	stclcc	0, cr0, [r0]
     d28:	06c80000 	strbeq	r0, [r8], r0
     d2c:	92010000 	andls	r0, r1, #0
     d30:	000d5107 	andeq	r5, sp, r7, lsl #2
     d34:	4d0c2000 	stcmi	0, cr2, [ip, #-0]
     d38:	04180000 	ldreq	r0, [r8], #-0
     d3c:	01200000 			; <UNDEFINED> instruction: 0x01200000
     d40:	4400004d 	strmi	r0, [r0], #-77	; 0xffffffb3
     d44:	2d000004 	stccs	0, cr0, [r0, #-16]
     d48:	00003d0e 	andeq	r3, r0, lr, lsl #26
     d4c:	00004ef2 	strdeq	r4, [r0], -r2
     d50:	4cf52e00 	ldclmi	14, cr2, [r5]
     d54:	3cf40000 	ldclcc	0, cr0, [r4]
     d58:	06e80000 	strbteq	r0, [r8], r0
     d5c:	94010000 	strls	r0, [r1], #-0
     d60:	4d0c2007 	stcmi	0, cr2, [ip, #-28]	; 0xffffffe4
     d64:	04660000 	strbteq	r0, [r6], #-0
     d68:	01200000 			; <UNDEFINED> instruction: 0x01200000
     d6c:	9200004d 	andls	r0, r0, #77	; 0x4d
     d70:	2d000004 	stccs	0, cr0, [r0, #-16]
     d74:	00003d1a 	andeq	r3, r0, sl, lsl sp
     d78:	00004ef2 	strdeq	r4, [r0], -r2
     d7c:	1f2c0000 	svcne	0x002c0000
     d80:	01000016 	tsteq	r0, r6, lsl r0
     d84:	3c480766 	mcrrcc	7, 6, r0, r8, cr6
     d88:	00840000 	addeq	r0, r4, r0
     d8c:	9c010000 	stcls	0, cr0, [r1], {-0}
     d90:	00000e0e 	andeq	r0, r0, lr, lsl #28
     d94:	0011ac2b 	andseq	sl, r1, fp, lsr #24
     d98:	07660100 	strbeq	r0, [r6, -r0, lsl #2]!
     d9c:	000003f1 	strdeq	r0, [r0], -r1
     da0:	000004b4 			; <UNDEFINED> instruction: 0x000004b4
     da4:	000a4f2b 	andeq	r4, sl, fp, lsr #30
     da8:	07660100 	strbeq	r0, [r6, -r0, lsl #2]!
     dac:	000003f1 	strdeq	r0, [r0], -r1
     db0:	000004d5 	ldrdeq	r0, [r0], -r5
     db4:	0008f82b 	andeq	pc, r8, fp, lsr #16
     db8:	07660100 	strbeq	r0, [r6, -r0, lsl #2]!
     dbc:	000003f1 	strdeq	r0, [r0], -r1
     dc0:	000004f6 	strdeq	r0, [r0], -r6
     dc4:	000b2b1a 	andeq	r2, fp, sl, lsl fp
     dc8:	076c0100 	strbeq	r0, [ip, -r0, lsl #2]!
     dcc:	00000407 	andeq	r0, r0, r7, lsl #8
     dd0:	00000517 	andeq	r0, r0, r7, lsl r5
     dd4:	004cf523 	subeq	pc, ip, r3, lsr #10
     dd8:	003c7400 	eorseq	r7, ip, r0, lsl #8
     ddc:	00069000 	andeq	r9, r6, r0
     de0:	07860100 	streq	r0, [r6, r0, lsl #2]
     de4:	00000e04 	andeq	r0, r0, r4, lsl #28
     de8:	004d0c20 	subeq	r0, sp, r0, lsr #24
     dec:	00054b00 	andeq	r4, r5, r0, lsl #22
     df0:	4d012000 	stcmi	0, cr2, [r1, #-0]
     df4:	05740000 	ldrbeq	r0, [r4, #-0]!
     df8:	b22d0000 	eorlt	r0, sp, #0
     dfc:	f200003c 	vqadd.s8	d0, d0, d28
     e00:	0000004e 	andeq	r0, r0, lr, asr #32
     e04:	003c6624 	eorseq	r6, ip, r4, lsr #12
     e08:	004d5700 	subeq	r5, sp, r0, lsl #14
     e0c:	422c0000 	eormi	r0, ip, #0
     e10:	0100000d 	tsteq	r0, sp
     e14:	3b900753 	blcc	fe402b68 <__bss_end__+0xfe3edafc>
     e18:	00b80000 	adcseq	r0, r8, r0
     e1c:	9c010000 	stcls	0, cr0, [r1], {-0}
     e20:	00000ee0 	andeq	r0, r0, r0, ror #29
     e24:	000e382b 	andeq	r3, lr, fp, lsr #16
     e28:	07530100 	ldrbeq	r0, [r3, -r0, lsl #2]
     e2c:	00000407 	andeq	r0, r0, r7, lsl #8
     e30:	00000592 	muleq	r0, r2, r5
     e34:	0043a323 	subeq	sl, r3, r3, lsr #6
     e38:	003bb800 	eorseq	fp, fp, r0, lsl #16
     e3c:	00064000 	andeq	r4, r6, r0
     e40:	075d0100 	ldrbeq	r0, [sp, -r0, lsl #2]
     e44:	00000e73 	andeq	r0, r0, r3, ror lr
     e48:	0043b020 	subeq	fp, r3, r0, lsr #32
     e4c:	0005c100 	andeq	ip, r5, r0, lsl #2
     e50:	06402f00 	strbeq	r2, [r0], -r0, lsl #30
     e54:	2d300000 	ldccs	0, cr0, [r0, #-0]
     e58:	21000053 	qaddcs	r0, r3, r0
     e5c:	00003be6 	andeq	r3, r0, r6, ror #23
     e60:	00005679 	andeq	r5, r0, r9, ror r6
     e64:	02500122 	subseq	r0, r0, #-2147483640	; 0x80000008
     e68:	01220077 			; <UNDEFINED> instruction: 0x01220077
     e6c:	00790251 	rsbseq	r0, r9, r1, asr r2
     e70:	23000000 	movwcs	r0, #0
     e74:	000043a3 	andeq	r4, r0, r3, lsr #7
     e78:	00003bc4 	andeq	r3, r0, r4, asr #23
     e7c:	00000668 	andeq	r0, r0, r8, ror #12
     e80:	b2076001 	andlt	r6, r7, #1
     e84:	2000000e 	andcs	r0, r0, lr
     e88:	000043b0 			; <UNDEFINED> instruction: 0x000043b0
     e8c:	000005d6 	ldrdeq	r0, [r0], -r6
     e90:	0006682f 	andeq	r6, r6, pc, lsr #16
     e94:	532d3000 			; <UNDEFINED> instruction: 0x532d3000
     e98:	f4210000 	vld4.8	{d0-d3}, [r1], r0
     e9c:	7900003b 	stmdbvc	r0, {r0, r1, r3, r4, r5}
     ea0:	22000056 	andcs	r0, r0, #86	; 0x56
     ea4:	77025001 	strvc	r5, [r2, -r1]
     ea8:	51012200 	mrspl	r2, R9_usr
     eac:	00007902 	andeq	r7, r0, r2, lsl #18
     eb0:	ca240000 	bgt	900eb8 <__bss_end__+0x8ebe4c>
     eb4:	1800003b 	stmdane	r0, {r0, r1, r3, r4, r5}
     eb8:	2400004d 	strcs	r0, [r0], #-77	; 0xffffffb3
     ebc:	00003bfc 	strdeq	r3, [r0], -ip
     ec0:	00004d57 	andeq	r4, r0, r7, asr sp
     ec4:	003c1824 	eorseq	r1, ip, r4, lsr #16
     ec8:	004d1800 	subeq	r1, sp, r0, lsl #16
     ecc:	3c262400 	cfstrscc	mvf2, [r6], #-0
     ed0:	4d180000 	ldcmi	0, cr0, [r8, #-0]
     ed4:	3a240000 	bcc	900edc <__bss_end__+0x8ebe70>
     ed8:	6400003c 	strvs	r0, [r0], #-60	; 0xffffffc4
     edc:	00000056 	andeq	r0, r0, r6, asr r0
     ee0:	0005be31 	andeq	fp, r5, r1, lsr lr
     ee4:	07490100 	strbeq	r0, [r9, -r0, lsl #2]
     ee8:	000f1201 	andeq	r1, pc, r1, lsl #4
     eec:	13a22700 			; <UNDEFINED> instruction: 0x13a22700
     ef0:	49010000 	stmdbmi	r1, {}	; <UNPREDICTABLE>
     ef4:	00041707 	andeq	r1, r4, r7, lsl #14
     ef8:	13a92700 			; <UNDEFINED> instruction: 0x13a92700
     efc:	49010000 	stmdbmi	r1, {}	; <UNPREDICTABLE>
     f00:	00041707 	andeq	r1, r4, r7, lsl #14
     f04:	07c03200 	strbeq	r3, [r0, r0, lsl #4]
     f08:	4b010000 	blmi	40f10 <__bss_end__+0x2bea4>
     f0c:	00041707 	andeq	r1, r4, r7, lsl #14
     f10:	69190000 	ldmdbvs	r9, {}	; <UNPREDICTABLE>
     f14:	01000009 	tsteq	r0, r9
     f18:	04170727 	ldreq	r0, [r7], #-1831	; 0xfffff8d9
     f1c:	366c0000 	strbtcc	r0, [ip], -r0
     f20:	00640000 	rsbeq	r0, r4, r0
     f24:	9c010000 	stcls	0, cr0, [r1], {-0}
     f28:	00000f8e 	andeq	r0, r0, lr, lsl #31
     f2c:	000fe51a 	andeq	lr, pc, sl, lsl r5	; <UNPREDICTABLE>
     f30:	07290100 	streq	r0, [r9, -r0, lsl #2]!
     f34:	00000458 	andeq	r0, r0, r8, asr r4
     f38:	000005ea 	andeq	r0, r0, sl, ror #11
     f3c:	0069681b 	rsbeq	r6, r9, fp, lsl r8
     f40:	07072a01 	streq	r2, [r7, -r1, lsl #20]
     f44:	46000004 	strmi	r0, [r0], -r4
     f48:	1b000006 	blne	f68 <PCA9685::SetPreScaller(unsigned char)+0x28>
     f4c:	01006f6c 	tsteq	r0, ip, ror #30
     f50:	0407072a 	streq	r0, [r7], #-1834	; 0xfffff8d6
     f54:	066f0000 	strbteq	r0, [pc], -r0
     f58:	731b0000 	tstvc	fp, #0
     f5c:	2b010074 	blcs	41134 <__bss_end__+0x2c0c8>
     f60:	00041707 	andeq	r1, r4, r7, lsl #14
     f64:	00069800 	andeq	r9, r6, r0, lsl #16
     f68:	36842400 	strcc	r2, [r4], r0, lsl #8
     f6c:	4d570000 	ldclmi	0, cr0, [r7, #-0]
     f70:	8e240000 	cdphi	0, 2, cr0, cr4, cr0, {0}
     f74:	57000036 	smladxpl	r0, r6, r0, r0
     f78:	2400004d 	strcs	r0, [r0], #-77	; 0xffffffb3
     f7c:	00003698 	muleq	r0, r8, r6
     f80:	00004d57 	andeq	r4, r0, r7, asr sp
     f84:	0036aa24 	eorseq	sl, r6, r4, lsr #20
     f88:	004d5700 	subeq	r5, sp, r0, lsl #14
     f8c:	31190000 	tstcc	r9, r0
     f90:	0100000d 	tsteq	r0, sp
     f94:	04070702 	streq	r0, [r7], #-1794	; 0xfffff8fe
     f98:	36000000 	strcc	r0, [r0], -r0
     f9c:	006c0000 	rsbeq	r0, ip, r0
     fa0:	9c010000 	stcls	0, cr0, [r1], {-0}
     fa4:	000010be 	strheq	r1, [r0], -lr
     fa8:	00120d2b 	andseq	r0, r2, fp, lsr #26
     fac:	07020100 	streq	r0, [r2, -r0, lsl #2]
     fb0:	00000407 	andeq	r0, r0, r7, lsl #8
     fb4:	000006d0 	ldrdeq	r0, [r0], -r0	; <UNPREDICTABLE>
     fb8:	000aa72b 	andeq	sl, sl, fp, lsr #14
     fbc:	07020100 	streq	r0, [r2, -r0, lsl #2]
     fc0:	00000407 	andeq	r0, r0, r7, lsl #8
     fc4:	00000720 	andeq	r0, r0, r0, lsr #14
     fc8:	00095a1a 	andeq	r5, r9, sl, lsl sl
     fcc:	07040100 	streq	r0, [r4, -r0, lsl #2]
     fd0:	00000407 	andeq	r0, r0, r7, lsl #8
     fd4:	0000073e 	andeq	r0, r0, lr, lsr r7
     fd8:	0004451a 	andeq	r4, r4, sl, lsl r5
     fdc:	07050100 	streq	r0, [r5, -r0, lsl #2]
     fe0:	00000407 	andeq	r0, r0, r7, lsl #8
     fe4:	00000751 	andeq	r0, r0, r1, asr r7
     fe8:	000e401a 	andeq	r4, lr, sl, lsl r0
     fec:	07060100 	streq	r0, [r6, -r0, lsl #2]
     ff0:	00000458 	andeq	r0, r0, r8, asr r4
     ff4:	0000076f 	andeq	r0, r0, pc, ror #14
     ff8:	000a231a 	andeq	r2, sl, sl, lsl r3
     ffc:	07070100 	streq	r0, [r7, -r0, lsl #2]
    1000:	00000458 	andeq	r0, r0, r8, asr r4
    1004:	0000078a 	andeq	r0, r0, sl, lsl #15
    1008:	00143d1a 	andseq	r3, r4, sl, lsl sp
    100c:	07080100 	streq	r0, [r8, -r0, lsl #2]
    1010:	00000458 	andeq	r0, r0, r8, asr r4
    1014:	000007a5 	andeq	r0, r0, r5, lsr #15
    1018:	00362225 	eorseq	r2, r6, r5, lsr #4
    101c:	004d5700 	subeq	r5, sp, r0, lsl #14
    1020:	00102c00 	andseq	r2, r0, r0, lsl #24
    1024:	50012200 	andpl	r2, r1, r0, lsl #4
    1028:	00007402 	andeq	r7, r0, r2, lsl #8
    102c:	00363625 	eorseq	r3, r6, r5, lsr #12
    1030:	004d1800 	subeq	r1, sp, r0, lsl #16
    1034:	00104e00 	andseq	r4, r0, r0, lsl #28
    1038:	50012200 	andpl	r2, r1, r0, lsl #4
    103c:	22387702 	eorscs	r7, r8, #524288	; 0x80000
    1040:	760a5101 	strvc	r5, [sl], -r1, lsl #2
    1044:	1a3f0800 	bne	fc304c <__bss_end__+0xfadfe0>
    1048:	24380075 	ldrtcs	r0, [r8], #-117	; 0xffffff8b
    104c:	3e250021 	cdpcc	0, 2, cr0, cr5, cr1, {1}
    1050:	18000036 	stmdane	r0, {r1, r2, r4, r5}
    1054:	6700004d 	strvs	r0, [r0, -sp, asr #32]
    1058:	22000010 	andcs	r0, r0, #16
    105c:	74025001 	strvc	r5, [r2], #-1
    1060:	51012200 	mrspl	r2, R9_usr
    1064:	25003301 	strcs	r3, [r0, #-769]	; 0xfffffcff
    1068:	00003644 	andeq	r3, r0, r4, asr #12
    106c:	00004d57 	andeq	r4, r0, r7, asr sp
    1070:	0000107b 	andeq	r1, r0, fp, ror r0
    1074:	02500122 	subseq	r0, r0, #-2147483640	; 0x80000008
    1078:	25000074 	strcs	r0, [r0, #-116]	; 0xffffff8c
    107c:	00003650 	andeq	r3, r0, r0, asr r6
    1080:	00004d57 	andeq	r4, r0, r7, asr sp
    1084:	0000108f 	andeq	r1, r0, pc, lsl #1
    1088:	02500122 	subseq	r0, r0, #-2147483640	; 0x80000008
    108c:	25003c77 	strcs	r3, [r0, #-3191]	; 0xfffff389
    1090:	0000365a 	andeq	r3, r0, sl, asr r6
    1094:	00004d18 	andeq	r4, r0, r8, lsl sp
    1098:	000010a8 	andeq	r1, r0, r8, lsr #1
    109c:	02500122 	subseq	r0, r0, #-2147483640	; 0x80000008
    10a0:	01220074 			; <UNDEFINED> instruction: 0x01220074
    10a4:	00340151 	eorseq	r0, r4, r1, asr r1
    10a8:	00366621 	eorseq	r6, r6, r1, lsr #12
    10ac:	004d1800 	subeq	r1, sp, r0, lsl #16
    10b0:	50012200 	andpl	r2, r1, r0, lsl #4
    10b4:	22007402 	andcs	r7, r0, #33554432	; 0x2000000
    10b8:	34015101 	strcc	r5, [r1], #-257	; 0xfffffeff
    10bc:	bc2c0000 	stclt	0, cr0, [ip], #-0
    10c0:	01000015 	tsteq	r0, r5, lsl r0
    10c4:	359406e3 	ldrcc	r0, [r4, #1763]	; 0x6e3
    10c8:	006c0000 	rsbeq	r0, ip, r0
    10cc:	9c010000 	stcls	0, cr0, [r1], {-0}
    10d0:	000011ea 	andeq	r1, r0, sl, ror #3
    10d4:	00120d2b 	andseq	r0, r2, fp, lsr #26
    10d8:	06e30100 	strbteq	r0, [r3], r0, lsl #2
    10dc:	00000407 	andeq	r0, r0, r7, lsl #8
    10e0:	000007c0 	andeq	r0, r0, r0, asr #15
    10e4:	0004452b 	andeq	r4, r4, fp, lsr #10
    10e8:	06e30100 	strbteq	r0, [r3], r0, lsl #2
    10ec:	000003f1 	strdeq	r0, [r0], -r1
    10f0:	000007f7 	strdeq	r0, [r0], -r7
    10f4:	000aa72b 	andeq	sl, sl, fp, lsr #14
    10f8:	06e30100 	strbteq	r0, [r3], r0, lsl #2
    10fc:	00000407 	andeq	r0, r0, r7, lsl #8
    1100:	00000818 	andeq	r0, r0, r8, lsl r8
    1104:	00095a1a 	andeq	r5, r9, sl, lsl sl
    1108:	06e50100 	strbteq	r0, [r5], r0, lsl #2
    110c:	00000407 	andeq	r0, r0, r7, lsl #8
    1110:	0000084f 	andeq	r0, r0, pc, asr #16
    1114:	000e401a 	andeq	r4, lr, sl, lsl r0
    1118:	06e60100 	strbteq	r0, [r6], r0, lsl #2
    111c:	00000458 	andeq	r0, r0, r8, asr r4
    1120:	00000862 	andeq	r0, r0, r2, ror #16
    1124:	000a231a 	andeq	r2, sl, sl, lsl r3
    1128:	06e70100 	strbteq	r0, [r7], r0, lsl #2
    112c:	00000458 	andeq	r0, r0, r8, asr r4
    1130:	0000087d 	andeq	r0, r0, sp, ror r8
    1134:	00143d1a 	andseq	r3, r4, sl, lsl sp
    1138:	06e80100 	strbteq	r0, [r8], r0, lsl #2
    113c:	00000458 	andeq	r0, r0, r8, asr r4
    1140:	00000898 	muleq	r0, r8, r8
    1144:	0035b625 	eorseq	fp, r5, r5, lsr #12
    1148:	004d5700 	subeq	r5, sp, r0, lsl #14
    114c:	00115800 	andseq	r5, r1, r0, lsl #16
    1150:	50012200 	andpl	r2, r1, r0, lsl #4
    1154:	00007402 	andeq	r7, r0, r2, lsl #8
    1158:	0035ca25 	eorseq	ip, r5, r5, lsr #20
    115c:	004d1800 	subeq	r1, sp, r0, lsl #16
    1160:	00117a00 	andseq	r7, r1, r0, lsl #20
    1164:	50012200 	andpl	r2, r1, r0, lsl #4
    1168:	22387802 	eorscs	r7, r8, #131072	; 0x20000
    116c:	760a5101 	strvc	r5, [sl], -r1, lsl #2
    1170:	1a3f0800 	bne	fc3178 <__bss_end__+0xfae10c>
    1174:	24380075 	ldrtcs	r0, [r8], #-117	; 0xffffff8b
    1178:	d4250021 	strtle	r0, [r5], #-33	; 0xffffffdf
    117c:	18000035 	stmdane	r0, {r0, r2, r4, r5}
    1180:	9400004d 	strls	r0, [r0], #-77	; 0xffffffb3
    1184:	22000011 	andcs	r0, r0, #17
    1188:	78025001 	stmdavc	r2, {r0, ip, lr}
    118c:	5101223c 	tstpl	r1, ip, lsr r2
    1190:	00007702 	andeq	r7, r0, r2, lsl #14
    1194:	0035dc25 	eorseq	sp, r5, r5, lsr #24
    1198:	004d1800 	subeq	r1, sp, r0, lsl #16
    119c:	0011ad00 	andseq	sl, r1, r0, lsl #26
    11a0:	50012200 	andpl	r2, r1, r0, lsl #4
    11a4:	22007402 	andcs	r7, r0, #33554432	; 0x2000000
    11a8:	3b015101 	blcc	555b4 <__bss_end__+0x40548>
    11ac:	35e22500 	strbcc	r2, [r2, #1280]!	; 0x500
    11b0:	4d570000 	ldclmi	0, cr0, [r7, #-0]
    11b4:	11c10000 	bicne	r0, r1, r0
    11b8:	01220000 			; <UNDEFINED> instruction: 0x01220000
    11bc:	00740250 	rsbseq	r0, r4, r0, asr r2
    11c0:	35f23300 	ldrbcc	r3, [r2, #768]!	; 0x300
    11c4:	4d180000 	ldcmi	0, cr0, [r8, #-0]
    11c8:	11d40000 	bicsne	r0, r4, r0
    11cc:	01220000 			; <UNDEFINED> instruction: 0x01220000
    11d0:	00340151 	eorseq	r0, r4, r1, asr r1
    11d4:	0035fa21 	eorseq	pc, r5, r1, lsr #20
    11d8:	004d1800 	subeq	r1, sp, r0, lsl #16
    11dc:	50012200 	andpl	r2, r1, r0, lsl #4
    11e0:	22007402 	andcs	r7, r0, #33554432	; 0x2000000
    11e4:	34015101 	strcc	r5, [r1], #-257	; 0xfffffeff
    11e8:	1a2c0000 	bne	b011f0 <__bss_end__+0xaec184>
    11ec:	0100000d 	tsteq	r0, sp
    11f0:	351806b6 	ldrcc	r0, [r8, #-1718]	; 0xfffff94a
    11f4:	007c0000 	rsbseq	r0, ip, r0
    11f8:	9c010000 	stcls	0, cr0, [r1], {-0}
    11fc:	000012ae 	andeq	r1, r0, lr, lsr #5
    1200:	00120d2b 	andseq	r0, r2, fp, lsr #26
    1204:	06b60100 	ldrteq	r0, [r6], r0, lsl #2
    1208:	00000407 	andeq	r0, r0, r7, lsl #8
    120c:	000008b3 			; <UNDEFINED> instruction: 0x000008b3
    1210:	0011a82b 	andseq	sl, r1, fp, lsr #16
    1214:	06b60100 	ldrteq	r0, [r6], r0, lsl #2
    1218:	00000407 	andeq	r0, r0, r7, lsl #8
    121c:	000008df 	ldrdeq	r0, [r0], -pc	; <UNPREDICTABLE>
    1220:	0015ce2b 	andseq	ip, r5, fp, lsr #28
    1224:	06b70100 	ldrteq	r0, [r7], r0, lsl #2
    1228:	00000407 	andeq	r0, r0, r7, lsl #8
    122c:	0000090b 	andeq	r0, r0, fp, lsl #18
    1230:	00099d2b 	andeq	r9, r9, fp, lsr #26
    1234:	06b70100 	ldrteq	r0, [r7], r0, lsl #2
    1238:	00000407 	andeq	r0, r0, r7, lsl #8
    123c:	00000942 	andeq	r0, r0, r2, asr #18
    1240:	0010892b 	andseq	r8, r0, fp, lsr #18
    1244:	06b80100 	ldrteq	r0, [r8], r0, lsl #2
    1248:	00000407 	andeq	r0, r0, r7, lsl #8
    124c:	00000979 	andeq	r0, r0, r9, ror r9
    1250:	000b202b 	andeq	r2, fp, fp, lsr #32
    1254:	06b80100 	ldrteq	r0, [r8], r0, lsl #2
    1258:	00000407 	andeq	r0, r0, r7, lsl #8
    125c:	000009b1 			; <UNDEFINED> instruction: 0x000009b1
    1260:	00002f1a 	andeq	r2, r0, sl, lsl pc
    1264:	06ba0100 	ldrteq	r0, [sl], r0, lsl #2
    1268:	00000045 	andeq	r0, r0, r5, asr #32
    126c:	000009e9 	andeq	r0, r0, r9, ror #19
    1270:	00003f1a 	andeq	r3, r0, sl, lsl pc
    1274:	06bb0100 	ldrteq	r0, [fp], r0, lsl #2
    1278:	00000458 	andeq	r0, r0, r8, asr r4
    127c:	00000a21 	andeq	r0, r0, r1, lsr #20
    1280:	00004a1a 	andeq	r4, r0, sl, lsl sl
    1284:	06bc0100 	ldrteq	r0, [ip], r0, lsl #2
    1288:	00000407 	andeq	r0, r0, r7, lsl #8
    128c:	00000a3f 	andeq	r0, r0, pc, lsr sl
    1290:	00355225 	eorseq	r5, r5, r5, lsr #4
    1294:	004d5700 	subeq	r5, sp, r0, lsl #14
    1298:	0012a400 	andseq	sl, r2, r0, lsl #8
    129c:	50012200 	andpl	r2, r1, r0, lsl #4
    12a0:	00007502 	andeq	r7, r0, r2, lsl #10
    12a4:	0035742d 	eorseq	r7, r5, sp, lsr #8
    12a8:	004d1800 	subeq	r1, sp, r0, lsl #16
    12ac:	fd2c0000 	stc2	0, cr0, [ip, #-0]
    12b0:	01000010 	tsteq	r0, r0, lsl r0
    12b4:	345806a2 	ldrbcc	r0, [r8], #-1698	; 0xfffff95e
    12b8:	00c00000 	sbceq	r0, r0, r0
    12bc:	9c010000 	stcls	0, cr0, [r1], {-0}
    12c0:	000017ae 	andeq	r1, r0, lr, lsr #15
    12c4:	004c251f 	subeq	r2, ip, pc, lsl r5
    12c8:	00345a00 	eorseq	r5, r4, r0, lsl #20
    12cc:	00001000 	andeq	r1, r0, r0
    12d0:	06a50100 	strteq	r0, [r5], r0, lsl #2
    12d4:	0000131f 	andeq	r1, r0, pc, lsl r3
    12d8:	004c3e20 	subeq	r3, ip, r0, lsr #28
    12dc:	000a7100 	andeq	r7, sl, r0, lsl #2
    12e0:	4c322000 	ldcmi	0, cr2, [r2], #-0
    12e4:	0a850000 	beq	fe1412ec <__bss_end__+0xfe12c280>
    12e8:	5a340000 	bpl	d012f0 <__bss_end__+0xcec284>
    12ec:	10000034 	andne	r0, r0, r4, lsr r0
    12f0:	30000000 	andcc	r0, r0, r0
    12f4:	0000524f 	andeq	r5, r0, pc, asr #4
    12f8:	00525830 	subseq	r5, r2, r0, lsr r8
    12fc:	52613000 	rsbpl	r3, r1, #0
    1300:	6a300000 	bvs	c01308 <__bss_end__+0xbec29c>
    1304:	21000052 	qaddcs	r0, r2, r0
    1308:	0000346a 	andeq	r3, r0, sl, ror #8
    130c:	00004c7b 	andeq	r4, r0, fp, ror ip
    1310:	01510122 	cmpeq	r1, r2, lsr #2
    1314:	52012230 	andpl	r2, r1, #48, 4
    1318:	01c00a03 	biceq	r0, r0, r3, lsl #20
    131c:	1f000000 	svcne	0x00000000
    1320:	00004c25 	andeq	r4, r0, r5, lsr #24
    1324:	0000346a 	andeq	r3, r0, sl, ror #8
    1328:	0000000c 	andeq	r0, r0, ip
    132c:	7a06a601 	bvc	1aab38 <__bss_end__+0x195acc>
    1330:	20000013 	andcs	r0, r0, r3, lsl r0
    1334:	00004c3e 	andeq	r4, r0, lr, lsr ip
    1338:	00000a99 	muleq	r0, r9, sl
    133c:	004c3220 	subeq	r3, ip, r0, lsr #4
    1340:	000aad00 	andeq	sl, sl, r0, lsl #26
    1344:	346a3400 	strbtcc	r3, [sl], #-1024	; 0xfffffc00
    1348:	000c0000 	andeq	r0, ip, r0
    134c:	4f300000 	svcmi	0x00300000
    1350:	30000052 	andcc	r0, r0, r2, asr r0
    1354:	00005258 	andeq	r5, r0, r8, asr r2
    1358:	00526130 	subseq	r6, r2, r0, lsr r1
    135c:	526a3000 	rsbpl	r3, sl, #0
    1360:	76210000 	strtvc	r0, [r1], -r0
    1364:	7b000034 	blvc	143c <PCA9685::SetOCH(TPCA9685Och)+0x90>
    1368:	2200004c 	andcs	r0, r0, #76	; 0x4c
    136c:	30015101 	andcc	r5, r1, r1, lsl #2
    1370:	03520122 	cmpeq	r2, #-2147483640	; 0x80000008
    1374:	000e000a 	andeq	r0, lr, sl
    1378:	251f0000 	ldrcs	r0, [pc, #-0]	; 1380 <PCA9685::GetFrequency()+0x158>
    137c:	7600004c 	strvc	r0, [r0], -ip, asr #32
    1380:	0c000034 	stceq	0, cr0, [r0], {52}	; 0x34
    1384:	01000000 	mrseq	r0, (UNDEF: 0)
    1388:	13d506a7 	bicsne	r0, r5, #175112192	; 0xa700000
    138c:	3e200000 	cdpcc	0, 2, cr0, cr0, cr0, {0}
    1390:	c100004c 	tstgt	r0, ip, asr #32
    1394:	2000000a 	andcs	r0, r0, sl
    1398:	00004c32 	andeq	r4, r0, r2, lsr ip
    139c:	00000ad5 	ldrdeq	r0, [r0], -r5
    13a0:	00347634 	eorseq	r7, r4, r4, lsr r6
    13a4:	00000c00 	andeq	r0, r0, r0, lsl #24
    13a8:	524f3000 	subpl	r3, pc, #0
    13ac:	58300000 	ldmdapl	r0!, {}	; <UNPREDICTABLE>
    13b0:	30000052 	andcc	r0, r0, r2, asr r0
    13b4:	00005261 	andeq	r5, r0, r1, ror #4
    13b8:	00526a30 	subseq	r6, r2, r0, lsr sl
    13bc:	34822100 	strcc	r2, [r2], #256	; 0x100
    13c0:	4c7b0000 	ldclmi	0, cr0, [fp], #-0
    13c4:	01220000 			; <UNDEFINED> instruction: 0x01220000
    13c8:	22300151 	eorscs	r0, r0, #1073741844	; 0x40000014
    13cc:	0a035201 	beq	d5bd8 <__bss_end__+0xc0b6c>
    13d0:	00007000 	andeq	r7, r0, r0
    13d4:	4c251f00 	stcmi	15, cr1, [r5], #-0
    13d8:	34820000 	strcc	r0, [r2], #0
    13dc:	000c0000 	andeq	r0, ip, r0
    13e0:	a8010000 	stmdage	r1, {}	; <UNPREDICTABLE>
    13e4:	00143006 	andseq	r3, r4, r6
    13e8:	4c3e2000 	ldcmi	0, cr2, [lr], #-0
    13ec:	0ae90000 	beq	ffa413f4 <__bss_end__+0xffa2c388>
    13f0:	32200000 	eorcc	r0, r0, #0
    13f4:	fd00004c 	stc2	0, cr0, [r0, #-304]	; 0xfffffed0
    13f8:	3400000a 	strcc	r0, [r0], #-10
    13fc:	00003482 	andeq	r3, r0, r2, lsl #9
    1400:	0000000c 	andeq	r0, r0, ip
    1404:	00524f30 	subseq	r4, r2, r0, lsr pc
    1408:	52583000 	subspl	r3, r8, #0
    140c:	61300000 	teqvs	r0, r0
    1410:	30000052 	andcc	r0, r0, r2, asr r0
    1414:	0000526a 	andeq	r5, r0, sl, ror #4
    1418:	00348e21 	eorseq	r8, r4, r1, lsr #28
    141c:	004c7b00 	subeq	r7, ip, r0, lsl #22
    1420:	51012200 	mrspl	r2, R9_usr
    1424:	01223001 			; <UNDEFINED> instruction: 0x01223001
    1428:	3d4c0352 	stclcc	3, cr0, [ip, #-328]	; 0xfffffeb8
    142c:	00000024 	andeq	r0, r0, r4, lsr #32
    1430:	004c251f 	subeq	r2, ip, pc, lsl r5
    1434:	00348e00 	eorseq	r8, r4, r0, lsl #28
    1438:	00000c00 	andeq	r0, r0, r0, lsl #24
    143c:	06a90100 	strteq	r0, [r9], r0, lsl #2
    1440:	0000148b 	andeq	r1, r0, fp, lsl #9
    1444:	004c3e20 	subeq	r3, ip, r0, lsr #28
    1448:	000b1100 	andeq	r1, fp, r0, lsl #2
    144c:	4c322000 	ldcmi	0, cr2, [r2], #-0
    1450:	0b250000 	bleq	941458 <__bss_end__+0x92c3ec>
    1454:	8e340000 	cdphi	0, 3, cr0, cr4, cr0, {0}
    1458:	0c000034 	stceq	0, cr0, [r0], {52}	; 0x34
    145c:	30000000 	andcc	r0, r0, r0
    1460:	0000524f 	andeq	r5, r0, pc, asr #4
    1464:	00525830 	subseq	r5, r2, r0, lsr r8
    1468:	52613000 	rsbpl	r3, r1, #0
    146c:	6a300000 	bvs	c01474 <__bss_end__+0xbec408>
    1470:	21000052 	qaddcs	r0, r2, r0
    1474:	0000349a 	muleq	r0, sl, r4
    1478:	00004c7b 	andeq	r4, r0, fp, ror ip
    147c:	01510122 	cmpeq	r1, r2, lsr #2
    1480:	52012230 	andpl	r2, r1, #48, 4
    1484:	24404c03 	strbcs	r4, [r0], #-3075	; 0xfffff3fd
    1488:	1f000000 	svcne	0x00000000
    148c:	00004c25 	andeq	r4, r0, r5, lsr #24
    1490:	0000349a 	muleq	r0, sl, r4
    1494:	0000000c 	andeq	r0, r0, ip
    1498:	e606aa01 	str	sl, [r6], -r1, lsl #20
    149c:	20000014 	andcs	r0, r0, r4, lsl r0
    14a0:	00004c3e 	andeq	r4, r0, lr, lsr ip
    14a4:	00000b39 	andeq	r0, r0, r9, lsr fp
    14a8:	004c3220 	subeq	r3, ip, r0, lsr #4
    14ac:	000b4d00 	andeq	r4, fp, r0, lsl #26
    14b0:	349a3400 	ldrcc	r3, [sl], #1024	; 0x400
    14b4:	000c0000 	andeq	r0, ip, r0
    14b8:	4f300000 	svcmi	0x00300000
    14bc:	30000052 	andcc	r0, r0, r2, asr r0
    14c0:	00005258 	andeq	r5, r0, r8, asr r2
    14c4:	00526130 	subseq	r6, r2, r0, lsr r1
    14c8:	526a3000 	rsbpl	r3, sl, #0
    14cc:	a6210000 	strtge	r0, [r1], -r0
    14d0:	7b000034 	blvc	15a8 <PCA9685::SetOutDriver(bool)+0x18>
    14d4:	2200004c 	andcs	r0, r0, #76	; 0x4c
    14d8:	30015101 	andcc	r5, r1, r1, lsl #2
    14dc:	03520122 	cmpeq	r2, #-2147483640	; 0x80000008
    14e0:	0024434c 	eoreq	r4, r4, ip, asr #6
    14e4:	251f0000 	ldrcs	r0, [pc, #-0]	; 14ec <PCA9685::SetInvert(bool)+0x4c>
    14e8:	a600004c 	strge	r0, [r0], -ip, asr #32
    14ec:	0c000034 	stceq	0, cr0, [r0], {52}	; 0x34
    14f0:	01000000 	mrseq	r0, (UNDEF: 0)
    14f4:	154106ab 	strbne	r0, [r1, #-1707]	; 0xfffff955
    14f8:	3e200000 	cdpcc	0, 2, cr0, cr0, cr0, {0}
    14fc:	6100004c 	tstvs	r0, ip, asr #32
    1500:	2000000b 	andcs	r0, r0, fp
    1504:	00004c32 	andeq	r4, r0, r2, lsr ip
    1508:	00000b75 	andeq	r0, r0, r5, ror fp
    150c:	0034a634 	eorseq	sl, r4, r4, lsr r6
    1510:	00000c00 	andeq	r0, r0, r0, lsl #24
    1514:	524f3000 	subpl	r3, pc, #0
    1518:	58300000 	ldmdapl	r0!, {}	; <UNPREDICTABLE>
    151c:	30000052 	andcc	r0, r0, r2, asr r0
    1520:	00005261 	andeq	r5, r0, r1, ror #4
    1524:	00526a30 	subseq	r6, r2, r0, lsr sl
    1528:	34b22100 	ldrtcc	r2, [r2], #256	; 0x100
    152c:	4c7b0000 	ldclmi	0, cr0, [fp], #-0
    1530:	01220000 			; <UNDEFINED> instruction: 0x01220000
    1534:	22300151 	eorscs	r0, r0, #1073741844	; 0x40000014
    1538:	4c035201 	sfmmi	f5, 4, [r3], {1}
    153c:	00002446 	andeq	r2, r0, r6, asr #8
    1540:	4c251f00 	stcmi	15, cr1, [r5], #-0
    1544:	34b20000 	ldrtcc	r0, [r2], #0
    1548:	000c0000 	andeq	r0, ip, r0
    154c:	ac010000 	stcge	0, cr0, [r1], {-0}
    1550:	00159c06 	andseq	r9, r5, r6, lsl #24
    1554:	4c3e2000 	ldcmi	0, cr2, [lr], #-0
    1558:	0b890000 	bleq	fe241560 <__bss_end__+0xfe22c4f4>
    155c:	32200000 	eorcc	r0, r0, #0
    1560:	9d00004c 	stcls	0, cr0, [r0, #-304]	; 0xfffffed0
    1564:	3400000b 	strcc	r0, [r0], #-11
    1568:	000034b2 			; <UNDEFINED> instruction: 0x000034b2
    156c:	0000000c 	andeq	r0, r0, ip
    1570:	00524f30 	subseq	r4, r2, r0, lsr pc
    1574:	52583000 	subspl	r3, r8, #0
    1578:	61300000 	teqvs	r0, r0
    157c:	30000052 	andcc	r0, r0, r2, asr r0
    1580:	0000526a 	andeq	r5, r0, sl, ror #4
    1584:	0034be21 	eorseq	fp, r4, r1, lsr #28
    1588:	004c7b00 	subeq	r7, ip, r0, lsl #22
    158c:	51012200 	mrspl	r2, R9_usr
    1590:	01223001 			; <UNDEFINED> instruction: 0x01223001
    1594:	494c0352 	stmdbmi	ip, {r1, r4, r6, r8, r9}^
    1598:	00000024 	andeq	r0, r0, r4, lsr #32
    159c:	004c251f 	subeq	r2, ip, pc, lsl r5
    15a0:	0034be00 	eorseq	fp, r4, r0, lsl #28
    15a4:	00000c00 	andeq	r0, r0, r0, lsl #24
    15a8:	06ad0100 	strteq	r0, [sp], r0, lsl #2
    15ac:	000015f5 	strdeq	r1, [r0], -r5
    15b0:	004c3e20 	subeq	r3, ip, r0, lsr #28
    15b4:	000bb100 	andeq	fp, fp, r0, lsl #2
    15b8:	4c322000 	ldcmi	0, cr2, [r2], #-0
    15bc:	0bc50000 	bleq	ff1415c4 <__bss_end__+0xff12c558>
    15c0:	be340000 	cdplt	0, 3, cr0, cr4, cr0, {0}
    15c4:	0c000034 	stceq	0, cr0, [r0], {52}	; 0x34
    15c8:	30000000 	andcc	r0, r0, r0
    15cc:	0000524f 	andeq	r5, r0, pc, asr #4
    15d0:	00525830 	subseq	r5, r2, r0, lsr r8
    15d4:	52613000 	rsbpl	r3, r1, #0
    15d8:	6a300000 	bvs	c015e0 <__bss_end__+0xbec574>
    15dc:	21000052 	qaddcs	r0, r2, r0
    15e0:	000034ca 	andeq	r3, r0, sl, asr #9
    15e4:	00004c7b 	andeq	r4, r0, fp, ror ip
    15e8:	01510122 	cmpeq	r1, r2, lsr #2
    15ec:	52012230 	andpl	r2, r1, #48, 4
    15f0:	00003701 	andeq	r3, r0, r1, lsl #14
    15f4:	4c251f00 	stcmi	15, cr1, [r5], #-0
    15f8:	34ca0000 	strbcc	r0, [sl], #0
    15fc:	000c0000 	andeq	r0, ip, r0
    1600:	ae010000 	cdpge	0, 0, cr0, cr1, cr0, {0}
    1604:	00164f06 	andseq	r4, r6, r6, lsl #30
    1608:	4c3e2000 	ldcmi	0, cr2, [lr], #-0
    160c:	0bd90000 	bleq	ff641614 <__bss_end__+0xff62c5a8>
    1610:	32200000 	eorcc	r0, r0, #0
    1614:	ed00004c 	stc	0, cr0, [r0, #-304]	; 0xfffffed0
    1618:	3400000b 	strcc	r0, [r0], #-11
    161c:	000034ca 	andeq	r3, r0, sl, asr #9
    1620:	0000000c 	andeq	r0, r0, ip
    1624:	00524f30 	subseq	r4, r2, r0, lsr pc
    1628:	52583000 	subspl	r3, r8, #0
    162c:	61300000 	teqvs	r0, r0
    1630:	30000052 	andcc	r0, r0, r2, asr r0
    1634:	0000526a 	andeq	r5, r0, sl, ror #4
    1638:	0034d621 	eorseq	sp, r4, r1, lsr #12
    163c:	004c7b00 	subeq	r7, ip, r0, lsl #22
    1640:	51012200 	mrspl	r2, R9_usr
    1644:	01223001 			; <UNDEFINED> instruction: 0x01223001
    1648:	38080252 	stmdacc	r8, {r1, r4, r6, r9}
    164c:	1f000000 	svcne	0x00000000
    1650:	00004c25 	andeq	r4, r0, r5, lsr #24
    1654:	000034d6 	ldrdeq	r3, [r0], -r6
    1658:	0000000e 	andeq	r0, r0, lr
    165c:	aa06af01 	bge	1ad268 <__bss_end__+0x1981fc>
    1660:	20000016 	andcs	r0, r0, r6, lsl r0
    1664:	00004c3e 	andeq	r4, r0, lr, lsr ip
    1668:	00000c01 	andeq	r0, r0, r1, lsl #24
    166c:	004c3220 	subeq	r3, ip, r0, lsr #4
    1670:	000c1500 	andeq	r1, ip, r0, lsl #10
    1674:	34d63400 	ldrbcc	r3, [r6], #1024	; 0x400
    1678:	000e0000 	andeq	r0, lr, r0
    167c:	4f300000 	svcmi	0x00300000
    1680:	30000052 	andcc	r0, r0, r2, asr r0
    1684:	00005258 	andeq	r5, r0, r8, asr r2
    1688:	00526130 	subseq	r6, r2, r0, lsr r1
    168c:	526a3000 	rsbpl	r3, sl, #0
    1690:	e4210000 	strt	r0, [r1], #-0
    1694:	7b000034 	blvc	176c <PCA9685::Write(unsigned short, unsigned short)+0x14>
    1698:	2200004c 	andcs	r0, r0, #76	; 0x4c
    169c:	30015101 	andcc	r5, r1, r1, lsl #2
    16a0:	03520122 	cmpeq	r2, #-2147483640	; 0x80000008
    16a4:	0001c00a 	andeq	ip, r1, sl
    16a8:	251f0000 	ldrcs	r0, [pc, #-0]	; 16b0 <PCA9685::Write(unsigned char, unsigned short, unsigned short)+0x30>
    16ac:	e400004c 	str	r0, [r0], #-76	; 0xffffffb4
    16b0:	0e000034 	mcreq	0, 0, r0, cr0, cr4, {1}
    16b4:	01000000 	mrseq	r0, (UNDEF: 0)
    16b8:	170506b0 			; <UNDEFINED> instruction: 0x170506b0
    16bc:	3e200000 	cdpcc	0, 2, cr0, cr0, cr0, {0}
    16c0:	2900004c 	stmdbcs	r0, {r2, r3, r6}
    16c4:	2000000c 	andcs	r0, r0, ip
    16c8:	00004c32 	andeq	r4, r0, r2, lsr ip
    16cc:	00000c3d 	andeq	r0, r0, sp, lsr ip
    16d0:	0034e434 	eorseq	lr, r4, r4, lsr r4
    16d4:	00000e00 	andeq	r0, r0, r0, lsl #28
    16d8:	524f3000 	subpl	r3, pc, #0
    16dc:	58300000 	ldmdapl	r0!, {}	; <UNPREDICTABLE>
    16e0:	30000052 	andcc	r0, r0, r2, asr r0
    16e4:	00005261 	andeq	r5, r0, r1, ror #4
    16e8:	00526a30 	subseq	r6, r2, r0, lsr sl
    16ec:	34f22100 	ldrbtcc	r2, [r2], #256	; 0x100
    16f0:	4c7b0000 	ldclmi	0, cr0, [fp], #-0
    16f4:	01220000 			; <UNDEFINED> instruction: 0x01220000
    16f8:	22300151 	eorscs	r0, r0, #1073741844	; 0x40000014
    16fc:	0a035201 	beq	d5f08 <__bss_end__+0xc0e9c>
    1700:	00000e00 	andeq	r0, r0, r0, lsl #28
    1704:	4c251f00 	stcmi	15, cr1, [r5], #-0
    1708:	34f20000 	ldrbtcc	r0, [r2], #0
    170c:	000e0000 	andeq	r0, lr, r0
    1710:	b1010000 	mrslt	r0, (UNDEF: 1)
    1714:	00176006 	andseq	r6, r7, r6
    1718:	4c3e2000 	ldcmi	0, cr2, [lr], #-0
    171c:	0c510000 	mraeq	r0, r1, acc0
    1720:	32200000 	eorcc	r0, r0, #0
    1724:	6500004c 	strvs	r0, [r0, #-76]	; 0xffffffb4
    1728:	3400000c 	strcc	r0, [r0], #-12
    172c:	000034f2 	strdeq	r3, [r0], -r2
    1730:	0000000e 	andeq	r0, r0, lr
    1734:	00524f30 	subseq	r4, r2, r0, lsr pc
    1738:	52583000 	subspl	r3, r8, #0
    173c:	61300000 	teqvs	r0, r0
    1740:	30000052 	andcc	r0, r0, r2, asr r0
    1744:	0000526a 	andeq	r5, r0, sl, ror #4
    1748:	00350021 	eorseq	r0, r5, r1, lsr #32
    174c:	004c7b00 	subeq	r7, ip, r0, lsl #22
    1750:	51012200 	mrspl	r2, R9_usr
    1754:	01223001 			; <UNDEFINED> instruction: 0x01223001
    1758:	000a0352 	andeq	r0, sl, r2, asr r3
    175c:	00000070 	andeq	r0, r0, r0, ror r0
    1760:	004c252e 	subeq	r2, ip, lr, lsr #10
    1764:	00350000 	eorseq	r0, r5, r0
    1768:	0004d800 	andeq	sp, r4, r0, lsl #16
    176c:	06b20100 	ldrteq	r0, [r2], r0, lsl #2
    1770:	004c3e35 	subeq	r3, ip, r5, lsr lr
    1774:	32350000 	eorscc	r0, r5, #0
    1778:	0f00004c 	svceq	0x0000004c
    177c:	0004d82f 	andeq	sp, r4, pc, lsr #16
    1780:	524f3000 	subpl	r3, pc, #0
    1784:	58300000 	ldmdapl	r0!, {}	; <UNPREDICTABLE>
    1788:	30000052 	andcc	r0, r0, r2, asr r0
    178c:	00005261 	andeq	r5, r0, r1, ror #4
    1790:	00526a30 	subseq	r6, r2, r0, lsr sl
    1794:	35123600 	ldrcc	r3, [r2, #-1536]	; 0xfffffa00
    1798:	4c7b0000 	ldclmi	0, cr0, [fp], #-0
    179c:	01220000 			; <UNDEFINED> instruction: 0x01220000
    17a0:	22300151 	eorscs	r0, r0, #1073741844	; 0x40000014
    17a4:	4c035201 	sfmmi	f5, 4, [r3], {1}
    17a8:	0000243d 	andeq	r2, r0, sp, lsr r4
    17ac:	73190000 	tstvc	r9, #0
    17b0:	01000014 	tsteq	r0, r4, lsl r0
    17b4:	00450664 	subeq	r0, r5, r4, ror #12
    17b8:	32cc0000 	sbccc	r0, ip, #0
    17bc:	018c0000 	orreq	r0, ip, r0
    17c0:	9c010000 	stcls	0, cr0, [r1], {-0}
    17c4:	00001d69 	andeq	r1, r0, r9, ror #26
    17c8:	000fe51a 	andeq	lr, pc, sl, lsl r5	; <UNPREDICTABLE>
    17cc:	06660100 	strbteq	r0, [r6], -r0, lsl #2
    17d0:	00000458 	andeq	r0, r0, r8, asr r4
    17d4:	00000c79 	andeq	r0, r0, r9, ror ip
    17d8:	0005b41a 	andeq	fp, r5, sl, lsl r4
    17dc:	06670100 	strbteq	r0, [r7], -r0, lsl #2
    17e0:	00000407 	andeq	r0, r0, r7, lsl #8
    17e4:	00000dce 	andeq	r0, r0, lr, asr #27
    17e8:	004c251f 	subeq	r2, ip, pc, lsl r5
    17ec:	0032de00 	eorseq	sp, r2, r0, lsl #28
    17f0:	00000e00 	andeq	r0, r0, r0, lsl #28
    17f4:	066d0100 	strbteq	r0, [sp], -r0, lsl #2
    17f8:	00001845 	andeq	r1, r0, r5, asr #16
    17fc:	004c3e20 	subeq	r3, ip, r0, lsr #28
    1800:	000de600 	andeq	lr, sp, r0, lsl #12
    1804:	4c322000 	ldcmi	0, cr2, [r2], #-0
    1808:	0dfa0000 	ldcleq	0, cr0, [sl]
    180c:	de340000 	cdple	0, 3, cr0, cr4, cr0, {0}
    1810:	0e000032 	mcreq	0, 0, r0, cr0, cr2, {1}
    1814:	30000000 	andcc	r0, r0, r0
    1818:	0000524f 	andeq	r5, r0, pc, asr #4
    181c:	00525830 	subseq	r5, r2, r0, lsr r8
    1820:	52613000 	rsbpl	r3, r1, #0
    1824:	6a300000 	bvs	c0182c <__bss_end__+0xbec7c0>
    1828:	21000052 	qaddcs	r0, r2, r0
    182c:	000032ec 	andeq	r3, r0, ip, ror #5
    1830:	00004c7b 	andeq	r4, r0, fp, ror ip
    1834:	03510122 	cmpeq	r1, #-2147483640	; 0x80000008
    1838:	2201400a 	andcs	r4, r1, #10
    183c:	0a035201 	beq	d6048 <__bss_end__+0xc0fdc>
    1840:	000001c0 	andeq	r0, r0, r0, asr #3
    1844:	4c251f00 	stcmi	15, cr1, [r5], #-0
    1848:	32ec0000 	rsccc	r0, ip, #0
    184c:	000e0000 	andeq	r0, lr, r0
    1850:	6e010000 	cdpvs	0, 0, cr0, cr1, cr0, {0}
    1854:	0018a206 	andseq	sl, r8, r6, lsl #4
    1858:	4c3e2000 	ldcmi	0, cr2, [lr], #-0
    185c:	0e0e0000 	cdpeq	0, 0, cr0, cr14, cr0, {0}
    1860:	32200000 	eorcc	r0, r0, #0
    1864:	2200004c 	andcs	r0, r0, #76	; 0x4c
    1868:	3400000e 	strcc	r0, [r0], #-14
    186c:	000032ec 	andeq	r3, r0, ip, ror #5
    1870:	0000000e 	andeq	r0, r0, lr
    1874:	00524f30 	subseq	r4, r2, r0, lsr pc
    1878:	52583000 	subspl	r3, r8, #0
    187c:	61300000 	teqvs	r0, r0
    1880:	30000052 	andcc	r0, r0, r2, asr r0
    1884:	0000526a 	andeq	r5, r0, sl, ror #4
    1888:	0032fa21 	eorseq	pc, r2, r1, lsr #20
    188c:	004c7b00 	subeq	r7, ip, r0, lsl #22
    1890:	51012200 	mrspl	r2, R9_usr
    1894:	0a000a03 	beq	40a8 <__libc_csu_init+0x2c>
    1898:	03520122 	cmpeq	r2, #-2147483640	; 0x80000008
    189c:	000e000a 	andeq	r0, lr, sl
    18a0:	251f0000 	ldrcs	r0, [pc, #-0]	; 18a8 <PCA9685::Read(unsigned char, unsigned short*, unsigned short*)+0x9c>
    18a4:	fa00004c 	blx	19dc <PCA9685::SetFullOn(unsigned char, bool)+0x5c>
    18a8:	0e000032 	mcreq	0, 0, r0, cr0, cr2, {1}
    18ac:	01000000 	mrseq	r0, (UNDEF: 0)
    18b0:	18ff066f 	ldmne	pc!, {r0, r1, r2, r3, r5, r6, r9, sl}^	; <UNPREDICTABLE>
    18b4:	3e200000 	cdpcc	0, 2, cr0, cr0, cr0, {0}
    18b8:	3600004c 	strcc	r0, [r0], -ip, asr #32
    18bc:	2000000e 	andcs	r0, r0, lr
    18c0:	00004c32 	andeq	r4, r0, r2, lsr ip
    18c4:	00000e4a 	andeq	r0, r0, sl, asr #28
    18c8:	0032fa34 	eorseq	pc, r2, r4, lsr sl	; <UNPREDICTABLE>
    18cc:	00000e00 	andeq	r0, r0, r0, lsl #28
    18d0:	524f3000 	subpl	r3, pc, #0
    18d4:	58300000 	ldmdapl	r0!, {}	; <UNPREDICTABLE>
    18d8:	30000052 	andcc	r0, r0, r2, asr r0
    18dc:	00005261 	andeq	r5, r0, r1, ror #4
    18e0:	00526a30 	subseq	r6, r2, r0, lsr sl
    18e4:	33082100 	movwcc	r2, #33024	; 0x8100
    18e8:	4c7b0000 	ldclmi	0, cr0, [fp], #-0
    18ec:	01220000 			; <UNDEFINED> instruction: 0x01220000
    18f0:	000a0351 	andeq	r0, sl, r1, asr r3
    18f4:	52012250 	andpl	r2, r1, #80, 4
    18f8:	70000a03 	andvc	r0, r0, r3, lsl #20
    18fc:	1f000000 	svcne	0x00000000
    1900:	00004c25 	andeq	r4, r0, r5, lsr #24
    1904:	00003308 	andeq	r3, r0, r8, lsl #6
    1908:	0000000e 	andeq	r0, r0, lr
    190c:	5c067001 	stcpl	0, cr7, [r6], {1}
    1910:	20000019 	andcs	r0, r0, r9, lsl r0
    1914:	00004c3e 	andeq	r4, r0, lr, lsr ip
    1918:	00000e5e 	andeq	r0, r0, lr, asr lr
    191c:	004c3220 	subeq	r3, ip, r0, lsr #4
    1920:	000e5e00 	andeq	r5, lr, r0, lsl #28
    1924:	33083400 	movwcc	r3, #33792	; 0x8400
    1928:	000e0000 	andeq	r0, lr, r0
    192c:	4f300000 	svcmi	0x00300000
    1930:	30000052 	andcc	r0, r0, r2, asr r0
    1934:	00005258 	andeq	r5, r0, r8, asr r2
    1938:	00526130 	subseq	r6, r2, r0, lsr r1
    193c:	526a3000 	rsbpl	r3, sl, #0
    1940:	16210000 	strtne	r0, [r1], -r0
    1944:	7b000033 	blvc	1a18 <PCA9685::SetFullOn(unsigned char, bool)+0x98>
    1948:	2200004c 	andcs	r0, r0, #76	; 0x4c
    194c:	44035101 	strmi	r5, [r3], #-257	; 0xfffffeff
    1950:	0122243d 			; <UNDEFINED> instruction: 0x0122243d
    1954:	3d4c0352 	stclcc	3, cr0, [ip, #-328]	; 0xfffffeb8
    1958:	00000024 	andeq	r0, r0, r4, lsr #32
    195c:	004c251f 	subeq	r2, ip, pc, lsl r5
    1960:	00331600 	eorseq	r1, r3, r0, lsl #12
    1964:	00000e00 	andeq	r0, r0, r0, lsl #28
    1968:	06710100 	ldrbteq	r0, [r1], -r0, lsl #2
    196c:	000019b9 			; <UNDEFINED> instruction: 0x000019b9
    1970:	004c3e20 	subeq	r3, ip, r0, lsr #28
    1974:	000e7200 	andeq	r7, lr, r0, lsl #4
    1978:	4c322000 	ldcmi	0, cr2, [r2], #-0
    197c:	0e860000 	cdpeq	0, 8, cr0, cr6, cr0, {0}
    1980:	16340000 	ldrtne	r0, [r4], -r0
    1984:	0e000033 	mcreq	0, 0, r0, cr0, cr3, {1}
    1988:	30000000 	andcc	r0, r0, r0
    198c:	0000524f 	andeq	r5, r0, pc, asr #4
    1990:	00525830 	subseq	r5, r2, r0, lsr r8
    1994:	52613000 	rsbpl	r3, r1, #0
    1998:	6a300000 	bvs	c019a0 <__bss_end__+0xbec934>
    199c:	21000052 	qaddcs	r0, r2, r0
    19a0:	00003324 	andeq	r3, r0, r4, lsr #6
    19a4:	00004c7b 	andeq	r4, r0, fp, ror ip
    19a8:	03510122 	cmpeq	r1, #-2147483640	; 0x80000008
    19ac:	22244044 	eorcs	r4, r4, #68	; 0x44
    19b0:	4c035201 	sfmmi	f5, 4, [r3], {1}
    19b4:	00002440 	andeq	r2, r0, r0, asr #8
    19b8:	4c251f00 	stcmi	15, cr1, [r5], #-0
    19bc:	33240000 			; <UNDEFINED> instruction: 0x33240000
    19c0:	000e0000 	andeq	r0, lr, r0
    19c4:	72010000 	andvc	r0, r1, #0
    19c8:	001a1606 	andseq	r1, sl, r6, lsl #12
    19cc:	4c3e2000 	ldcmi	0, cr2, [lr], #-0
    19d0:	0e9a0000 	cdpeq	0, 9, cr0, cr10, cr0, {0}
    19d4:	32200000 	eorcc	r0, r0, #0
    19d8:	ae00004c 	cdpge	0, 0, cr0, cr0, cr12, {2}
    19dc:	3400000e 	strcc	r0, [r0], #-14
    19e0:	00003324 	andeq	r3, r0, r4, lsr #6
    19e4:	0000000e 	andeq	r0, r0, lr
    19e8:	00524f30 	subseq	r4, r2, r0, lsr pc
    19ec:	52583000 	subspl	r3, r8, #0
    19f0:	61300000 	teqvs	r0, r0
    19f4:	30000052 	andcc	r0, r0, r2, asr r0
    19f8:	0000526a 	andeq	r5, r0, sl, ror #4
    19fc:	00333221 	eorseq	r3, r3, r1, lsr #4
    1a00:	004c7b00 	subeq	r7, ip, r0, lsl #22
    1a04:	51012200 	mrspl	r2, R9_usr
    1a08:	24434403 	strbcs	r4, [r3], #-1027	; 0xfffffbfd
    1a0c:	03520122 	cmpeq	r2, #-2147483640	; 0x80000008
    1a10:	0024434c 	eoreq	r4, r4, ip, asr #6
    1a14:	251f0000 	ldrcs	r0, [pc, #-0]	; 1a1c <PCA9685::SetFullOn(unsigned char, bool)+0x9c>
    1a18:	3200004c 	andcc	r0, r0, #76	; 0x4c
    1a1c:	0e000033 	mcreq	0, 0, r0, cr0, cr3, {1}
    1a20:	01000000 	mrseq	r0, (UNDEF: 0)
    1a24:	1a730673 	bne	1cc33f8 <__bss_end__+0x1cae38c>
    1a28:	3e200000 	cdpcc	0, 2, cr0, cr0, cr0, {0}
    1a2c:	c200004c 	andgt	r0, r0, #76	; 0x4c
    1a30:	2000000e 	andcs	r0, r0, lr
    1a34:	00004c32 	andeq	r4, r0, r2, lsr ip
    1a38:	00000ed6 	ldrdeq	r0, [r0], -r6
    1a3c:	00333234 	eorseq	r3, r3, r4, lsr r2
    1a40:	00000e00 	andeq	r0, r0, r0, lsl #28
    1a44:	524f3000 	subpl	r3, pc, #0
    1a48:	58300000 	ldmdapl	r0!, {}	; <UNPREDICTABLE>
    1a4c:	30000052 	andcc	r0, r0, r2, asr r0
    1a50:	00005261 	andeq	r5, r0, r1, ror #4
    1a54:	00526a30 	subseq	r6, r2, r0, lsr sl
    1a58:	33402100 	movtcc	r2, #256	; 0x100
    1a5c:	4c7b0000 	ldclmi	0, cr0, [fp], #-0
    1a60:	01220000 			; <UNDEFINED> instruction: 0x01220000
    1a64:	46440351 			; <UNDEFINED> instruction: 0x46440351
    1a68:	52012224 	andpl	r2, r1, #36, 4	; 0x40000002
    1a6c:	24464c03 	strbcs	r4, [r6], #-3075	; 0xfffff3fd
    1a70:	1f000000 	svcne	0x00000000
    1a74:	00004c25 	andeq	r4, r0, r5, lsr #24
    1a78:	00003340 	andeq	r3, r0, r0, asr #6
    1a7c:	0000000e 	andeq	r0, r0, lr
    1a80:	d0067401 	andle	r7, r6, r1, lsl #8
    1a84:	2000001a 	andcs	r0, r0, sl, lsl r0
    1a88:	00004c3e 	andeq	r4, r0, lr, lsr ip
    1a8c:	00000eea 	andeq	r0, r0, sl, ror #29
    1a90:	004c3220 	subeq	r3, ip, r0, lsr #4
    1a94:	000efe00 	andeq	pc, lr, r0, lsl #28
    1a98:	33403400 	movtcc	r3, #1024	; 0x400
    1a9c:	000e0000 	andeq	r0, lr, r0
    1aa0:	4f300000 	svcmi	0x00300000
    1aa4:	30000052 	andcc	r0, r0, r2, asr r0
    1aa8:	00005258 	andeq	r5, r0, r8, asr r2
    1aac:	00526130 	subseq	r6, r2, r0, lsr r1
    1ab0:	526a3000 	rsbpl	r3, sl, #0
    1ab4:	4e210000 	cdpmi	0, 2, cr0, cr1, cr0, {0}
    1ab8:	7b000033 	blvc	1b8c <PCA9685::CalcPresScale(unsigned short)+0x38>
    1abc:	2200004c 	andcs	r0, r0, #76	; 0x4c
    1ac0:	44035101 	strmi	r5, [r3], #-257	; 0xfffffeff
    1ac4:	01222449 			; <UNDEFINED> instruction: 0x01222449
    1ac8:	494c0352 	stmdbmi	ip, {r1, r4, r6, r8, r9}^
    1acc:	00000024 	andeq	r0, r0, r4, lsr #32
    1ad0:	004c251f 	subeq	r2, ip, pc, lsl r5
    1ad4:	00334e00 	eorseq	r4, r3, r0, lsl #28
    1ad8:	00000c00 	andeq	r0, r0, r0, lsl #24
    1adc:	06750100 	ldrbteq	r0, [r5], -r0, lsl #2
    1ae0:	00001b29 	andeq	r1, r0, r9, lsr #22
    1ae4:	004c3e20 	subeq	r3, ip, r0, lsr #28
    1ae8:	000f1200 	andeq	r1, pc, r0, lsl #4
    1aec:	4c322000 	ldcmi	0, cr2, [r2], #-0
    1af0:	0f260000 	svceq	0x00260000
    1af4:	4e340000 	cdpmi	0, 3, cr0, cr4, cr0, {0}
    1af8:	0c000033 	stceq	0, cr0, [r0], {51}	; 0x33
    1afc:	30000000 	andcc	r0, r0, r0
    1b00:	0000524f 	andeq	r5, r0, pc, asr #4
    1b04:	00525830 	subseq	r5, r2, r0, lsr r8
    1b08:	52613000 	rsbpl	r3, r1, #0
    1b0c:	6a300000 	bvs	c01b14 <__bss_end__+0xbecaa8>
    1b10:	21000052 	qaddcs	r0, r2, r0
    1b14:	0000335a 	andeq	r3, r0, sl, asr r3
    1b18:	00004c7b 	andeq	r4, r0, fp, ror ip
    1b1c:	01510122 	cmpeq	r1, r2, lsr #2
    1b20:	52012235 	andpl	r2, r1, #1342177283	; 0x50000003
    1b24:	00003701 	andeq	r3, r0, r1, lsl #14
    1b28:	4c251f00 	stcmi	15, cr1, [r5], #-0
    1b2c:	335a0000 	cmpcc	sl, #0
    1b30:	000c0000 	andeq	r0, ip, r0
    1b34:	76010000 	strvc	r0, [r1], -r0
    1b38:	001b8406 	andseq	r8, fp, r6, lsl #8
    1b3c:	4c3e2000 	ldcmi	0, cr2, [lr], #-0
    1b40:	0f3a0000 	svceq	0x003a0000
    1b44:	32200000 	eorcc	r0, r0, #0
    1b48:	4e00004c 	cdpmi	0, 0, cr0, cr0, cr12, {2}
    1b4c:	3400000f 	strcc	r0, [r0], #-15
    1b50:	0000335a 	andeq	r3, r0, sl, asr r3
    1b54:	0000000c 	andeq	r0, r0, ip
    1b58:	00524f30 	subseq	r4, r2, r0, lsr pc
    1b5c:	52583000 	subspl	r3, r8, #0
    1b60:	61300000 	teqvs	r0, r0
    1b64:	30000052 	andcc	r0, r0, r2, asr r0
    1b68:	0000526a 	andeq	r5, r0, sl, ror #4
    1b6c:	00336621 	eorseq	r6, r3, r1, lsr #12
    1b70:	004c7b00 	subeq	r7, ip, r0, lsl #22
    1b74:	51012200 	mrspl	r2, R9_usr
    1b78:	22280802 	eorcs	r0, r8, #131072	; 0x20000
    1b7c:	08025201 	stmdaeq	r2, {r0, r9, ip, lr}
    1b80:	00000038 	andeq	r0, r0, r8, lsr r0
    1b84:	004c251f 	subeq	r2, ip, pc, lsl r5
    1b88:	00336600 	eorseq	r6, r3, r0, lsl #12
    1b8c:	00001000 	andeq	r1, r0, r0
    1b90:	06770100 	ldrbteq	r0, [r7], -r0, lsl #2
    1b94:	00001be1 	andeq	r1, r0, r1, ror #23
    1b98:	004c3e20 	subeq	r3, ip, r0, lsr #28
    1b9c:	000f6200 	andeq	r6, pc, r0, lsl #4
    1ba0:	4c322000 	ldcmi	0, cr2, [r2], #-0
    1ba4:	0f760000 	svceq	0x00760000
    1ba8:	66340000 	ldrtvs	r0, [r4], -r0
    1bac:	10000033 	andne	r0, r0, r3, lsr r0
    1bb0:	30000000 	andcc	r0, r0, r0
    1bb4:	0000524f 	andeq	r5, r0, pc, asr #4
    1bb8:	00525830 	subseq	r5, r2, r0, lsr r8
    1bbc:	52613000 	rsbpl	r3, r1, #0
    1bc0:	6a300000 	bvs	c01bc8 <__bss_end__+0xbecb5c>
    1bc4:	21000052 	qaddcs	r0, r2, r0
    1bc8:	00003376 	andeq	r3, r0, r6, ror r3
    1bcc:	00004c7b 	andeq	r4, r0, fp, ror ip
    1bd0:	03510122 	cmpeq	r1, #-2147483640	; 0x80000008
    1bd4:	2201400a 	andcs	r4, r1, #10
    1bd8:	0a035201 	beq	d63e4 <__bss_end__+0xc1378>
    1bdc:	000001c0 	andeq	r0, r0, r0, asr #3
    1be0:	4c251f00 	stcmi	15, cr1, [r5], #-0
    1be4:	33760000 	cmncc	r6, #0
    1be8:	00100000 	andseq	r0, r0, r0
    1bec:	78010000 	stmdavc	r1, {}	; <UNPREDICTABLE>
    1bf0:	001c3e06 	andseq	r3, ip, r6, lsl #28
    1bf4:	4c3e2000 	ldcmi	0, cr2, [lr], #-0
    1bf8:	0f8a0000 	svceq	0x008a0000
    1bfc:	32200000 	eorcc	r0, r0, #0
    1c00:	9e00004c 	cdpls	0, 0, cr0, cr0, cr12, {2}
    1c04:	3400000f 	strcc	r0, [r0], #-15
    1c08:	00003376 	andeq	r3, r0, r6, ror r3
    1c0c:	00000010 	andeq	r0, r0, r0, lsl r0
    1c10:	00524f30 	subseq	r4, r2, r0, lsr pc
    1c14:	52583000 	subspl	r3, r8, #0
    1c18:	61300000 	teqvs	r0, r0
    1c1c:	30000052 	andcc	r0, r0, r2, asr r0
    1c20:	0000526a 	andeq	r5, r0, sl, ror #4
    1c24:	00338621 	eorseq	r8, r3, r1, lsr #12
    1c28:	004c7b00 	subeq	r7, ip, r0, lsl #22
    1c2c:	51012200 	mrspl	r2, R9_usr
    1c30:	0a000a03 	beq	4444 <bcm2835_byte_reverse_table+0x304>
    1c34:	03520122 	cmpeq	r2, #-2147483640	; 0x80000008
    1c38:	000e000a 	andeq	r0, lr, sl
    1c3c:	251f0000 	ldrcs	r0, [pc, #-0]	; 1c44 <PCA9685::CalcFrequency(unsigned char)+0xa8>
    1c40:	8600004c 	strhi	r0, [r0], -ip, asr #32
    1c44:	10000033 	andne	r0, r0, r3, lsr r0
    1c48:	01000000 	mrseq	r0, (UNDEF: 0)
    1c4c:	1c9b0679 	ldcne	6, cr0, [fp], {121}	; 0x79
    1c50:	3e200000 	cdpcc	0, 2, cr0, cr0, cr0, {0}
    1c54:	b200004c 	andlt	r0, r0, #76	; 0x4c
    1c58:	2000000f 	andcs	r0, r0, pc
    1c5c:	00004c32 	andeq	r4, r0, r2, lsr ip
    1c60:	00000fc6 	andeq	r0, r0, r6, asr #31
    1c64:	00338634 	eorseq	r8, r3, r4, lsr r6
    1c68:	00001000 	andeq	r1, r0, r0
    1c6c:	524f3000 	subpl	r3, pc, #0
    1c70:	58300000 	ldmdapl	r0!, {}	; <UNPREDICTABLE>
    1c74:	30000052 	andcc	r0, r0, r2, asr r0
    1c78:	00005261 	andeq	r5, r0, r1, ror #4
    1c7c:	00526a30 	subseq	r6, r2, r0, lsr sl
    1c80:	33962100 	orrscc	r2, r6, #0, 2
    1c84:	4c7b0000 	ldclmi	0, cr0, [fp], #-0
    1c88:	01220000 			; <UNDEFINED> instruction: 0x01220000
    1c8c:	000a0351 	andeq	r0, sl, r1, asr r3
    1c90:	52012250 	andpl	r2, r1, #80, 4
    1c94:	70000a03 	andvc	r0, r0, r3, lsl #20
    1c98:	1f000000 	svcne	0x00000000
    1c9c:	00004c25 	andeq	r4, r0, r5, lsr #24
    1ca0:	00003396 	muleq	r0, r6, r3
    1ca4:	00000010 	andeq	r0, r0, r0, lsl r0
    1ca8:	f8067a01 			; <UNDEFINED> instruction: 0xf8067a01
    1cac:	2000001c 	andcs	r0, r0, ip, lsl r0
    1cb0:	00004c3e 	andeq	r4, r0, lr, lsr ip
    1cb4:	00000fda 	ldrdeq	r0, [r0], -sl
    1cb8:	004c3220 	subeq	r3, ip, r0, lsr #4
    1cbc:	000fee00 	andeq	lr, pc, r0, lsl #28
    1cc0:	33963400 	orrscc	r3, r6, #0, 8
    1cc4:	00100000 	andseq	r0, r0, r0
    1cc8:	4f300000 	svcmi	0x00300000
    1ccc:	30000052 	andcc	r0, r0, r2, asr r0
    1cd0:	00005258 	andeq	r5, r0, r8, asr r2
    1cd4:	00526130 	subseq	r6, r2, r0, lsr r1
    1cd8:	526a3000 	rsbpl	r3, sl, #0
    1cdc:	a6210000 	strtge	r0, [r1], -r0
    1ce0:	7b000033 	blvc	1db4 <PCA9685::I2cWriteReg(unsigned char, unsigned char)+0x3c>
    1ce4:	2200004c 	andcs	r0, r0, #76	; 0x4c
    1ce8:	44035101 	strmi	r5, [r3], #-257	; 0xfffffeff
    1cec:	0122243d 			; <UNDEFINED> instruction: 0x0122243d
    1cf0:	3d4c0352 	stclcc	3, cr0, [ip, #-328]	; 0xfffffeb8
    1cf4:	00000024 	andeq	r0, r0, r4, lsr #32
    1cf8:	0033b225 	eorseq	fp, r3, r5, lsr #4
    1cfc:	004d1800 	subeq	r1, sp, r0, lsl #16
    1d00:	001d0e00 	andseq	r0, sp, r0, lsl #28
    1d04:	51012200 	mrspl	r2, R9_usr
    1d08:	47b40804 	ldrmi	r0, [r4, r4, lsl #16]!
    1d0c:	c2240024 	eorgt	r0, r4, #36	; 0x24
    1d10:	18000033 	stmdane	r0, {r0, r1, r4, r5}
    1d14:	2400004d 	strcs	r0, [r0], #-77	; 0xffffffb3
    1d18:	000033d0 	ldrdeq	r3, [r0], -r0
    1d1c:	00004d18 	andeq	r4, r0, r8, lsl sp
    1d20:	0033e024 	eorseq	lr, r3, r4, lsr #32
    1d24:	004d1800 	subeq	r1, sp, r0, lsl #16
    1d28:	33f02400 	mvnscc	r2, #0, 8
    1d2c:	4d180000 	ldcmi	0, cr0, [r8, #-0]
    1d30:	00240000 	eoreq	r0, r4, r0
    1d34:	18000034 	stmdane	r0, {r2, r4, r5}
    1d38:	2400004d 	strcs	r0, [r0], #-77	; 0xffffffb3
    1d3c:	00003410 	andeq	r3, r0, r0, lsl r4
    1d40:	00004d18 	andeq	r4, r0, r8, lsl sp
    1d44:	00342024 	eorseq	r2, r4, r4, lsr #32
    1d48:	004d1800 	subeq	r1, sp, r0, lsl #16
    1d4c:	34302400 	ldrtcc	r2, [r0], #-1024	; 0xfffffc00
    1d50:	4d180000 	ldcmi	0, cr0, [r8, #-0]
    1d54:	40240000 	eormi	r0, r4, r0
    1d58:	18000034 	stmdane	r0, {r2, r4, r5}
    1d5c:	2400004d 	strcs	r0, [r0], #-77	; 0xffffffb3
    1d60:	00003450 	andeq	r3, r0, r0, asr r4
    1d64:	00004d18 	andeq	r4, r0, r8, lsl sp
    1d68:	06811900 	streq	r1, [r1], r0, lsl #18
    1d6c:	fe010000 	cdp2	0, 0, cr0, cr1, cr0, {0}
    1d70:	0003f105 	andeq	pc, r3, r5, lsl #2
    1d74:	0039d800 	eorseq	sp, r9, r0, lsl #16
    1d78:	0001a000 	andeq	sl, r1, r0
    1d7c:	159c0100 	ldrne	r0, [ip, #256]	; 0x100
    1d80:	2b000020 	blcs	1e08 <PCA9685::I2cReadReg(unsigned char)+0x44>
    1d84:	00000816 	andeq	r0, r0, r6, lsl r8
    1d88:	e005fe01 	and	pc, r5, r1, lsl #28
    1d8c:	02000000 	andeq	r0, r0, #0
    1d90:	2b000010 	blcs	1dd8 <PCA9685::I2cReadReg(unsigned char)+0x14>
    1d94:	00000409 	andeq	r0, r0, r9, lsl #8
    1d98:	0705fe01 	streq	pc, [r5, -r1, lsl #28]
    1d9c:	3b000004 	blcc	1db4 <PCA9685::I2cWriteReg(unsigned char, unsigned char)+0x3c>
    1da0:	37000010 	smladcc	r0, r0, r0, r0
    1da4:	00667562 	rsbeq	r7, r6, r2, ror #10
    1da8:	e005fe01 	and	pc, r5, r1, lsl #28
    1dac:	67000000 	strvs	r0, [r0, -r0]
    1db0:	2b000010 	blcs	1df8 <PCA9685::I2cReadReg(unsigned char)+0x34>
    1db4:	000014de 	ldrdeq	r1, [r0], -lr
    1db8:	0705fe01 	streq	pc, [r5, -r1, lsl #28]
    1dbc:	9e000004 	cdpls	0, 0, cr0, cr0, cr4, {0}
    1dc0:	1a000010 	bne	1e08 <PCA9685::I2cReadReg(unsigned char)+0x44>
    1dc4:	00001009 	andeq	r1, r0, r9
    1dc8:	58060601 	stmdapl	r6, {r0, r9, sl}
    1dcc:	ca000004 	bgt	1de4 <PCA9685::I2cReadReg(unsigned char)+0x20>
    1dd0:	1a000010 	bne	1e18 <PCA9685::I2cWriteReg(unsigned char, unsigned short)>
    1dd4:	0000044a 	andeq	r0, r0, sl, asr #8
    1dd8:	58060701 	stmdapl	r6, {r0, r8, r9, sl}
    1ddc:	f4000004 	vst4.8	{d0-d3}, [r0], r4
    1de0:	17000010 	smladne	r0, r0, r0, r0
    1de4:	0000095a 	andeq	r0, r0, sl, asr r9
    1de8:	58060801 	stmdapl	r6, {r0, fp}
    1dec:	01000004 	tsteq	r0, r4
    1df0:	0b2b1757 	bleq	ac7b54 <__bss_end__+0xab2ae8>
    1df4:	09010000 	stmdbeq	r1, {}	; <UNPREDICTABLE>
    1df8:	00045806 	andeq	r5, r4, r6, lsl #16
    1dfc:	1a580100 	bne	1602204 <__bss_end__+0x15ed198>
    1e00:	00000648 	andeq	r0, r0, r8, asr #12
    1e04:	07060c01 	streq	r0, [r6, -r1, lsl #24]
    1e08:	1d000004 	stcne	0, cr0, [r0, #-16]
    1e0c:	1b000011 	blne	1e58 <PCA9685::I2cWriteReg(unsigned char, unsigned short)+0x40>
    1e10:	0d010069 	stceq	0, cr0, [r1, #-420]	; 0xfffffe5c
    1e14:	00040706 	andeq	r0, r4, r6, lsl #14
    1e18:	00119600 	andseq	r9, r1, r0, lsl #12
    1e1c:	10991a00 	addsne	r1, r9, r0, lsl #20
    1e20:	0e010000 	cdpeq	0, 0, cr0, cr1, cr0, {0}
    1e24:	0003f106 	andeq	pc, r3, r6, lsl #2
    1e28:	0011d900 	andseq	sp, r1, r0, lsl #18
    1e2c:	4cf52300 	ldclmi	3, cr2, [r5]
    1e30:	3a1c0000 	bcc	701e38 <__bss_end__+0x6ecdcc>
    1e34:	05b00000 	ldreq	r0, [r0, #0]!
    1e38:	1c010000 	stcne	0, cr0, [r1], {-0}
    1e3c:	001e6006 	andseq	r6, lr, r6
    1e40:	4d0c2000 	stcmi	0, cr2, [ip, #-0]
    1e44:	12040000 	andne	r0, r4, #0
    1e48:	01380000 	teqeq	r8, r0
    1e4c:	2100004d 	tstcs	r0, sp, asr #32
    1e50:	00003a50 	andeq	r3, r0, r0, asr sl
    1e54:	00004ef2 	strdeq	r4, [r0], -r2
    1e58:	02500122 	subseq	r0, r0, #-2147483640	; 0x80000008
    1e5c:	0000007a 	andeq	r0, r0, sl, ror r0
    1e60:	004d3b23 	subeq	r3, sp, r3, lsr #22
    1e64:	003a5200 	eorseq	r5, sl, r0, lsl #4
    1e68:	0005d800 	andeq	sp, r5, r0, lsl #16
    1e6c:	06280100 	strteq	r0, [r8], -r0, lsl #2
    1e70:	00001e8a 	andeq	r1, r0, sl, lsl #29
    1e74:	004d4b38 	subeq	r4, sp, r8, lsr fp
    1e78:	3a802100 	bcc	fe00a280 <__bss_end__+0xfdff5214>
    1e7c:	4ea60000 	cdpmi	0, 10, cr0, cr6, cr0, {0}
    1e80:	01220000 			; <UNDEFINED> instruction: 0x01220000
    1e84:	00770250 	rsbseq	r0, r7, r0, asr r2
    1e88:	3b230000 	blcc	8c1e90 <__bss_end__+0x8ace24>
    1e8c:	a200004d 	andge	r0, r0, #77	; 0x4d
    1e90:	0000003a 	andeq	r0, r0, sl, lsr r0
    1e94:	01000006 	tsteq	r0, r6
    1e98:	1eb4063d 	mrcne	6, 5, r0, cr4, cr13, {1}
    1e9c:	4b380000 	blmi	e01ea4 <__bss_end__+0xdece38>
    1ea0:	2100004d 	tstcs	r0, sp, asr #32
    1ea4:	00003af4 	strdeq	r3, [r0], -r4
    1ea8:	00004ea6 	andeq	r4, r0, r6, lsr #29
    1eac:	02500122 	subseq	r0, r0, #-2147483640	; 0x80000008
    1eb0:	0000007a 	andeq	r0, r0, sl, ror r0
    1eb4:	004d3b23 	subeq	r3, sp, r3, lsr #22
    1eb8:	003ab200 	eorseq	fp, sl, r0, lsl #4
    1ebc:	00062800 	andeq	r2, r6, r0, lsl #16
    1ec0:	06370100 	ldrteq	r0, [r7], -r0, lsl #2
    1ec4:	00001ede 	ldrdeq	r1, [r0], -lr
    1ec8:	004d4b38 	subeq	r4, sp, r8, lsr fp
    1ecc:	3afc2100 	bcc	fff0a2d4 <__bss_end__+0xffef5268>
    1ed0:	4ea60000 	cdpmi	0, 10, cr0, cr6, cr0, {0}
    1ed4:	01220000 			; <UNDEFINED> instruction: 0x01220000
    1ed8:	00770250 	rsbseq	r0, r7, r0, asr r2
    1edc:	04250000 	strteq	r0, [r5], #-0
    1ee0:	7b00003a 	blvc	1fd0 <mapmem.constprop.9+0x40>
    1ee4:	fe00004c 	cdp2	0, 0, cr0, cr0, cr12, {2}
    1ee8:	2200001e 	andcs	r0, r0, #30
    1eec:	78025001 	stmdavc	r2, {r0, ip, lr}
    1ef0:	51012200 	mrspl	r2, R9_usr
    1ef4:	22200802 	eorcs	r0, r0, #131072	; 0x20000
    1ef8:	08025201 	stmdaeq	r2, {r0, r9, ip, lr}
    1efc:	0e250020 	cdpeq	0, 2, cr0, cr5, cr0, {1}
    1f00:	1800003a 	stmdane	r0, {r1, r3, r4, r5}
    1f04:	1900004d 	stmdbne	r0, {r0, r2, r3, r6}
    1f08:	2200001f 	andcs	r0, r0, #31
    1f0c:	77025001 	strvc	r5, [r2, -r1]
    1f10:	51012200 	mrspl	r2, R9_usr
    1f14:	03020a03 	movweq	r0, #10755	; 0x2a03
    1f18:	3a1a2500 	bcc	68b320 <__bss_end__+0x6762b4>
    1f1c:	4d180000 	ldcmi	0, cr0, [r8, #-0]
    1f20:	1f330000 	svcne	0x00330000
    1f24:	01220000 			; <UNDEFINED> instruction: 0x01220000
    1f28:	00750250 	rsbseq	r0, r5, r0, asr r2
    1f2c:	02510122 	subseq	r0, r1, #-2147483640	; 0x80000008
    1f30:	25000076 	strcs	r0, [r0, #-118]	; 0xffffff8a
    1f34:	00003a5e 	andeq	r3, r0, lr, asr sl
    1f38:	00004d18 	andeq	r4, r0, r8, lsl sp
    1f3c:	00001f4e 	andeq	r1, r0, lr, asr #30
    1f40:	02500122 	subseq	r0, r0, #-2147483640	; 0x80000008
    1f44:	01220078 			; <UNDEFINED> instruction: 0x01220078
    1f48:	800a0351 	andhi	r0, sl, r1, asr r3
    1f4c:	70250080 	eorvc	r0, r5, r0, lsl #1
    1f50:	5700003a 	smladxpl	r0, sl, r0, r0
    1f54:	6200004d 	andvs	r0, r0, #77	; 0x4d
    1f58:	2200001f 	andcs	r0, r0, #31
    1f5c:	77025001 	strvc	r5, [r2, -r1]
    1f60:	92250000 	eorls	r0, r5, #0
    1f64:	1800003a 	stmdane	r0, {r1, r3, r4, r5}
    1f68:	7d00004d 	stcvc	0, cr0, [r0, #-308]	; 0xfffffecc
    1f6c:	2200001f 	andcs	r0, r0, #31
    1f70:	91035001 	tstls	r3, r1
    1f74:	01220654 			; <UNDEFINED> instruction: 0x01220654
    1f78:	00740251 	rsbseq	r0, r4, r1, asr r2
    1f7c:	3a9c2500 	bcc	fe70b384 <__bss_end__+0xfe6f6318>
    1f80:	4d180000 	ldcmi	0, cr0, [r8, #-0]
    1f84:	1f980000 	svcne	0x00980000
    1f88:	01220000 			; <UNDEFINED> instruction: 0x01220000
    1f8c:	00780250 	rsbseq	r0, r8, r0, asr r2
    1f90:	03510122 	cmpeq	r1, #-2147483640	; 0x80000008
    1f94:	0080810a 	addeq	r8, r0, sl, lsl #2
    1f98:	003aae24 	eorseq	sl, sl, r4, lsr #28
    1f9c:	0042a800 	subeq	sl, r2, r0, lsl #16
    1fa0:	3ae22500 	bcc	ff88b3a8 <__bss_end__+0xff87633c>
    1fa4:	4d570000 	ldclmi	0, cr0, [r7, #-0]
    1fa8:	1fb50000 	svcne	0x00b50000
    1fac:	01220000 			; <UNDEFINED> instruction: 0x01220000
    1fb0:	00770250 	rsbseq	r0, r7, r0, asr r2
    1fb4:	3b102400 	blcc	40afbc <__bss_end__+0x3f5f50>
    1fb8:	4d570000 	ldclmi	0, cr0, [r7, #-0]
    1fbc:	1e250000 	cdpne	0, 2, cr0, cr5, cr0, {0}
    1fc0:	5700003b 	smladxpl	r0, fp, r0, r0
    1fc4:	d200004d 	andle	r0, r0, #77	; 0x4d
    1fc8:	2200001f 	andcs	r0, r0, #31
    1fcc:	77025001 	strvc	r5, [r2, -r1]
    1fd0:	2c250000 	stccs	0, cr0, [r5], #-0
    1fd4:	5700003b 	smladxpl	r0, fp, r0, r0
    1fd8:	e600004d 	str	r0, [r0], -sp, asr #32
    1fdc:	2200001f 	andcs	r0, r0, #31
    1fe0:	77025001 	strvc	r5, [r2, -r1]
    1fe4:	3e250000 	cdpcc	0, 2, cr0, cr5, cr0, {0}
    1fe8:	7b00003b 	blvc	20dc <bcm2835_peri_write+0x4>
    1fec:	0400004c 	streq	r0, [r0], #-76	; 0xffffffb4
    1ff0:	22000020 	andcs	r0, r0, #32
    1ff4:	78025001 	stmdavc	r2, {r0, ip, lr}
    1ff8:	51012200 	mrspl	r2, R9_usr
    1ffc:	01223201 			; <UNDEFINED> instruction: 0x01223201
    2000:	00320152 	eorseq	r0, r2, r2, asr r1
    2004:	003b5021 	eorseq	r5, fp, r1, lsr #32
    2008:	004d5700 	subeq	r5, sp, r0, lsl #14
    200c:	50012200 	andpl	r2, r1, r0, lsl #4
    2010:	00007702 	andeq	r7, r0, r2, lsl #14
    2014:	03371900 	teqeq	r7, #0, 18
    2018:	a3010000 	movwge	r0, #4096	; 0x1000
    201c:	0003f105 	andeq	pc, r3, r5, lsl #2
    2020:	0038a800 	eorseq	sl, r8, r0, lsl #16
    2024:	00013000 	andeq	r3, r1, r0
    2028:	749c0100 	ldrvc	r0, [ip], #256	; 0x100
    202c:	2b000022 	blcs	20bc <bcm2835_peri_read+0x28>
    2030:	00001262 	andeq	r1, r0, r2, ror #4
    2034:	e005a301 	and	sl, r5, r1, lsl #6
    2038:	22000000 	andcs	r0, r0, #0
    203c:	37000012 	smladcc	r0, r2, r0, r0
    2040:	00667562 	rsbeq	r7, r6, r2, ror #10
    2044:	e005a301 	and	sl, r5, r1, lsl #6
    2048:	4e000000 	cdpmi	0, 0, cr0, cr0, cr0, {0}
    204c:	37000012 	smladcc	r0, r2, r0, r0
    2050:	006e656c 	rsbeq	r6, lr, ip, ror #10
    2054:	0705a301 	streq	sl, [r5, -r1, lsl #6]
    2058:	6c000004 	stcvs	0, cr0, [r0], {4}
    205c:	1a000012 	bne	20ac <bcm2835_peri_read+0x18>
    2060:	00001009 	andeq	r1, r0, r9
    2064:	5805ab01 	stmdapl	r5, {r0, r8, r9, fp, sp, pc}
    2068:	98000004 	stmdals	r0, {r2}
    206c:	1a000012 	bne	20bc <bcm2835_peri_read+0x28>
    2070:	0000044a 	andeq	r0, r0, sl, asr #8
    2074:	5805ac01 	stmdapl	r5, {r0, sl, fp, sp, pc}
    2078:	b8000004 	stmdalt	r0, {r2}
    207c:	1a000012 	bne	20cc <bcm2835_peri_read_nb+0x8>
    2080:	0000095a 	andeq	r0, r0, sl, asr r9
    2084:	5805ad01 	stmdapl	r5, {r0, r8, sl, fp, sp, pc}
    2088:	f7000004 			; <UNDEFINED> instruction: 0xf7000004
    208c:	17000012 	smladne	r0, r2, r0, r0
    2090:	00000b2b 	andeq	r0, r0, fp, lsr #22
    2094:	5805ae01 	stmdapl	r5, {r0, r9, sl, fp, sp, pc}
    2098:	01000004 	tsteq	r0, r4
    209c:	06481a5a 			; <UNDEFINED> instruction: 0x06481a5a
    20a0:	b0010000 	andlt	r0, r1, r0
    20a4:	00040705 	andeq	r0, r4, r5, lsl #14
    20a8:	00132000 	andseq	r2, r3, r0
    20ac:	00691b00 	rsbeq	r1, r9, r0, lsl #22
    20b0:	0705b101 	streq	fp, [r5, -r1, lsl #2]
    20b4:	63000004 	movwvs	r0, #4
    20b8:	1a000013 	bne	210c <bcm2835_gpio_pud.part.5>
    20bc:	00001099 	muleq	r0, r9, r0
    20c0:	f105b201 			; <UNDEFINED> instruction: 0xf105b201
    20c4:	a1000003 	tstge	r0, r3
    20c8:	25000013 	strcs	r0, [r0, #-19]	; 0xffffffed
    20cc:	000038d0 	ldrdeq	r3, [r0], -r0
    20d0:	00004c7b 	andeq	r4, r0, fp, ror ip
    20d4:	000020eb 	andeq	r2, r0, fp, ror #1
    20d8:	02500122 	subseq	r0, r0, #-2147483640	; 0x80000008
    20dc:	0122007a 			; <UNDEFINED> instruction: 0x0122007a
    20e0:	20080251 	andcs	r0, r8, r1, asr r2
    20e4:	02520122 	subseq	r0, r2, #-2147483640	; 0x80000008
    20e8:	25002008 	strcs	r2, [r0, #-8]
    20ec:	000038da 	ldrdeq	r3, [r0], -sl
    20f0:	00004d18 	andeq	r4, r0, r8, lsl sp
    20f4:	00002106 	andeq	r2, r0, r6, lsl #2
    20f8:	02500122 	subseq	r0, r0, #-2147483640	; 0x80000008
    20fc:	01220077 			; <UNDEFINED> instruction: 0x01220077
    2100:	020a0351 	andeq	r0, sl, #1140850689	; 0x44000001
    2104:	e2250003 	eor	r0, r5, #3
    2108:	18000038 	stmdane	r0, {r3, r4, r5}
    210c:	1f00004d 	svcne	0x0000004d
    2110:	22000021 	andcs	r0, r0, #33	; 0x21
    2114:	75025001 	strvc	r5, [r2, #-1]
    2118:	51012200 	mrspl	r2, R9_usr
    211c:	25003101 	strcs	r3, [r0, #-257]	; 0xfffffeff
    2120:	000038ec 	andeq	r3, r0, ip, ror #17
    2124:	00004d18 	andeq	r4, r0, r8, lsl sp
    2128:	0000213a 	andeq	r2, r0, sl, lsr r1
    212c:	02500122 	subseq	r0, r0, #-2147483640	; 0x80000008
    2130:	0122007a 			; <UNDEFINED> instruction: 0x0122007a
    2134:	000a0351 	andeq	r0, sl, r1, asr r3
    2138:	f4250080 	vld4.32	{d0-d3}, [r5], r0
    213c:	18000038 	stmdane	r0, {r3, r4, r5}
    2140:	4e00004d 	cdpmi	0, 0, cr0, cr0, cr13, {2}
    2144:	22000021 	andcs	r0, r0, #33	; 0x21
    2148:	78025001 	stmdavc	r2, {r0, ip, lr}
    214c:	fe250000 	cdp2	0, 2, cr0, cr5, cr0, {0}
    2150:	18000038 	stmdane	r0, {r3, r4, r5}
    2154:	6900004d 	stmdbvs	r0, {r0, r2, r3, r6}
    2158:	22000021 	andcs	r0, r0, #33	; 0x21
    215c:	7a025001 	bvc	96168 <__bss_end__+0x810fc>
    2160:	51012200 	mrspl	r2, R9_usr
    2164:	80800a03 	addhi	r0, r0, r3, lsl #20
    2168:	39042400 	stmdbcc	r4, {sl, sp}
    216c:	4d570000 	ldclmi	0, cr0, [r7, #-0]
    2170:	0e250000 	cdpeq	0, 2, cr0, cr5, cr0, {0}
    2174:	57000039 	smladxpl	r0, r9, r0, r0
    2178:	8600004d 	strhi	r0, [r0], -sp, asr #32
    217c:	22000021 	andcs	r0, r0, #33	; 0x21
    2180:	77025001 	strvc	r5, [r2, -r1]
    2184:	1e250000 	cdpne	0, 2, cr0, cr5, cr0, {0}
    2188:	18000039 	stmdane	r0, {r0, r3, r4, r5}
    218c:	a000004d 	andge	r0, r0, sp, asr #32
    2190:	22000021 	andcs	r0, r0, #33	; 0x21
    2194:	75025001 	strvc	r5, [r2, #-1]
    2198:	51012200 	mrspl	r2, R9_usr
    219c:	00007402 	andeq	r7, r0, r2, lsl #8
    21a0:	00392a25 	eorseq	r2, r9, r5, lsr #20
    21a4:	004d1800 	subeq	r1, sp, r0, lsl #16
    21a8:	0021bb00 	eoreq	fp, r1, r0, lsl #22
    21ac:	50012200 	andpl	r2, r1, r0, lsl #4
    21b0:	22007a02 	andcs	r7, r0, #8192	; 0x2000
    21b4:	0a035101 	beq	d65c0 <__bss_end__+0xc1554>
    21b8:	24008081 	strcs	r8, [r0], #-129	; 0xffffff7f
    21bc:	0000393a 	andeq	r3, r0, sl, lsr r9
    21c0:	000042a8 	andeq	r4, r0, r8, lsr #5
    21c4:	00394025 	eorseq	r4, r9, r5, lsr #32
    21c8:	004d5700 	subeq	r5, sp, r0, lsl #14
    21cc:	0021d800 	eoreq	sp, r1, r0, lsl #16
    21d0:	50012200 	andpl	r2, r1, r0, lsl #4
    21d4:	00007702 	andeq	r7, r0, r2, lsl #14
    21d8:	00395225 	eorseq	r5, r9, r5, lsr #4
    21dc:	004d5700 	subeq	r5, sp, r0, lsl #14
    21e0:	0021ec00 	eoreq	lr, r1, r0, lsl #24
    21e4:	50012200 	andpl	r2, r1, r0, lsl #4
    21e8:	00007702 	andeq	r7, r0, r2, lsl #14
    21ec:	00395e25 	eorseq	r5, r9, r5, lsr #28
    21f0:	004d5700 	subeq	r5, sp, r0, lsl #14
    21f4:	00220000 	eoreq	r0, r2, r0
    21f8:	50012200 	andpl	r2, r1, r0, lsl #4
    21fc:	00007802 	andeq	r7, r0, r2, lsl #16
    2200:	00397025 	eorseq	r7, r9, r5, lsr #32
    2204:	004d5700 	subeq	r5, sp, r0, lsl #14
    2208:	00221400 	eoreq	r1, r2, r0, lsl #8
    220c:	50012200 	andpl	r2, r1, r0, lsl #4
    2210:	00007702 	andeq	r7, r0, r2, lsl #14
    2214:	00398024 	eorseq	r8, r9, r4, lsr #32
    2218:	004d5700 	subeq	r5, sp, r0, lsl #14
    221c:	398e2500 	stmibcc	lr, {r8, sl, sp}
    2220:	4d570000 	ldclmi	0, cr0, [r7, #-0]
    2224:	22310000 	eorscs	r0, r1, #0
    2228:	01220000 			; <UNDEFINED> instruction: 0x01220000
    222c:	00770250 	rsbseq	r0, r7, r0, asr r2
    2230:	399c2500 	ldmibcc	ip, {r8, sl, sp}
    2234:	4d570000 	ldclmi	0, cr0, [r7, #-0]
    2238:	22450000 	subcs	r0, r5, #0
    223c:	01220000 			; <UNDEFINED> instruction: 0x01220000
    2240:	00770250 	rsbseq	r0, r7, r0, asr r2
    2244:	39ae2500 	stmibcc	lr!, {r8, sl, sp}
    2248:	4c7b0000 	ldclmi	0, cr0, [fp], #-0
    224c:	22630000 	rsbcs	r0, r3, #0
    2250:	01220000 			; <UNDEFINED> instruction: 0x01220000
    2254:	007a0250 	rsbseq	r0, sl, r0, asr r2
    2258:	01510122 	cmpeq	r1, r2, lsr #2
    225c:	52012232 	andpl	r2, r1, #536870915	; 0x20000003
    2260:	21003201 	tstcs	r0, r1, lsl #4
    2264:	000039be 			; <UNDEFINED> instruction: 0x000039be
    2268:	00004d57 	andeq	r4, r0, r7, asr sp
    226c:	02500122 	subseq	r0, r0, #-2147483640	; 0x80000008
    2270:	00000077 	andeq	r0, r0, r7, ror r0
    2274:	000ee419 	andeq	lr, lr, r9, lsl r4
    2278:	05580100 	ldrbeq	r0, [r8, #-256]	; 0xffffff00
    227c:	000003f1 	strdeq	r0, [r0], -r1
    2280:	00003144 	andeq	r3, r0, r4, asr #2
    2284:	00000188 	andeq	r0, r0, r8, lsl #3
    2288:	25069c01 	strcs	r9, [r6, #-3073]	; 0xfffff3ff
    228c:	62370000 	eorsvs	r0, r7, #0
    2290:	01006675 	tsteq	r0, r5, ror r6
    2294:	00e00558 	rsceq	r0, r0, r8, asr r5
    2298:	13cc0000 	bicne	r0, ip, #0
    229c:	6c370000 	ldcvs	0, cr0, [r7], #-0
    22a0:	01006e65 	tsteq	r0, r5, ror #28
    22a4:	04070558 	streq	r0, [r7], #-1368	; 0xfffffaa8
    22a8:	141c0000 	ldrne	r0, [ip], #-0
    22ac:	09170000 	ldmdbeq	r7, {}	; <UNPREDICTABLE>
    22b0:	01000010 	tsteq	r0, r0, lsl r0
    22b4:	04580560 	ldrbeq	r0, [r8], #-1376	; 0xfffffaa0
    22b8:	7b030000 	blvc	c22c0 <__bss_end__+0xad254>
    22bc:	4a1a9f08 	bmi	6a9ee4 <__bss_end__+0x694e78>
    22c0:	01000004 	tsteq	r0, r4
    22c4:	04580561 	ldrbeq	r0, [r8], #-1377	; 0xfffffa9f
    22c8:	14530000 	ldrbne	r0, [r3], #-0
    22cc:	5a170000 	bpl	5c22d4 <__bss_end__+0x5ad268>
    22d0:	01000009 	tsteq	r0, r9
    22d4:	04580562 	ldrbeq	r0, [r8], #-1378	; 0xfffffa9e
    22d8:	57010000 	strpl	r0, [r1, -r0]
    22dc:	000b2b17 	andeq	r2, fp, r7, lsl fp
    22e0:	05630100 	strbeq	r0, [r3, #-256]!	; 0xffffff00
    22e4:	00000458 	andeq	r0, r0, r8, asr r4
    22e8:	481a5b01 	ldmdami	sl, {r0, r8, r9, fp, ip, lr}
    22ec:	01000006 	tsteq	r0, r6
    22f0:	04070566 	streq	r0, [r7], #-1382	; 0xfffffa9a
    22f4:	14a80000 	strtne	r0, [r8], #0
    22f8:	691b0000 	ldmdbvs	fp, {}	; <UNPREDICTABLE>
    22fc:	05670100 	strbeq	r0, [r7, #-256]!	; 0xffffff00
    2300:	00000407 	andeq	r0, r0, r7, lsl #8
    2304:	0000150e 	andeq	r1, r0, lr, lsl #10
    2308:	0010991a 	andseq	r9, r0, sl, lsl r9
    230c:	05680100 	strbeq	r0, [r8, #-256]!	; 0xffffff00
    2310:	000003f1 	strdeq	r0, [r0], -r1
    2314:	00001557 	andeq	r1, r0, r7, asr r5
    2318:	004cf523 	subeq	pc, ip, r3, lsr #10
    231c:	00314e00 	eorseq	r4, r1, r0, lsl #28
    2320:	0003e800 	andeq	lr, r3, r0, lsl #16
    2324:	056d0100 	strbeq	r0, [sp, #-256]!	; 0xffffff00
    2328:	00002356 	andeq	r2, r0, r6, asr r3
    232c:	004d0c20 	subeq	r0, sp, r0, lsr #24
    2330:	00158200 	andseq	r8, r5, r0, lsl #4
    2334:	4d012000 	stcmi	0, cr2, [r1, #-0]
    2338:	15a60000 	strne	r0, [r6, #0]!
    233c:	8a210000 	bhi	842344 <__bss_end__+0x82d2d8>
    2340:	f2000032 	vqadd.s8	d0, d0, d18
    2344:	2200004e 	andcs	r0, r0, #78	; 0x4e
    2348:	77025001 	strvc	r5, [r2, -r1]
    234c:	51012200 	mrspl	r2, R9_usr
    2350:	03020a03 	movweq	r0, #10755	; 0x2a03
    2354:	f5230000 			; <UNDEFINED> instruction: 0xf5230000
    2358:	7c00004c 	stcvc	0, cr0, [r0], {76}	; 0x4c
    235c:	10000031 	andne	r0, r0, r1, lsr r0
    2360:	01000004 	tsteq	r0, r4
    2364:	2393056f 	orrscs	r0, r3, #465567744	; 0x1bc00000
    2368:	0c200000 	stceq	0, cr0, [r0], #-0
    236c:	c400004d 	strgt	r0, [r0], #-77	; 0xffffffb3
    2370:	20000015 	andcs	r0, r0, r5, lsl r0
    2374:	00004d01 	andeq	r4, r0, r1, lsl #26
    2378:	000015e2 	andeq	r1, r0, r2, ror #11
    237c:	00329c21 	eorseq	r9, r2, r1, lsr #24
    2380:	004ef200 	subeq	pc, lr, r0, lsl #4
    2384:	50012200 	andpl	r2, r1, r0, lsl #4
    2388:	22087b02 	andcs	r7, r8, #2048	; 0x800
    238c:	74025101 	strvc	r5, [r2], #-257	; 0xfffffeff
    2390:	23000000 	movwcs	r0, #0
    2394:	00004cf5 	strdeq	r4, [r0], -r5
    2398:	00003180 	andeq	r3, r0, r0, lsl #3
    239c:	00000428 	andeq	r0, r0, r8, lsr #8
    23a0:	d1057101 	tstle	r5, r1, lsl #2
    23a4:	20000023 	andcs	r0, r0, r3, lsr #32
    23a8:	00004d0c 	andeq	r4, r0, ip, lsl #26
    23ac:	00001604 	andeq	r1, r0, r4, lsl #12
    23b0:	004d0120 	subeq	r0, sp, r0, lsr #2
    23b4:	00162800 	andseq	r2, r6, r0, lsl #16
    23b8:	32ae2100 	adccc	r2, lr, #0, 2
    23bc:	4ef20000 	cdpmi	0, 15, cr0, cr2, cr0, {0}
    23c0:	01220000 			; <UNDEFINED> instruction: 0x01220000
    23c4:	007b0250 	rsbseq	r0, fp, r0, asr r2
    23c8:	03510122 	cmpeq	r1, #-2147483640	; 0x80000008
    23cc:	0080810a 	addeq	r8, r0, sl, lsl #2
    23d0:	4d3b2300 	ldcmi	3, cr2, [fp, #-0]
    23d4:	318a0000 	orrcc	r0, sl, r0
    23d8:	04400000 	strbeq	r0, [r0], #-0
    23dc:	7a010000 	bvc	423e4 <__bss_end__+0x2d378>
    23e0:	0023fb05 	eoreq	pc, r3, r5, lsl #22
    23e4:	4d4b3800 	stclmi	8, cr3, [fp, #-0]
    23e8:	ea210000 	b	8423f0 <__bss_end__+0x82d384>
    23ec:	a6000031 			; <UNDEFINED> instruction: 0xa6000031
    23f0:	2200004e 	andcs	r0, r0, #78	; 0x4e
    23f4:	79025001 	stmdbvc	r2, {r0, ip, lr}
    23f8:	23000000 	movwcs	r0, #0
    23fc:	00004d3b 	andeq	r4, r0, fp, lsr sp
    2400:	00003198 	muleq	r0, r8, r1
    2404:	00000470 	andeq	r0, r0, r0, ror r4
    2408:	25057401 	strcs	r7, [r5, #-1025]	; 0xfffffbff
    240c:	38000024 	stmdacc	r0, {r2, r5}
    2410:	00004d4b 	andeq	r4, r0, fp, asr #26
    2414:	0031a021 	eorseq	sl, r1, r1, lsr #32
    2418:	004ea600 	subeq	sl, lr, r0, lsl #12
    241c:	50012200 	andpl	r2, r1, r0, lsl #4
    2420:	00007702 	andeq	r7, r0, r2, lsl #14
    2424:	4d3b2300 	ldcmi	3, cr2, [fp, #-0]
    2428:	31b20000 			; <UNDEFINED> instruction: 0x31b20000
    242c:	04880000 	streq	r0, [r8], #0
    2430:	77010000 	strvc	r0, [r1, -r0]
    2434:	00244f05 	eoreq	r4, r4, r5, lsl #30
    2438:	4d4b3800 	stclmi	8, cr3, [fp, #-0]
    243c:	d8210000 	stmdale	r1!, {}	; <UNPREDICTABLE>
    2440:	a6000031 			; <UNDEFINED> instruction: 0xa6000031
    2444:	2200004e 	andcs	r0, r0, #78	; 0x4e
    2448:	77025001 	strvc	r5, [r2, -r1]
    244c:	23000000 	movwcs	r0, #0
    2450:	00004d3b 	andeq	r4, r0, fp, lsr sp
    2454:	000031f8 	strdeq	r3, [r0], -r8
    2458:	000004a0 	andeq	r0, r0, r0, lsr #9
    245c:	79058101 	stmdbvc	r5, {r0, r8, pc}
    2460:	38000024 	stmdacc	r0, {r2, r5}
    2464:	00004d4b 	andeq	r4, r0, fp, asr #26
    2468:	00322421 	eorseq	r2, r2, r1, lsr #8
    246c:	004ea600 	subeq	sl, lr, r0, lsl #12
    2470:	50012200 	andpl	r2, r1, r0, lsl #4
    2474:	00007702 	andeq	r7, r0, r2, lsl #14
    2478:	4d3b2300 	ldcmi	3, cr2, [fp, #-0]
    247c:	320c0000 	andcc	r0, ip, #0
    2480:	04b80000 	ldrteq	r0, [r8], #0
    2484:	84010000 	strhi	r0, [r1], #-0
    2488:	0024a305 	eoreq	sl, r4, r5, lsl #6
    248c:	4d4b3800 	stclmi	8, cr3, [fp, #-0]
    2490:	36210000 	strtcc	r0, [r1], -r0
    2494:	a6000032 			; <UNDEFINED> instruction: 0xa6000032
    2498:	2200004e 	andcs	r0, r0, #78	; 0x4e
    249c:	79025001 	stmdbvc	r2, {r0, ip, lr}
    24a0:	25000000 	strcs	r0, [r0, #-0]
    24a4:	0000316c 	andeq	r3, r0, ip, ror #2
    24a8:	00004c7b 	andeq	r4, r0, fp, ror ip
    24ac:	000024c3 	andeq	r2, r0, r3, asr #9
    24b0:	02500122 	subseq	r0, r0, #-2147483640	; 0x80000008
    24b4:	0122007b 			; <UNDEFINED> instruction: 0x0122007b
    24b8:	20080251 	andcs	r0, r8, r1, asr r2
    24bc:	02520122 	subseq	r0, r2, #-2147483640	; 0x80000008
    24c0:	25002008 	strcs	r2, [r0, #-8]
    24c4:	00003246 	andeq	r3, r0, r6, asr #4
    24c8:	00004d57 	andeq	r4, r0, r7, asr sp
    24cc:	000024d7 	ldrdeq	r2, [r0], -r7
    24d0:	02500122 	subseq	r0, r0, #-2147483640	; 0x80000008
    24d4:	25000077 	strcs	r0, [r0, #-119]	; 0xffffff89
    24d8:	00003258 	andeq	r3, r0, r8, asr r2
    24dc:	00004c7b 	andeq	r4, r0, fp, ror ip
    24e0:	000024f5 	strdeq	r2, [r0], -r5
    24e4:	02500122 	subseq	r0, r0, #-2147483640	; 0x80000008
    24e8:	01220077 			; <UNDEFINED> instruction: 0x01220077
    24ec:	22320151 	eorscs	r0, r2, #1073741844	; 0x40000014
    24f0:	32015201 	andcc	r5, r1, #268435456	; 0x10000000
    24f4:	326e2100 	rsbcc	r2, lr, #0, 2
    24f8:	4d570000 	ldclmi	0, cr0, [r7, #-0]
    24fc:	01220000 			; <UNDEFINED> instruction: 0x01220000
    2500:	00770250 	rsbseq	r0, r7, r0, asr r2
    2504:	05190000 	ldreq	r0, [r9, #-0]
    2508:	01000001 	tsteq	r0, r1
    250c:	03f10511 	mvnseq	r0, #71303168	; 0x4400000
    2510:	304c0000 	subcc	r0, ip, r0
    2514:	00f80000 	rscseq	r0, r8, r0
    2518:	9c010000 	stcls	0, cr0, [r1], {-0}
    251c:	000026e0 	andeq	r2, r0, r0, ror #13
    2520:	66756237 			; <UNDEFINED> instruction: 0x66756237
    2524:	05110100 	ldreq	r0, [r1, #-256]	; 0xffffff00
    2528:	00000310 	andeq	r0, r0, r0, lsl r3
    252c:	00001646 	andeq	r1, r0, r6, asr #12
    2530:	6e656c37 	mcrvs	12, 3, r6, cr5, cr7, {1}
    2534:	05110100 	ldreq	r0, [r1, #-256]	; 0xffffff00
    2538:	00000407 	andeq	r0, r0, r7, lsl #8
    253c:	00001664 	andeq	r1, r0, r4, ror #12
    2540:	0010091a 	andseq	r0, r0, sl, lsl r9
    2544:	05190100 	ldreq	r0, [r9, #-256]	; 0xffffff00
    2548:	00000458 	andeq	r0, r0, r8, asr r4
    254c:	00001690 	muleq	r0, r0, r6
    2550:	00044a1a 	andeq	r4, r4, sl, lsl sl
    2554:	051a0100 	ldreq	r0, [sl, #-256]	; 0xffffff00
    2558:	00000458 	andeq	r0, r0, r8, asr r4
    255c:	000016bd 			; <UNDEFINED> instruction: 0x000016bd
    2560:	00095a17 	andeq	r5, r9, r7, lsl sl
    2564:	051b0100 	ldreq	r0, [fp, #-256]	; 0xffffff00
    2568:	00000458 	andeq	r0, r0, r8, asr r4
    256c:	2b175701 	blcs	5d8178 <__bss_end__+0x5c310c>
    2570:	0100000b 	tsteq	r0, fp
    2574:	0458051c 	ldrbeq	r0, [r8], #-1308	; 0xfffffae4
    2578:	59010000 	stmdbpl	r1, {}	; <UNPREDICTABLE>
    257c:	0006481a 	andeq	r4, r6, sl, lsl r8
    2580:	051f0100 	ldreq	r0, [pc, #-256]	; 2488 <bcm2835_gpio_clr_afen+0x8>
    2584:	00000407 	andeq	r0, r0, r7, lsl #8
    2588:	000016e6 	andeq	r1, r0, r6, ror #13
    258c:	0100691b 	tsteq	r0, fp, lsl r9
    2590:	04070520 	streq	r0, [r7], #-1312	; 0xfffffae0
    2594:	17340000 	ldrne	r0, [r4, -r0]!
    2598:	991a0000 	ldmdbls	sl, {}	; <UNPREDICTABLE>
    259c:	01000010 	tsteq	r0, r0, lsl r0
    25a0:	03f10521 	mvnseq	r0, #138412032	; 0x8400000
    25a4:	17760000 	ldrbne	r0, [r6, -r0]!
    25a8:	f5230000 			; <UNDEFINED> instruction: 0xf5230000
    25ac:	8600004c 	strhi	r0, [r0], -ip, asr #32
    25b0:	c0000030 	andgt	r0, r0, r0, lsr r0
    25b4:	01000003 	tsteq	r0, r3
    25b8:	25dd052c 	ldrbcs	r0, [sp, #1324]	; 0x52c
    25bc:	0c200000 	stceq	0, cr0, [r0], #-0
    25c0:	a100004d 	tstge	r0, sp, asr #32
    25c4:	38000017 	stmdacc	r0, {r0, r1, r2, r4}
    25c8:	00004d01 	andeq	r4, r0, r1, lsl #26
    25cc:	0030c221 	eorseq	ip, r0, r1, lsr #4
    25d0:	004ef200 	subeq	pc, lr, r0, lsl #4
    25d4:	50012200 	andpl	r2, r1, r0, lsl #4
    25d8:	00007802 	andeq	r7, r0, r2, lsl #16
    25dc:	30702500 	rsbscc	r2, r0, r0, lsl #10
    25e0:	4c7b0000 	ldclmi	0, cr0, [fp], #-0
    25e4:	25fd0000 	ldrbcs	r0, [sp, #0]!
    25e8:	01220000 			; <UNDEFINED> instruction: 0x01220000
    25ec:	00790250 	rsbseq	r0, r9, r0, asr r2
    25f0:	02510122 	subseq	r0, r1, #-2147483640	; 0x80000008
    25f4:	01222008 			; <UNDEFINED> instruction: 0x01222008
    25f8:	20080252 	andcs	r0, r8, r2, asr r2
    25fc:	307a2500 	rsbscc	r2, sl, r0, lsl #10
    2600:	4d180000 	ldcmi	0, cr0, [r8, #-0]
    2604:	26180000 	ldrcs	r0, [r8], -r0
    2608:	01220000 			; <UNDEFINED> instruction: 0x01220000
    260c:	00770250 	rsbseq	r0, r7, r0, asr r2
    2610:	03510122 	cmpeq	r1, #-2147483640	; 0x80000008
    2614:	0003020a 	andeq	r0, r3, sl, lsl #4
    2618:	00308425 	eorseq	r8, r0, r5, lsr #8
    261c:	004d1800 	subeq	r1, sp, r0, lsl #16
    2620:	00263200 	eoreq	r3, r6, r0, lsl #4
    2624:	50012200 	andpl	r2, r1, r0, lsl #4
    2628:	22087902 	andcs	r7, r8, #32768	; 0x8000
    262c:	74025101 	strvc	r5, [r2], #-257	; 0xfffffeff
    2630:	ce250000 	cdpgt	0, 2, cr0, cr5, cr0, {0}
    2634:	18000030 	stmdane	r0, {r4, r5}
    2638:	4d00004d 	stcmi	0, cr0, [r0, #-308]	; 0xfffffecc
    263c:	22000026 	andcs	r0, r0, #38	; 0x26
    2640:	79025001 	stmdbvc	r2, {r0, ip, lr}
    2644:	51012200 	mrspl	r2, R9_usr
    2648:	80800a03 	addhi	r0, r0, r3, lsl #20
    264c:	30d42500 	sbcscc	r2, r4, r0, lsl #10
    2650:	4d570000 	ldclmi	0, cr0, [r7, #-0]
    2654:	26610000 	strbtcs	r0, [r1], -r0
    2658:	01220000 			; <UNDEFINED> instruction: 0x01220000
    265c:	00770250 	rsbseq	r0, r7, r0, asr r2
    2660:	30e62500 	rsccc	r2, r6, r0, lsl #10
    2664:	4d570000 	ldclmi	0, cr0, [r7, #-0]
    2668:	26750000 	ldrbtcs	r0, [r5], -r0
    266c:	01220000 			; <UNDEFINED> instruction: 0x01220000
    2670:	00770250 	rsbseq	r0, r7, r0, asr r2
    2674:	30f82500 	rscscc	r2, r8, r0, lsl #10
    2678:	4d180000 	ldcmi	0, cr0, [r8, #-0]
    267c:	26890000 	strcs	r0, [r9], r0
    2680:	01220000 			; <UNDEFINED> instruction: 0x01220000
    2684:	00780250 	rsbseq	r0, r8, r0, asr r2
    2688:	31022500 	tstcc	r2, r0, lsl #10
    268c:	4d570000 	ldclmi	0, cr0, [r7, #-0]
    2690:	269d0000 	ldrcs	r0, [sp], r0
    2694:	01220000 			; <UNDEFINED> instruction: 0x01220000
    2698:	00770250 	rsbseq	r0, r7, r0, asr r2
    269c:	310c2500 	tstcc	ip, r0, lsl #10
    26a0:	4d570000 	ldclmi	0, cr0, [r7, #-0]
    26a4:	26b10000 	ldrtcs	r0, [r1], r0
    26a8:	01220000 			; <UNDEFINED> instruction: 0x01220000
    26ac:	00770250 	rsbseq	r0, r7, r0, asr r2
    26b0:	311e2500 	tstcc	lr, r0, lsl #10
    26b4:	4c7b0000 	ldclmi	0, cr0, [fp], #-0
    26b8:	26cf0000 	strbcs	r0, [pc], r0
    26bc:	01220000 			; <UNDEFINED> instruction: 0x01220000
    26c0:	00790250 	rsbseq	r0, r9, r0, asr r2
    26c4:	01510122 	cmpeq	r1, r2, lsr #2
    26c8:	52012232 	andpl	r2, r1, #536870915	; 0x20000003
    26cc:	21003201 	tstcs	r0, r1, lsl #4
    26d0:	0000312a 	andeq	r3, r0, sl, lsr #2
    26d4:	00004d57 	andeq	r4, r0, r7, asr sp
    26d8:	02500122 	subseq	r0, r0, #-2147483640	; 0x80000008
    26dc:	00000077 	andeq	r0, r0, r7, ror r0
    26e0:	0014a639 	andseq	sl, r4, r9, lsr r6
    26e4:	05080100 	streq	r0, [r8, #-256]	; 0xffffff00
    26e8:	0000302c 	andeq	r3, r0, ip, lsr #32
    26ec:	0000001e 	andeq	r0, r0, lr, lsl r0
    26f0:	27209c01 	strcs	r9, [r0, -r1, lsl #24]!
    26f4:	b62b0000 	strtlt	r0, [fp], -r0
    26f8:	01000014 	tsteq	r0, r4, lsl r0
    26fc:	04070508 	streq	r0, [r7], #-1288	; 0xfffffaf8
    2700:	17bf0000 	ldrne	r0, [pc, r0]!
    2704:	e81a0000 	ldmda	sl, {}	; <UNPREDICTABLE>
    2708:	01000006 	tsteq	r0, r6
    270c:	0407050a 	streq	r0, [r7], #-1290	; 0xfffffaf6
    2710:	17eb0000 	strbne	r0, [fp, r0]!
    2714:	4a2d0000 	bmi	b4271c <__bss_end__+0xb2d6b0>
    2718:	20000030 	andcs	r0, r0, r0, lsr r0
    271c:	00000027 	andeq	r0, r0, r7, lsr #32
    2720:	0007dd2c 	andeq	sp, r7, ip, lsr #26
    2724:	04f80100 	ldrbteq	r0, [r8], #256	; 0x100
    2728:	00002fd4 	ldrdeq	r2, [r0], -r4
    272c:	00000058 	andeq	r0, r0, r8, asr r0
    2730:	27689c01 	strbcs	r9, [r8, -r1, lsl #24]!
    2734:	e82b0000 	stmda	fp!, {}	; <UNPREDICTABLE>
    2738:	01000006 	tsteq	r0, r6
    273c:	03fc04f8 	mvnseq	r0, #248, 8	; 0xf8000000
    2740:	184b0000 	stmdane	fp, {}^	; <UNPREDICTABLE>
    2744:	e51a0000 	ldr	r0, [sl, #-0]
    2748:	0100000f 	tsteq	r0, pc
    274c:	045804fd 	ldrbeq	r0, [r8], #-1277	; 0xfffffb03
    2750:	186c0000 	stmdane	ip!, {}^	; <UNPREDICTABLE>
    2754:	e8210000 	stmda	r1!, {}	; <UNPREDICTABLE>
    2758:	1800002f 	stmdane	r0, {r0, r1, r2, r3, r5}
    275c:	2200004d 	andcs	r0, r0, #77	; 0x4d
    2760:	91035101 	tstls	r3, r1, lsl #2
    2764:	00000674 	andeq	r0, r0, r4, ror r6
    2768:	0007452c 	andeq	r4, r7, ip, lsr #10
    276c:	04e90100 	strbteq	r0, [r9], #256	; 0x100
    2770:	00002fc0 	andeq	r2, r0, r0, asr #31
    2774:	00000014 	andeq	r0, r0, r4, lsl r0
    2778:	27a89c01 	strcs	r9, [r8, r1, lsl #24]!
    277c:	652b0000 	strvs	r0, [fp, #-0]!
    2780:	01000012 	tsteq	r0, r2, lsl r0
    2784:	03f104e9 	mvnseq	r0, #-385875968	; 0xe9000000
    2788:	18920000 	ldmne	r2, {}	; <UNPREDICTABLE>
    278c:	e51a0000 	ldr	r0, [sl, #-0]
    2790:	0100000f 	tsteq	r0, pc
    2794:	045804ef 	ldrbeq	r0, [r8], #-1263	; 0xfffffb11
    2798:	18b30000 	ldmne	r3!, {}	; <UNPREDICTABLE>
    279c:	ce2d0000 	cdpgt	0, 2, cr0, cr13, cr0, {0}
    27a0:	1800002f 	stmdane	r0, {r0, r1, r2, r3, r5}
    27a4:	0000004d 	andeq	r0, r0, sp, asr #32
    27a8:	000c8f2c 	andeq	r8, ip, ip, lsr #30
    27ac:	04dc0100 	ldrbeq	r0, [ip], #256	; 0x100
    27b0:	00002f98 	muleq	r0, r8, pc	; <UNPREDICTABLE>
    27b4:	00000028 	andeq	r0, r0, r8, lsr #32
    27b8:	28679c01 	stmdacs	r7!, {r0, sl, fp, ip, pc}^
    27bc:	251f0000 	ldrcs	r0, [pc, #-0]	; 27c4 <bcm2835_spi_transfer+0x94>
    27c0:	9a00004c 	bls	28f8 <bcm2835_spi_transfernb+0x114>
    27c4:	1000002f 	andne	r0, r0, pc, lsr #32
    27c8:	01000000 	mrseq	r0, (UNDEF: 0)
    27cc:	281904e4 	ldmdacs	r9, {r2, r5, r6, r7, sl}
    27d0:	3e200000 	cdpcc	0, 2, cr0, cr0, cr0, {0}
    27d4:	d900004c 	stmdble	r0, {r2, r3, r6}
    27d8:	20000018 	andcs	r0, r0, r8, lsl r0
    27dc:	00004c32 	andeq	r4, r0, r2, lsr ip
    27e0:	000018ed 	andeq	r1, r0, sp, ror #17
    27e4:	002f9a34 	eoreq	r9, pc, r4, lsr sl	; <UNPREDICTABLE>
    27e8:	00001000 	andeq	r1, r0, r0
    27ec:	524f3000 	subpl	r3, pc, #0
    27f0:	58300000 	ldmdapl	r0!, {}	; <UNPREDICTABLE>
    27f4:	30000052 	andcc	r0, r0, r2, asr r0
    27f8:	00005261 	andeq	r5, r0, r1, ror #4
    27fc:	00526a30 	subseq	r6, r2, r0, lsr sl
    2800:	2faa2100 	svccs	0x00aa2100
    2804:	4c7b0000 	ldclmi	0, cr0, [fp], #-0
    2808:	01220000 			; <UNDEFINED> instruction: 0x01220000
    280c:	22300151 	eorscs	r0, r0, #1073741844	; 0x40000014
    2810:	0a035201 	beq	d701c <__bss_end__+0xc1fb0>
    2814:	000001c0 	andeq	r0, r0, r0, asr #3
    2818:	4c252e00 	stcmi	14, cr2, [r5], #-0
    281c:	2faa0000 	svccs	0x00aa0000
    2820:	03a80000 			; <UNDEFINED> instruction: 0x03a80000
    2824:	e5010000 	str	r0, [r1, #-0]
    2828:	4c3e3504 	cfldr32mi	mvfx3, [lr], #-16
    282c:	35000000 	strcc	r0, [r0, #-0]
    2830:	00004c32 	andeq	r4, r0, r2, lsr ip
    2834:	03a82f03 			; <UNDEFINED> instruction: 0x03a82f03
    2838:	4f300000 	svcmi	0x00300000
    283c:	30000052 	andcc	r0, r0, r2, asr r0
    2840:	00005258 	andeq	r5, r0, r8, asr r2
    2844:	00526130 	subseq	r6, r2, r0, lsr r1
    2848:	526a3000 	rsbpl	r3, sl, #0
    284c:	ba360000 	blt	d82854 <__bss_end__+0xd6d7e8>
    2850:	7b00002f 	blvc	2914 <bcm2835_spi_transfernb+0x130>
    2854:	2200004c 	andcs	r0, r0, #76	; 0x4c
    2858:	30015101 	andcc	r5, r1, r1, lsl #2
    285c:	03520122 	cmpeq	r2, #-2147483640	; 0x80000008
    2860:	000e000a 	andeq	r0, lr, sl
    2864:	19000000 	stmdbne	r0, {}	; <UNPREDICTABLE>
    2868:	00000608 	andeq	r0, r0, r8, lsl #12
    286c:	4504bd01 	strmi	fp, [r4, #-3329]	; 0xfffff2ff
    2870:	18000000 	stmdane	r0, {}	; <UNPREDICTABLE>
    2874:	8000002f 	andhi	r0, r0, pc, lsr #32
    2878:	01000000 	mrseq	r0, (UNDEF: 0)
    287c:	00296c9c 	mlaeq	r9, ip, ip, r6
    2880:	10941a00 	addsne	r1, r4, r0, lsl #20
    2884:	bf010000 	svclt	0x00010000
    2888:	0003fc04 	andeq	pc, r3, r4, lsl #24
    288c:	00190100 	andseq	r0, r9, r0, lsl #2
    2890:	0fe51a00 	svceq	0x00e51a00
    2894:	cb010000 	blgt	4289c <__bss_end__+0x2d830>
    2898:	00045804 	andeq	r5, r4, r4, lsl #16
    289c:	00192000 	andseq	r2, r9, r0
    28a0:	4c251f00 	stcmi	15, cr1, [r5], #-0
    28a4:	2f2a0000 	svccs	0x002a0000
    28a8:	000e0000 	andeq	r0, lr, r0
    28ac:	cd010000 	stcgt	0, cr0, [r1, #-0]
    28b0:	0028fe04 	eoreq	pc, r8, r4, lsl #28
    28b4:	4c3e2000 	ldcmi	0, cr2, [lr], #-0
    28b8:	194d0000 	stmdbne	sp, {}^	; <UNPREDICTABLE>
    28bc:	32200000 	eorcc	r0, r0, #0
    28c0:	6100004c 	tstvs	r0, ip, asr #32
    28c4:	34000019 	strcc	r0, [r0], #-25	; 0xffffffe7
    28c8:	00002f2a 	andeq	r2, r0, sl, lsr #30
    28cc:	0000000e 	andeq	r0, r0, lr
    28d0:	00524f30 	subseq	r4, r2, r0, lsr pc
    28d4:	52583000 	subspl	r3, r8, #0
    28d8:	61300000 	teqvs	r0, r0
    28dc:	30000052 	andcc	r0, r0, r2, asr r0
    28e0:	0000526a 	andeq	r5, r0, sl, ror #4
    28e4:	002f3821 	eoreq	r3, pc, r1, lsr #16
    28e8:	004c7b00 	subeq	r7, ip, r0, lsl #22
    28ec:	51012200 	mrspl	r2, R9_usr
    28f0:	01000a03 	tsteq	r0, r3, lsl #20
    28f4:	03520122 	cmpeq	r2, #-2147483640	; 0x80000008
    28f8:	0001c00a 	andeq	ip, r1, sl
    28fc:	251f0000 	ldrcs	r0, [pc, #-0]	; 2904 <bcm2835_spi_transfernb+0x120>
    2900:	3800004c 	stmdacc	r0, {r2, r3, r6}
    2904:	0e00002f 	cdpeq	0, 0, cr0, cr0, cr15, {1}
    2908:	01000000 	mrseq	r0, (UNDEF: 0)
    290c:	295b04ce 	ldmdbcs	fp, {r1, r2, r3, r6, r7, sl}^
    2910:	3e200000 	cdpcc	0, 2, cr0, cr0, cr0, {0}
    2914:	7500004c 	strvc	r0, [r0, #-76]	; 0xffffffb4
    2918:	20000019 	andcs	r0, r0, r9, lsl r0
    291c:	00004c32 	andeq	r4, r0, r2, lsr ip
    2920:	00001989 	andeq	r1, r0, r9, lsl #19
    2924:	002f3834 	eoreq	r3, pc, r4, lsr r8	; <UNPREDICTABLE>
    2928:	00000e00 	andeq	r0, r0, r0, lsl #28
    292c:	524f3000 	subpl	r3, pc, #0
    2930:	58300000 	ldmdapl	r0!, {}	; <UNPREDICTABLE>
    2934:	30000052 	andcc	r0, r0, r2, asr r0
    2938:	00005261 	andeq	r5, r0, r1, ror #4
    293c:	00526a30 	subseq	r6, r2, r0, lsr sl
    2940:	2f462100 	svccs	0x00462100
    2944:	4c7b0000 	ldclmi	0, cr0, [fp], #-0
    2948:	01220000 			; <UNDEFINED> instruction: 0x01220000
    294c:	000a0351 	andeq	r0, sl, r1, asr r3
    2950:	52012208 	andpl	r2, r1, #8, 4	; 0x80000000
    2954:	0e000a03 	vmlaeq.f32	s0, s0, s6
    2958:	21000000 	mrscs	r0, (UNDEF: 0)
    295c:	00002f4e 	andeq	r2, r0, lr, asr #30
    2960:	00004d57 	andeq	r4, r0, r7, asr sp
    2964:	02500122 	subseq	r0, r0, #-2147483640	; 0x80000008
    2968:	00001475 	andeq	r1, r0, r5, ror r4
    296c:	0009de19 	andeq	sp, r9, r9, lsl lr
    2970:	049b0100 	ldreq	r0, [fp], #256	; 0x100
    2974:	000003f1 	strdeq	r0, [r0], -r1
    2978:	00002e7c 	andeq	r2, r0, ip, ror lr
    297c:	0000009c 	muleq	r0, ip, r0
    2980:	2b199c01 	blcs	66998c <__bss_end__+0x654920>
    2984:	ef2b0000 	svc	0x002b0000
    2988:	01000005 	tsteq	r0, r5
    298c:	03f1049b 	mvnseq	r0, #-1694498816	; 0x9b000000
    2990:	199d0000 	ldmibne	sp, {}	; <UNPREDICTABLE>
    2994:	b81a0000 	ldmdalt	sl, {}	; <UNPREDICTABLE>
    2998:	01000000 	mrseq	r0, (UNDEF: 0)
    299c:	0458049d 	ldrbeq	r0, [r8], #-1181	; 0xfffffb63
    29a0:	19be0000 	ldmibne	lr!, {}	; <UNPREDICTABLE>
    29a4:	bf1a0000 	svclt	0x001a0000
    29a8:	01000000 	mrseq	r0, (UNDEF: 0)
    29ac:	0458049e 	ldrbeq	r0, [r8], #-1182	; 0xfffffb62
    29b0:	19eb0000 	stmibne	fp!, {}^	; <UNPREDICTABLE>
    29b4:	181a0000 	ldmdane	sl, {}	; <UNPREDICTABLE>
    29b8:	01000002 	tsteq	r0, r2
    29bc:	0458049f 	ldrbeq	r0, [r8], #-1183	; 0xfffffb61
    29c0:	1a320000 	bne	c829c8 <__bss_end__+0xc6d95c>
    29c4:	691b0000 	ldmdbvs	fp, {}	; <UNPREDICTABLE>
    29c8:	a001006f 	andge	r0, r1, pc, rrx
    29cc:	00045804 	andeq	r5, r4, r4, lsl #16
    29d0:	001a4500 	andseq	r4, sl, r0, lsl #10
    29d4:	04451a00 	strbeq	r1, [r5], #-2560	; 0xfffff600
    29d8:	a2010000 	andge	r0, r1, #0
    29dc:	00040704 	andeq	r0, r4, r4, lsl #14
    29e0:	001a6500 	andseq	r6, sl, r0, lsl #10
    29e4:	00b71a00 	adcseq	r1, r7, r0, lsl #20
    29e8:	a4010000 	strge	r0, [r1], #-0
    29ec:	00040704 	andeq	r0, r4, r4, lsl #14
    29f0:	001a7d00 	andseq	r7, sl, r0, lsl #26
    29f4:	00be3a00 	adcseq	r3, lr, r0, lsl #20
    29f8:	ab010000 	blge	42a00 <__bss_end__+0x2d994>
    29fc:	00040704 	andeq	r0, r4, r4, lsl #14
    2a00:	dd230200 	sfmle	f0, 4, [r3, #-0]
    2a04:	a400004d 	strge	r0, [r0], #-77	; 0xffffffb3
    2a08:	7800002e 	stmdavc	r0, {r1, r2, r3, r5}
    2a0c:	01000003 	tsteq	r0, r3
    2a10:	2a2004b0 	bcs	803cd8 <__bss_end__+0x7eec6c>
    2a14:	ed200000 	stc	0, cr0, [r0, #-0]
    2a18:	9800004d 	stmdals	r0, {r0, r2, r3, r6}
    2a1c:	0000001a 	andeq	r0, r0, sl, lsl r0
    2a20:	004ddd23 	subeq	sp, sp, r3, lsr #26
    2a24:	002ece00 	eoreq	ip, lr, r0, lsl #28
    2a28:	00039000 	andeq	r9, r3, r0
    2a2c:	04b50100 	ldrteq	r0, [r5], #256	; 0x100
    2a30:	00002a3e 	andeq	r2, r0, lr, lsr sl
    2a34:	004ded20 	subeq	lr, sp, r0, lsr #26
    2a38:	001aab00 	andseq	sl, sl, r0, lsl #22
    2a3c:	021f0000 	andseq	r0, pc, #0
    2a40:	e2000040 	and	r0, r0, #64	; 0x40
    2a44:	1800002e 	stmdane	r0, {r1, r2, r3, r5}
    2a48:	01000000 	mrseq	r0, (UNDEF: 0)
    2a4c:	2a9f04b7 	bcs	fe7c3d30 <__bss_end__+0xfe7aecc4>
    2a50:	e2340000 	eors	r0, r4, #0
    2a54:	1800002e 	stmdane	r0, {r1, r2, r3, r5}
    2a58:	3b000000 	blcc	2a60 <bcm2835_spi_write+0x18>
    2a5c:	0000400f 	andeq	r4, r0, pc
    2a60:	00001abe 			; <UNDEFINED> instruction: 0x00001abe
    2a64:	00401b3b 	subeq	r1, r0, fp, lsr fp
    2a68:	001ad100 	andseq	sp, sl, r0, lsl #2
    2a6c:	2ef02500 	cdpcs	5, 15, cr2, cr0, cr0, {0}
    2a70:	4d180000 	ldcmi	0, cr0, [r8, #-0]
    2a74:	2a860000 	bcs	fe182a7c <__bss_end__+0xfe16da10>
    2a78:	01220000 			; <UNDEFINED> instruction: 0x01220000
    2a7c:	04750250 	ldrbteq	r0, [r5], #-592	; 0xfffffdb0
    2a80:	01510122 	cmpeq	r1, r2, lsr #2
    2a84:	fa210030 	blx	842b4c <__bss_end__+0x82dae0>
    2a88:	1800002e 	stmdane	r0, {r1, r2, r3, r5}
    2a8c:	2200004d 	andcs	r0, r0, #77	; 0x4d
    2a90:	75025001 	strvc	r5, [r2, #-1]
    2a94:	51012200 	mrspl	r2, R9_usr
    2a98:	02000a03 	andeq	r0, r0, #12288	; 0x3000
    2a9c:	25000000 	strcs	r0, [r0, #-0]
    2aa0:	00002e96 	muleq	r0, r6, lr
    2aa4:	00004d18 	andeq	r4, r0, r8, lsl sp
    2aa8:	00002ab8 			; <UNDEFINED> instruction: 0x00002ab8
    2aac:	02500122 	subseq	r0, r0, #-2147483640	; 0x80000008
    2ab0:	01220474 			; <UNDEFINED> instruction: 0x01220474
    2ab4:	00320151 	eorseq	r0, r2, r1, asr r1
    2ab8:	002ea425 	eoreq	sl, lr, r5, lsr #8
    2abc:	004d1800 	subeq	r1, sp, r0, lsl #16
    2ac0:	002ad800 	eoreq	sp, sl, r0, lsl #16
    2ac4:	50012200 	andpl	r2, r1, r0, lsl #4
    2ac8:	22007402 	andcs	r7, r0, #33554432	; 0x2000000
    2acc:	76085101 	strvc	r5, [r8], -r1, lsl #2
    2ad0:	0c480c00 	mcrreq	12, 0, r0, r8, cr0
    2ad4:	00210006 	eoreq	r0, r1, r6
    2ad8:	002ebe25 	eoreq	fp, lr, r5, lsr #28
    2adc:	004d1800 	subeq	r1, sp, r0, lsl #16
    2ae0:	002af400 	eoreq	pc, sl, r0, lsl #8
    2ae4:	50012200 	andpl	r2, r1, r0, lsl #4
    2ae8:	22007402 	andcs	r7, r0, #33554432	; 0x2000000
    2aec:	77045101 	strvc	r5, [r4, -r1, lsl #2]
    2af0:	00244800 	eoreq	r4, r4, r0, lsl #16
    2af4:	002ec425 	eoreq	ip, lr, r5, lsr #8
    2af8:	004d5700 	subeq	r5, sp, r0, lsl #14
    2afc:	002b0800 	eoreq	r0, fp, r0, lsl #16
    2b00:	50012200 	andpl	r2, r1, r0, lsl #4
    2b04:	00007502 	andeq	r7, r0, r2, lsl #10
    2b08:	002ece21 	eoreq	ip, lr, r1, lsr #28
    2b0c:	004d5700 	subeq	r5, sp, r0, lsl #14
    2b10:	50012200 	andpl	r2, r1, r0, lsl #4
    2b14:	00007402 	andeq	r7, r0, r2, lsl #8
    2b18:	05542c00 	ldrbeq	r2, [r4, #-3072]	; 0xfffff400
    2b1c:	96010000 	strls	r0, [r1], -r0
    2b20:	002e7404 	eoreq	r7, lr, r4, lsl #8
    2b24:	00000800 	andeq	r0, r0, r0, lsl #16
    2b28:	6f9c0100 	svcvs	0x009c0100
    2b2c:	3700002b 	strcc	r0, [r0, -fp, lsr #32]
    2b30:	00667562 	rsbeq	r7, r6, r2, ror #10
    2b34:	e0049601 	and	r9, r4, r1, lsl #12
    2b38:	fe000000 	cdp2	0, 0, cr0, cr0, cr0, {0}
    2b3c:	3700001a 	smladcc	r0, sl, r0, r0
    2b40:	006e656c 	rsbeq	r6, lr, ip, ror #10
    2b44:	07049601 	streq	r9, [r4, -r1, lsl #12]
    2b48:	1f000004 	svcne	0x00000004
    2b4c:	3600001b 			; <UNDEFINED> instruction: 0x3600001b
    2b50:	00002e7c 	andeq	r2, r0, ip, ror lr
    2b54:	00002b6f 	andeq	r2, r0, pc, ror #22
    2b58:	03500122 	cmpeq	r0, #-2147483640	; 0x80000008
    2b5c:	225001f3 	subscs	r0, r0, #-1073741764	; 0xc000003c
    2b60:	f3035101 	vrhadd.u8	d5, d3, d1
    2b64:	01225001 			; <UNDEFINED> instruction: 0x01225001
    2b68:	01f30352 	mvnseq	r0, r2, asr r3
    2b6c:	2c000051 	stccs	0, cr0, [r0], {81}	; 0x51
    2b70:	00000dd5 	ldrdeq	r0, [r0], -r5
    2b74:	e0043901 	and	r3, r4, r1, lsl #18
    2b78:	9400002c 	strls	r0, [r0], #-44	; 0xffffffd4
    2b7c:	01000001 	tsteq	r0, r1
    2b80:	002d759c 	mlaeq	sp, ip, r5, r7
    2b84:	117c2b00 	cmnne	ip, r0, lsl #22
    2b88:	39010000 	stmdbcc	r1, {}	; <UNPREDICTABLE>
    2b8c:	00031004 	andeq	r1, r3, r4
    2b90:	001b4b00 	andseq	r4, fp, r0, lsl #22
    2b94:	0ceb2b00 	vstmiaeq	fp!, {d18-d17}
    2b98:	39010000 	stmdbcc	r1, {}	; <UNPREDICTABLE>
    2b9c:	0000e004 	andeq	lr, r0, r4
    2ba0:	001b7700 	andseq	r7, fp, r0, lsl #14
    2ba4:	656c3700 	strbvs	r3, [ip, #-1792]!	; 0xfffff900
    2ba8:	3901006e 	stmdbcc	r1, {r1, r2, r3, r5, r6}
    2bac:	00040704 	andeq	r0, r4, r4, lsl #14
    2bb0:	001bc100 	andseq	ip, fp, r0, lsl #2
    2bb4:	00b81a00 	adcseq	r1, r8, r0, lsl #20
    2bb8:	3a010000 	bcc	42bc0 <__bss_end__+0x2db54>
    2bbc:	00045804 	andeq	r5, r4, r4, lsl #16
    2bc0:	001bed00 	andseq	lr, fp, r0, lsl #26
    2bc4:	00bf1a00 	adcseq	r1, pc, r0, lsl #20
    2bc8:	3b010000 	blcc	42bd0 <__bss_end__+0x2db64>
    2bcc:	00045804 	andeq	r5, r4, r4, lsl #16
    2bd0:	001c8200 	andseq	r8, ip, r0, lsl #4
    2bd4:	02181700 	andseq	r1, r8, #0, 14
    2bd8:	3c010000 	stccc	0, cr0, [r1], {-0}
    2bdc:	00045804 	andeq	r5, r4, r4, lsl #16
    2be0:	1a580100 	bne	1602fe8 <__bss_end__+0x15edf7c>
    2be4:	00000db9 			; <UNDEFINED> instruction: 0x00000db9
    2be8:	58043d01 	stmdapl	r4, {r0, r8, sl, fp, ip, sp}
    2bec:	17000004 	strne	r0, [r0, -r4]
    2bf0:	1b00001d 	blne	2c6c <bcm2835_aux_spi_writenb+0x38>
    2bf4:	01006f69 	tsteq	r0, r9, ror #30
    2bf8:	0458043e 	ldrbeq	r0, [r8], #-1086	; 0xfffffbc2
    2bfc:	1d360000 	ldcne	0, cr0, [r6, #-0]
    2c00:	741b0000 	ldrvc	r0, [fp], #-0
    2c04:	40010078 	andmi	r0, r1, r8, ror r0
    2c08:	0000e004 	andeq	lr, r0, r4
    2c0c:	001da100 	andseq	sl, sp, r0, lsl #2
    2c10:	78721b00 	ldmdavc	r2!, {r8, r9, fp, ip}^
    2c14:	04410100 	strbeq	r0, [r1], #-256	; 0xffffff00
    2c18:	000000e0 	andeq	r0, r0, r0, ror #1
    2c1c:	00001e04 	andeq	r1, r0, r4, lsl #28
    2c20:	00063b1a 	andeq	r3, r6, sl, lsl fp
    2c24:	04420100 	strbeq	r0, [r2], #-256	; 0xffffff00
    2c28:	00000407 	andeq	r0, r0, r7, lsl #8
    2c2c:	00001e98 	muleq	r0, r8, lr
    2c30:	000a9417 	andeq	r9, sl, r7, lsl r4
    2c34:	04430100 	strbeq	r0, [r3], #-256	; 0xffffff00
    2c38:	00000407 	andeq	r0, r0, r7, lsl #8
    2c3c:	ab1a5501 	blge	698048 <__bss_end__+0x682fdc>
    2c40:	0100000b 	tsteq	r0, fp
    2c44:	04070444 	streq	r0, [r7], #-1092	; 0xfffffbbc
    2c48:	1ed80000 	cdpne	0, 13, cr0, cr8, cr0, {0}
    2c4c:	451a0000 	ldrmi	r0, [sl, #-0]
    2c50:	01000004 	tsteq	r0, r4
    2c54:	04070445 	streq	r0, [r7], #-1093	; 0xfffffbbb
    2c58:	1f0c0000 	svcne	0x000c0000
    2c5c:	691b0000 	ldmdbvs	fp, {}	; <UNPREDICTABLE>
    2c60:	04460100 	strbeq	r0, [r6], #-256	; 0xffffff00
    2c64:	00000407 	andeq	r0, r0, r7, lsl #8
    2c68:	00001f57 	andeq	r1, r0, r7, asr pc
    2c6c:	00129232 	andseq	r9, r2, r2, lsr r2
    2c70:	04470100 	strbeq	r0, [r7], #-256	; 0xffffff00
    2c74:	000003f1 	strdeq	r0, [r0], -r1
    2c78:	0000b732 	andeq	fp, r0, r2, lsr r7
    2c7c:	04490100 	strbeq	r0, [r9], #-256	; 0xffffff00
    2c80:	00000407 	andeq	r0, r0, r7, lsl #8
    2c84:	002d1a25 	eoreq	r1, sp, r5, lsr #20
    2c88:	004d1800 	subeq	r1, sp, r0, lsl #16
    2c8c:	002c9800 	eoreq	r9, ip, r0, lsl #16
    2c90:	50012200 	andpl	r2, r1, r0, lsl #4
    2c94:	00007602 	andeq	r7, r0, r2, lsl #12
    2c98:	002d2425 	eoreq	r2, sp, r5, lsr #8
    2c9c:	004d1800 	subeq	r1, sp, r0, lsl #16
    2ca0:	002cb100 	eoreq	fp, ip, r0, lsl #2
    2ca4:	50012200 	andpl	r2, r1, r0, lsl #4
    2ca8:	22647902 	rsbcs	r7, r4, #32768	; 0x8000
    2cac:	32015101 	andcc	r5, r1, #1073741824	; 0x40000000
    2cb0:	2d322500 	cfldr32cs	mvfx2, [r2, #-0]
    2cb4:	4d570000 	ldclmi	0, cr0, [r7, #-0]
    2cb8:	2cc50000 	stclcs	0, cr0, [r5], {0}
    2cbc:	01220000 			; <UNDEFINED> instruction: 0x01220000
    2cc0:	00780250 	rsbseq	r0, r8, r0, asr r2
    2cc4:	2d702500 	cfldr64cs	mvdx2, [r0, #-0]
    2cc8:	4d180000 	ldcmi	0, cr0, [r8, #-0]
    2ccc:	2cda0000 	ldclcs	0, cr0, [sl], {0}
    2cd0:	01220000 			; <UNDEFINED> instruction: 0x01220000
    2cd4:	54910350 	ldrpl	r0, [r1], #848	; 0x350
    2cd8:	76250006 	strtvc	r0, [r5], -r6
    2cdc:	5700002d 	strpl	r0, [r0, -sp, lsr #32]
    2ce0:	ee00004d 	cdp	0, 0, cr0, cr0, cr13, {2}
    2ce4:	2200002c 	andcs	r0, r0, #44	; 0x2c
    2ce8:	78025001 	stmdavc	r2, {r0, ip, lr}
    2cec:	82250000 	eorhi	r0, r5, #0
    2cf0:	5700002d 	strpl	r0, [r0, -sp, lsr #32]
    2cf4:	0200004d 	andeq	r0, r0, #77	; 0x4d
    2cf8:	2200002d 	andcs	r0, r0, #45	; 0x2d
    2cfc:	78025001 	stmdavc	r2, {r0, ip, lr}
    2d00:	90240000 	eorls	r0, r4, r0
    2d04:	5700002d 	strpl	r0, [r0, -sp, lsr #32]
    2d08:	2500004d 	strcs	r0, [r0, #-77]	; 0xffffffb3
    2d0c:	00002dd2 	ldrdeq	r2, [r0], -r2	; <UNPREDICTABLE>
    2d10:	00004d57 	andeq	r4, r0, r7, asr sp
    2d14:	00002d1f 	andeq	r2, r0, pc, lsl sp
    2d18:	02500122 	subseq	r0, r0, #-2147483640	; 0x80000008
    2d1c:	25000078 	strcs	r0, [r0, #-120]	; 0xffffff88
    2d20:	00002de6 	andeq	r2, r0, r6, ror #27
    2d24:	00004d57 	andeq	r4, r0, r7, asr sp
    2d28:	00002d33 	andeq	r2, r0, r3, lsr sp
    2d2c:	02500122 	subseq	r0, r0, #-2147483640	; 0x80000008
    2d30:	24000078 	strcs	r0, [r0], #-120	; 0xffffff88
    2d34:	00002df4 	strdeq	r2, [r0], -r4
    2d38:	00004d57 	andeq	r4, r0, r7, asr sp
    2d3c:	002e3225 	eoreq	r3, lr, r5, lsr #4
    2d40:	004d5700 	subeq	r5, sp, r0, lsl #14
    2d44:	002d5000 	eoreq	r5, sp, r0
    2d48:	50012200 	andpl	r2, r1, r0, lsl #4
    2d4c:	00007802 	andeq	r7, r0, r2, lsl #16
    2d50:	002e6425 	eoreq	r6, lr, r5, lsr #8
    2d54:	004d1800 	subeq	r1, sp, r0, lsl #16
    2d58:	002d6400 	eoreq	r6, sp, r0, lsl #8
    2d5c:	50012200 	andpl	r2, r1, r0, lsl #4
    2d60:	00007902 	andeq	r7, r0, r2, lsl #18
    2d64:	002e6a21 	eoreq	r6, lr, r1, lsr #20
    2d68:	004d5700 	subeq	r5, sp, r0, lsl #14
    2d6c:	50012200 	andpl	r2, r1, r0, lsl #4
    2d70:	00007802 	andeq	r7, r0, r2, lsl #16
    2d74:	11f52c00 	mvnsne	r2, r0, lsl #24
    2d78:	05010000 	streq	r0, [r1, #-0]
    2d7c:	002c3404 	eoreq	r3, ip, r4, lsl #8
    2d80:	0000ac00 	andeq	sl, r0, r0, lsl #24
    2d84:	ca9c0100 	bgt	fe70318c <__bss_end__+0xfe6ee120>
    2d88:	2b00002e 	blcs	2e48 <bcm2835_aux_spi_transfernb+0x168>
    2d8c:	0000117c 	andeq	r1, r0, ip, ror r1
    2d90:	10040501 	andne	r0, r4, r1, lsl #10
    2d94:	6b000003 	blvs	2da8 <bcm2835_aux_spi_transfernb+0xc8>
    2d98:	3700001f 	smladcc	r0, pc, r0, r0	; <UNPREDICTABLE>
    2d9c:	006e656c 	rsbeq	r6, lr, ip, ror #10
    2da0:	07040501 	streq	r0, [r4, -r1, lsl #10]
    2da4:	97000004 	strls	r0, [r0, -r4]
    2da8:	1700001f 	smladne	r0, pc, r0, r0	; <UNPREDICTABLE>
    2dac:	000000b8 	strheq	r0, [r0], -r8
    2db0:	58040601 	stmdapl	r4, {r0, r9, sl}
    2db4:	01000004 	tsteq	r0, r4
    2db8:	00bf1a59 	adcseq	r1, pc, r9, asr sl	; <UNPREDICTABLE>
    2dbc:	07010000 	streq	r0, [r1, -r0]
    2dc0:	00045804 	andeq	r5, r4, r4, lsl #16
    2dc4:	001fc300 	andseq	ip, pc, r0, lsl #6
    2dc8:	02181700 	andseq	r1, r8, #0, 14
    2dcc:	08010000 	stmdaeq	r1, {}	; <UNPREDICTABLE>
    2dd0:	00045804 	andeq	r5, r4, r4, lsl #16
    2dd4:	17540100 	ldrbne	r0, [r4, -r0, lsl #2]
    2dd8:	00000db9 			; <UNDEFINED> instruction: 0x00000db9
    2ddc:	58040901 	stmdapl	r4, {r0, r8, fp}
    2de0:	01000004 	tsteq	r0, r4
    2de4:	6f691e58 	svcvs	0x00691e58
    2de8:	040a0100 	streq	r0, [sl], #-256	; 0xffffff00
    2dec:	00000458 	andeq	r0, r0, r8, asr r4
    2df0:	741b5701 	ldrvc	r5, [fp], #-1793	; 0xfffff8ff
    2df4:	0c010078 	stceq	0, cr0, [r1], {120}	; 0x78
    2df8:	0000e004 	andeq	lr, r0, r4
    2dfc:	001ff000 	andseq	pc, pc, r0
    2e00:	063b1a00 	ldrteq	r1, [fp], -r0, lsl #20
    2e04:	0d010000 	stceq	0, cr0, [r1, #-0]
    2e08:	00040704 	andeq	r0, r4, r4, lsl #14
    2e0c:	00203200 	eoreq	r3, r0, r0, lsl #4
    2e10:	0bab1a00 	bleq	feac9618 <__bss_end__+0xfeab45ac>
    2e14:	0e010000 	cdpeq	0, 0, cr0, cr1, cr0, {0}
    2e18:	00040704 	andeq	r0, r4, r4, lsl #14
    2e1c:	00205000 	eoreq	r5, r0, r0
    2e20:	04451a00 	strbeq	r1, [r5], #-2560	; 0xfffff600
    2e24:	0f010000 	svceq	0x00010000
    2e28:	00040704 	andeq	r0, r4, r4, lsl #14
    2e2c:	00206e00 	eoreq	r6, r0, r0, lsl #28
    2e30:	00691b00 	rsbeq	r1, r9, r0, lsl #22
    2e34:	07041001 	streq	r1, [r4, -r1]
    2e38:	98000004 	stmdals	r0, {r2}
    2e3c:	32000020 	andcc	r0, r0, #32
    2e40:	00001292 	muleq	r0, r2, r2
    2e44:	f1041101 			; <UNDEFINED> instruction: 0xf1041101
    2e48:	1a000003 	bne	2e5c <bcm2835_aux_spi_transfernb+0x17c>
    2e4c:	000000b7 	strheq	r0, [r0], -r7
    2e50:	07041301 	streq	r1, [r4, -r1, lsl #6]
    2e54:	ac000004 	stcge	0, cr0, [r0], {4}
    2e58:	25000020 	strcs	r0, [r0, #-32]	; 0xffffffe0
    2e5c:	00002c68 	andeq	r2, r0, r8, ror #24
    2e60:	00004d18 	andeq	r4, r0, r8, lsl sp
    2e64:	00002e6f 	andeq	r2, r0, pc, ror #28
    2e68:	02500122 	subseq	r0, r0, #-2147483640	; 0x80000008
    2e6c:	25000079 	strcs	r0, [r0, #-121]	; 0xffffff87
    2e70:	00002c72 	andeq	r2, r0, r2, ror ip
    2e74:	00004d18 	andeq	r4, r0, r8, lsl sp
    2e78:	00002e88 	andeq	r2, r0, r8, lsl #29
    2e7c:	02500122 	subseq	r0, r0, #-2147483640	; 0x80000008
    2e80:	01220479 			; <UNDEFINED> instruction: 0x01220479
    2e84:	00320151 	eorseq	r0, r2, r1, asr r1
    2e88:	002c7a25 	eoreq	r7, ip, r5, lsr #20
    2e8c:	004d5700 	subeq	r5, sp, r0, lsl #14
    2e90:	002e9c00 	eoreq	r9, lr, r0, lsl #24
    2e94:	50012200 	andpl	r2, r1, r0, lsl #4
    2e98:	00007402 	andeq	r7, r0, r2, lsl #8
    2e9c:	002cb624 	eoreq	fp, ip, r4, lsr #12
    2ea0:	004d1800 	subeq	r1, sp, r0, lsl #16
    2ea4:	2cbc2500 	cfldr32cs	mvfx2, [ip]
    2ea8:	4d570000 	ldclmi	0, cr0, [r7, #-0]
    2eac:	2eb90000 	cdpcs	0, 11, cr0, cr9, cr0, {0}
    2eb0:	01220000 			; <UNDEFINED> instruction: 0x01220000
    2eb4:	00740250 	rsbseq	r0, r4, r0, asr r2
    2eb8:	2cc62100 	stfcse	f2, [r6], {0}
    2ebc:	4d570000 	ldclmi	0, cr0, [r7, #-0]
    2ec0:	01220000 			; <UNDEFINED> instruction: 0x01220000
    2ec4:	00770250 	rsbseq	r0, r7, r0, asr r2
    2ec8:	862c0000 	strthi	r0, [ip], -r0
    2ecc:	0100000e 	tsteq	r0, lr
    2ed0:	2be403ef 	blcs	ff903e94 <__bss_end__+0xff8eee28>
    2ed4:	00500000 	subseq	r0, r0, r0
    2ed8:	9c010000 	stcls	0, cr0, [r1], {-0}
    2edc:	00002f8a 	andeq	r2, r0, sl, lsl #31
    2ee0:	0004452b 	andeq	r4, r4, fp, lsr #10
    2ee4:	03ef0100 	mvneq	r0, #0, 2
    2ee8:	000003fc 	strdeq	r0, [r0], -ip
    2eec:	000020cd 	andeq	r2, r0, sp, asr #1
    2ef0:	0000b81a 	andeq	fp, r0, sl, lsl r8
    2ef4:	03f10100 	mvnseq	r0, #0, 2
    2ef8:	00000458 	andeq	r0, r0, r8, asr r4
    2efc:	000020ee 	andeq	r2, r0, lr, ror #1
    2f00:	0000bf1a 	andeq	fp, r0, sl, lsl pc
    2f04:	03f20100 	mvnseq	r0, #0, 2
    2f08:	00000458 	andeq	r0, r0, r8, asr r4
    2f0c:	0000210e 	andeq	r2, r0, lr, lsl #2
    2f10:	0002181a 	andeq	r1, r2, sl, lsl r8
    2f14:	03f30100 	mvnseq	r0, #0, 2
    2f18:	00000458 	andeq	r0, r0, r8, asr r4
    2f1c:	00002148 	andeq	r2, r0, r8, asr #2
    2f20:	006f691b 	rsbeq	r6, pc, fp, lsl r9	; <UNPREDICTABLE>
    2f24:	5803f401 	stmdapl	r3, {r0, sl, ip, sp, lr, pc}
    2f28:	68000004 	stmdavs	r0, {r2}
    2f2c:	1a000021 	bne	2fb8 <bcm2835_i2c_end+0x20>
    2f30:	000000b7 	strheq	r0, [r0], -r7
    2f34:	0703f601 	streq	pc, [r3, -r1, lsl #12]
    2f38:	86000004 	strhi	r0, [r0], -r4
    2f3c:	25000021 	strcs	r0, [r0, #-33]	; 0xffffffdf
    2f40:	00002c0e 	andeq	r2, r0, lr, lsl #24
    2f44:	00004d18 	andeq	r4, r0, r8, lsl sp
    2f48:	00002f53 	andeq	r2, r0, r3, asr pc
    2f4c:	02500122 	subseq	r0, r0, #-2147483640	; 0x80000008
    2f50:	25000075 	strcs	r0, [r0, #-117]	; 0xffffff8b
    2f54:	00002c16 	andeq	r2, r0, r6, lsl ip
    2f58:	00004d18 	andeq	r4, r0, r8, lsl sp
    2f5c:	00002f6c 	andeq	r2, r0, ip, ror #30
    2f60:	02500122 	subseq	r0, r0, #-2147483640	; 0x80000008
    2f64:	01220475 			; <UNDEFINED> instruction: 0x01220475
    2f68:	00320151 	eorseq	r0, r2, r1, asr r1
    2f6c:	002c1c25 	eoreq	r1, ip, r5, lsr #24
    2f70:	004d5700 	subeq	r5, sp, r0, lsl #14
    2f74:	002f8000 	eoreq	r8, pc, r0
    2f78:	50012200 	andpl	r2, r1, r0, lsl #4
    2f7c:	00007402 	andeq	r7, r0, r2, lsl #8
    2f80:	002c2c2d 	eoreq	r2, ip, sp, lsr #24
    2f84:	004d1800 	subeq	r1, sp, r0, lsl #16
    2f88:	00310000 	eorseq	r0, r1, r0
    2f8c:	01000003 	tsteq	r0, r3
    2f90:	a40103ea 	strge	r0, [r1], #-1002	; 0xfffffc16
    2f94:	2700002f 	strcs	r0, [r0, -pc, lsr #32]
    2f98:	000006e8 	andeq	r0, r0, r8, ror #13
    2f9c:	fc03ea01 	stc2	10, cr14, [r3], {1}	; <UNPREDICTABLE>
    2fa0:	00000003 	andeq	r0, r0, r3
    2fa4:	00061a3c 	andeq	r1, r6, ip, lsr sl
    2fa8:	03d50100 	bicseq	r0, r5, #0, 2
    2fac:	000003fc 	strdeq	r0, [r0], -ip
    2fb0:	002fce01 	eoreq	ip, pc, r1, lsl #28
    2fb4:	0d112700 	ldceq	7, cr2, [r1, #-0]
    2fb8:	d5010000 	strle	r0, [r1, #-0]
    2fbc:	00040703 	andeq	r0, r4, r3, lsl #14
    2fc0:	06e83200 	strbteq	r3, [r8], r0, lsl #4
    2fc4:	d7010000 	strle	r0, [r1, -r0]
    2fc8:	0003fc03 	andeq	pc, r3, r3, lsl #24
    2fcc:	ec2c0000 	stc	0, cr0, [ip], #-0
    2fd0:	01000002 	tsteq	r0, r2
    2fd4:	2b4c03ca 	blcs	1303f04 <__bss_end__+0x12eee98>
    2fd8:	00440000 	subeq	r0, r4, r0
    2fdc:	9c010000 	stcls	0, cr0, [r1], {-0}
    2fe0:	00003140 	andeq	r3, r0, r0, asr #2
    2fe4:	004c251f 	subeq	r2, ip, pc, lsl r5
    2fe8:	002b4e00 	eoreq	r4, fp, r0, lsl #28
    2fec:	00001200 	andeq	r1, r0, r0, lsl #4
    2ff0:	03cd0100 	biceq	r0, sp, #0, 2
    2ff4:	0000303f 	andeq	r3, r0, pc, lsr r0
    2ff8:	004c3e20 	subeq	r3, ip, r0, lsr #28
    2ffc:	0021a300 	eoreq	sl, r1, r0, lsl #6
    3000:	4c322000 	ldcmi	0, cr2, [r2], #-0
    3004:	21b70000 			; <UNDEFINED> instruction: 0x21b70000
    3008:	4e340000 	cdpmi	0, 3, cr0, cr4, cr0, {0}
    300c:	1200002b 	andne	r0, r0, #43	; 0x2b
    3010:	30000000 	andcc	r0, r0, r0
    3014:	0000524f 	andeq	r5, r0, pc, asr #4
    3018:	00525830 	subseq	r5, r2, r0, lsr r8
    301c:	52613000 	rsbpl	r3, r1, #0
    3020:	6a300000 	bvs	c03028 <__bss_end__+0xbedfbc>
    3024:	21000052 	qaddcs	r0, r2, r0
    3028:	00002b60 	andeq	r2, r0, r0, ror #22
    302c:	00004c7b 	andeq	r4, r0, fp, ror ip
    3030:	01510122 	cmpeq	r1, r2, lsr #2
    3034:	52012230 	andpl	r2, r1, #48, 4
    3038:	24404c03 	strbcs	r4, [r0], #-3075	; 0xfffff3fd
    303c:	1f000000 	svcne	0x00000000
    3040:	00004c25 	andeq	r4, r0, r5, lsr #24
    3044:	00002b60 	andeq	r2, r0, r0, ror #22
    3048:	0000000e 	andeq	r0, r0, lr
    304c:	9a03ce01 	bls	f6858 <__bss_end__+0xe17ec>
    3050:	20000030 	andcs	r0, r0, r0, lsr r0
    3054:	00004c3e 	andeq	r4, r0, lr, lsr ip
    3058:	000021cb 	andeq	r2, r0, fp, asr #3
    305c:	004c3220 	subeq	r3, ip, r0, lsr #4
    3060:	0021df00 	eoreq	sp, r1, r0, lsl #30
    3064:	2b603400 	blcs	181006c <__bss_end__+0x17fb000>
    3068:	000e0000 	andeq	r0, lr, r0
    306c:	4f300000 	svcmi	0x00300000
    3070:	30000052 	andcc	r0, r0, r2, asr r0
    3074:	00005258 	andeq	r5, r0, r8, asr r2
    3078:	00526130 	subseq	r6, r2, r0, lsr r1
    307c:	526a3000 	rsbpl	r3, sl, #0
    3080:	6e210000 	cdpvs	0, 2, cr0, cr1, cr0, {0}
    3084:	7b00002b 	blvc	3138 <bcm2835_i2c_write+0xec>
    3088:	2200004c 	andcs	r0, r0, #76	; 0x4c
    308c:	30015101 	andcc	r5, r1, r1, lsl #2
    3090:	03520122 	cmpeq	r2, #-2147483640	; 0x80000008
    3094:	0024494c 	eoreq	r4, r4, ip, asr #18
    3098:	251f0000 	ldrcs	r0, [pc, #-0]	; 30a0 <bcm2835_i2c_write+0x54>
    309c:	6e00004c 	cdpvs	0, 0, cr0, cr0, cr12, {2}
    30a0:	0c00002b 	stceq	0, cr0, [r0], {43}	; 0x2b
    30a4:	01000000 	mrseq	r0, (UNDEF: 0)
    30a8:	30f303cf 	rscscc	r0, r3, pc, asr #7
    30ac:	3e200000 	cdpcc	0, 2, cr0, cr0, cr0, {0}
    30b0:	f300004c 	vhadd.u8	q0, q0, q6
    30b4:	20000021 	andcs	r0, r0, r1, lsr #32
    30b8:	00004c32 	andeq	r4, r0, r2, lsr ip
    30bc:	00002207 	andeq	r2, r0, r7, lsl #4
    30c0:	002b6e34 	eoreq	r6, fp, r4, lsr lr
    30c4:	00000c00 	andeq	r0, r0, r0, lsl #24
    30c8:	524f3000 	subpl	r3, pc, #0
    30cc:	58300000 	ldmdapl	r0!, {}	; <UNPREDICTABLE>
    30d0:	30000052 	andcc	r0, r0, r2, asr r0
    30d4:	00005261 	andeq	r5, r0, r1, ror #4
    30d8:	00526a30 	subseq	r6, r2, r0, lsr sl
    30dc:	2b7a2100 	blcs	1e8b4e4 <__bss_end__+0x1e76478>
    30e0:	4c7b0000 	ldclmi	0, cr0, [fp], #-0
    30e4:	01220000 			; <UNDEFINED> instruction: 0x01220000
    30e8:	22300151 	eorscs	r0, r0, #1073741844	; 0x40000014
    30ec:	37015201 	strcc	r5, [r1, -r1, lsl #4]
    30f0:	2e000000 	cdpcs	0, 0, cr0, cr0, cr0, {0}
    30f4:	00004c25 	andeq	r4, r0, r5, lsr #24
    30f8:	00002b7a 	andeq	r2, r0, sl, ror fp
    30fc:	00000360 	andeq	r0, r0, r0, ror #6
    3100:	3503d001 	strcc	sp, [r3, #-1]
    3104:	00004c3e 	andeq	r4, r0, lr, lsr ip
    3108:	4c323500 	cfldr32mi	mvfx3, [r2], #-0
    310c:	2f150000 	svccs	0x00150000
    3110:	00000360 	andeq	r0, r0, r0, ror #6
    3114:	00524f30 	subseq	r4, r2, r0, lsr pc
    3118:	52583000 	subspl	r3, r8, #0
    311c:	61300000 	teqvs	r0, r0
    3120:	30000052 	andcc	r0, r0, r2, asr r0
    3124:	0000526a 	andeq	r5, r0, sl, ror #4
    3128:	002b8a36 	eoreq	r8, fp, r6, lsr sl
    312c:	004c7b00 	subeq	r7, ip, r0, lsl #22
    3130:	51012200 	mrspl	r2, R9_usr
    3134:	01223001 			; <UNDEFINED> instruction: 0x01223001
    3138:	38080252 	stmdacc	r8, {r1, r4, r6, r9}
    313c:	00000000 	andeq	r0, r0, r0
    3140:	000cbb19 	andeq	fp, ip, r9, lsl fp
    3144:	03b20100 			; <UNDEFINED> instruction: 0x03b20100
    3148:	00000045 	andeq	r0, r0, r5, asr #32
    314c:	00002ad4 	ldrdeq	r2, [r0], -r4
    3150:	00000078 	andeq	r0, r0, r8, ror r0
    3154:	33579c01 	cmpcc	r7, #256	; 0x100
    3158:	9b1a0000 	blls	683160 <__bss_end__+0x66e0f4>
    315c:	0100000a 	tsteq	r0, sl
    3160:	045803b4 	ldrbeq	r0, [r8], #-948	; 0xfffffc4c
    3164:	221b0000 	andscs	r0, fp, #0
    3168:	b81a0000 	ldmdalt	sl, {}	; <UNPREDICTABLE>
    316c:	01000000 	mrseq	r0, (UNDEF: 0)
    3170:	045803b5 	ldrbeq	r0, [r8], #-949	; 0xfffffc4b
    3174:	22430000 	subcs	r0, r3, #0
    3178:	bf1a0000 	svclt	0x001a0000
    317c:	01000000 	mrseq	r0, (UNDEF: 0)
    3180:	045803b6 	ldrbeq	r0, [r8], #-950	; 0xfffffc4a
    3184:	22560000 	subscs	r0, r6, #0
    3188:	25230000 	strcs	r0, [r3, #-0]!
    318c:	e400004c 	str	r0, [r0], #-76	; 0xffffffb4
    3190:	3000002a 	andcc	r0, r0, sl, lsr #32
    3194:	01000003 	tsteq	r0, r3
    3198:	31e303bc 	strhcc	r0, [r3, #60]!	; 0x3c
    319c:	3e200000 	cdpcc	0, 2, cr0, cr0, cr0, {0}
    31a0:	8300004c 	movwhi	r0, #76	; 0x4c
    31a4:	20000022 	andcs	r0, r0, r2, lsr #32
    31a8:	00004c32 	andeq	r4, r0, r2, lsr ip
    31ac:	00002297 	muleq	r0, r7, r2
    31b0:	0003302f 	andeq	r3, r3, pc, lsr #32
    31b4:	524f3000 	subpl	r3, pc, #0
    31b8:	58300000 	ldmdapl	r0!, {}	; <UNPREDICTABLE>
    31bc:	30000052 	andcc	r0, r0, r2, asr r0
    31c0:	00005261 	andeq	r5, r0, r1, ror #4
    31c4:	00526a30 	subseq	r6, r2, r0, lsr sl
    31c8:	2af62100 	bcs	ffd8b5d0 <__bss_end__+0xffd76564>
    31cc:	4c7b0000 	ldclmi	0, cr0, [fp], #-0
    31d0:	01220000 			; <UNDEFINED> instruction: 0x01220000
    31d4:	3f480351 	svccc	0x00480351
    31d8:	52012224 	andpl	r2, r1, #36, 4	; 0x40000002
    31dc:	24404c03 	strbcs	r4, [r0], #-3075	; 0xfffff3fd
    31e0:	1f000000 	svcne	0x00000000
    31e4:	00004c25 	andeq	r4, r0, r5, lsr #24
    31e8:	00002af6 	strdeq	r2, [r0], -r6
    31ec:	00000010 	andeq	r0, r0, r0, lsl r0
    31f0:	4003bd01 	andmi	fp, r3, r1, lsl #26
    31f4:	20000032 	andcs	r0, r0, r2, lsr r0
    31f8:	00004c3e 	andeq	r4, r0, lr, lsr ip
    31fc:	000022ab 	andeq	r2, r0, fp, lsr #5
    3200:	004c3220 	subeq	r3, ip, r0, lsr #4
    3204:	0022bf00 	eoreq	fp, r2, r0, lsl #30
    3208:	2af63400 	bcs	ffd90210 <__bss_end__+0xffd7b1a4>
    320c:	00100000 	andseq	r0, r0, r0
    3210:	4f300000 	svcmi	0x00300000
    3214:	30000052 	andcc	r0, r0, r2, asr r0
    3218:	00005258 	andeq	r5, r0, r8, asr r2
    321c:	00526130 	subseq	r6, r2, r0, lsr r1
    3220:	526a3000 	rsbpl	r3, sl, #0
    3224:	06210000 	strteq	r0, [r1], -r0
    3228:	7b00002b 	blvc	32dc <bcm2835_smi_begin+0x10>
    322c:	2200004c 	andcs	r0, r0, #76	; 0x4c
    3230:	48035101 	stmdami	r3, {r0, r8, ip, lr}
    3234:	01222448 			; <UNDEFINED> instruction: 0x01222448
    3238:	494c0352 	stmdbmi	ip, {r1, r4, r6, r8, r9}^
    323c:	00000024 	andeq	r0, r0, r4, lsr #32
    3240:	004c251f 	subeq	r2, ip, pc, lsl r5
    3244:	002b0600 	eoreq	r0, fp, r0, lsl #12
    3248:	00000c00 	andeq	r0, r0, r0, lsl #24
    324c:	03be0100 			; <UNDEFINED> instruction: 0x03be0100
    3250:	00003299 	muleq	r0, r9, r2
    3254:	004c3e20 	subeq	r3, ip, r0, lsr #28
    3258:	0022d300 	eoreq	sp, r2, r0, lsl #6
    325c:	4c322000 	ldcmi	0, cr2, [r2], #-0
    3260:	22e70000 	rsccs	r0, r7, #0
    3264:	06340000 	ldrteq	r0, [r4], -r0
    3268:	0c00002b 	stceq	0, cr0, [r0], {43}	; 0x2b
    326c:	30000000 	andcc	r0, r0, r0
    3270:	0000524f 	andeq	r5, r0, pc, asr #4
    3274:	00525830 	subseq	r5, r2, r0, lsr r8
    3278:	52613000 	rsbpl	r3, r1, #0
    327c:	6a300000 	bvs	c03284 <__bss_end__+0xbee218>
    3280:	21000052 	qaddcs	r0, r2, r0
    3284:	00002b12 	andeq	r2, r0, r2, lsl fp
    3288:	00004c7b 	andeq	r4, r0, fp, ror ip
    328c:	01510122 	cmpeq	r1, r2, lsr #2
    3290:	52012233 	andpl	r2, r1, #805306371	; 0x30000003
    3294:	00003701 	andeq	r3, r0, r1, lsl #14
    3298:	4c251f00 	stcmi	15, cr1, [r5], #-0
    329c:	2b120000 	blcs	4832a4 <__bss_end__+0x46e238>
    32a0:	000c0000 	andeq	r0, ip, r0
    32a4:	bf010000 	svclt	0x00010000
    32a8:	0032f303 	eorseq	pc, r2, r3, lsl #6
    32ac:	4c3e2000 	ldcmi	0, cr2, [lr], #-0
    32b0:	22fb0000 	rscscs	r0, fp, #0
    32b4:	32200000 	eorcc	r0, r0, #0
    32b8:	0f00004c 	svceq	0x0000004c
    32bc:	34000023 	strcc	r0, [r0], #-35	; 0xffffffdd
    32c0:	00002b12 	andeq	r2, r0, r2, lsl fp
    32c4:	0000000c 	andeq	r0, r0, ip
    32c8:	00524f30 	subseq	r4, r2, r0, lsr pc
    32cc:	52583000 	subspl	r3, r8, #0
    32d0:	61300000 	teqvs	r0, r0
    32d4:	30000052 	andcc	r0, r0, r2, asr r0
    32d8:	0000526a 	andeq	r5, r0, sl, ror #4
    32dc:	002b1e21 	eoreq	r1, fp, r1, lsr #28
    32e0:	004c7b00 	subeq	r7, ip, r0, lsl #22
    32e4:	51012200 	mrspl	r2, R9_usr
    32e8:	01224801 			; <UNDEFINED> instruction: 0x01224801
    32ec:	38080252 	stmdacc	r8, {r1, r4, r6, r9}
    32f0:	23000000 	movwcs	r0, #0
    32f4:	00002f8a 	andeq	r2, r0, sl, lsl #31
    32f8:	00002b1e 	andeq	r2, r0, lr, lsl fp
    32fc:	00000348 	andeq	r0, r0, r8, asr #6
    3300:	0d03c101 	stfeqd	f4, [r3, #-4]
    3304:	38000033 	stmdacc	r0, {r0, r1, r4, r5}
    3308:	00002f97 	muleq	r0, r7, pc	; <UNPREDICTABLE>
    330c:	2b2e2500 	blcs	b8c714 <__bss_end__+0xb776a8>
    3310:	4d180000 	ldcmi	0, cr0, [r8, #-0]
    3314:	33260000 			; <UNDEFINED> instruction: 0x33260000
    3318:	01220000 			; <UNDEFINED> instruction: 0x01220000
    331c:	04760250 	ldrbteq	r0, [r6], #-592	; 0xfffffdb0
    3320:	01510122 	cmpeq	r1, r2, lsr #2
    3324:	36250032 			; <UNDEFINED> instruction: 0x36250032
    3328:	1800002b 	stmdane	r0, {r0, r1, r3, r5}
    332c:	3f00004d 	svccc	0x0000004d
    3330:	22000033 	andcs	r0, r0, #51	; 0x33
    3334:	75025001 	strvc	r5, [r2, #-1]
    3338:	51012204 	tstpl	r1, r4, lsl #4
    333c:	21003001 	tstcs	r0, r1
    3340:	00002b40 	andeq	r2, r0, r0, asr #22
    3344:	00004d18 	andeq	r4, r0, r8, lsl sp
    3348:	02500122 	subseq	r0, r0, #-2147483640	; 0x80000008
    334c:	01220075 			; <UNDEFINED> instruction: 0x01220075
    3350:	000a0351 	andeq	r0, sl, r1, asr r3
    3354:	2c000002 	stccs	0, cr0, [r0], {2}
    3358:	0000141e 	andeq	r1, r0, lr, lsl r4
    335c:	48038d01 	stmdami	r3, {r0, r8, sl, fp, pc}
    3360:	8c00002a 	stchi	0, cr0, [r0], {42}	; 0x2a
    3364:	01000000 	mrseq	r0, (UNDEF: 0)
    3368:	0034a99c 	mlaseq	r4, ip, r9, sl
    336c:	04452b00 	strbeq	r2, [r5], #-2816	; 0xfffff500
    3370:	8d010000 	stchi	0, cr0, [r1, #-0]
    3374:	0003fc03 	andeq	pc, r3, r3, lsl #24
    3378:	00232300 	eoreq	r2, r3, r0, lsl #6
    337c:	0fe51a00 	svceq	0x00e51a00
    3380:	97010000 	strls	r0, [r1, -r0]
    3384:	00045803 	andeq	r5, r4, r3, lsl #16
    3388:	00234400 	eoreq	r4, r3, r0, lsl #8
    338c:	044a1a00 	strbeq	r1, [sl], #-2560	; 0xfffff600
    3390:	98010000 	stmdals	r1, {}	; <UNPREDICTABLE>
    3394:	00045803 	andeq	r5, r4, r3, lsl #16
    3398:	00236d00 	eoreq	r6, r3, r0, lsl #26
    339c:	4cf52300 	ldclmi	3, cr2, [r5]
    33a0:	2a700000 	bcs	1c033a8 <__bss_end__+0x1bee33c>
    33a4:	02e00000 	rsceq	r0, r0, #0
    33a8:	a5010000 	strge	r0, [r1, #-0]
    33ac:	0033d403 	eorseq	sp, r3, r3, lsl #8
    33b0:	4d0c2000 	stcmi	0, cr2, [ip, #-0]
    33b4:	239c0000 	orrscs	r0, ip, #0
    33b8:	01200000 			; <UNDEFINED> instruction: 0x01200000
    33bc:	ba00004d 	blt	34f8 <bcm2835_smi_end+0xa0>
    33c0:	21000023 	tstcs	r0, r3, lsr #32
    33c4:	00002ab4 			; <UNDEFINED> instruction: 0x00002ab4
    33c8:	00004ef2 	strdeq	r4, [r0], -r2
    33cc:	02500122 	subseq	r0, r0, #-2147483640	; 0x80000008
    33d0:	00000077 	andeq	r0, r0, r7, ror r0
    33d4:	004cf523 	subeq	pc, ip, r3, lsr #10
    33d8:	002a7e00 	eoreq	r7, sl, r0, lsl #28
    33dc:	00030000 	andeq	r0, r3, r0
    33e0:	03a60100 			; <UNDEFINED> instruction: 0x03a60100
    33e4:	00003411 	andeq	r3, r0, r1, lsl r4
    33e8:	004d0c20 	subeq	r0, sp, r0, lsr #24
    33ec:	0023dc00 	eoreq	sp, r3, r0, lsl #24
    33f0:	4d012000 	stcmi	0, cr2, [r1, #-0]
    33f4:	23ef0000 	mvncs	r0, #0
    33f8:	c2210000 	eorgt	r0, r1, #0
    33fc:	f200002a 	vhadd.s8	d0, d0, d26
    3400:	2200004e 	andcs	r0, r0, #78	; 0x4e
    3404:	77025001 	strvc	r5, [r2, -r1]
    3408:	51012200 	mrspl	r2, R9_usr
    340c:	00007502 	andeq	r7, r0, r2, lsl #10
    3410:	4d3b2300 	ldcmi	3, cr2, [fp, #-0]
    3414:	2a860000 	bcs	fe18341c <__bss_end__+0xfe16e3b0>
    3418:	03180000 	tsteq	r8, #0
    341c:	aa010000 	bge	43424 <__bss_end__+0x2e3b8>
    3420:	00343f03 	eorseq	r3, r4, r3, lsl #30
    3424:	4d4b2000 	stclmi	0, cr2, [fp, #-0]
    3428:	241e0000 	ldrcs	r0, [lr], #-0
    342c:	9a210000 	bls	843434 <__bss_end__+0x82e3c8>
    3430:	a600002a 	strge	r0, [r0], -sl, lsr #32
    3434:	2200004e 	andcs	r0, r0, #78	; 0x4e
    3438:	74025001 	strvc	r5, [r2], #-1
    343c:	25000000 	strcs	r0, [r0, #-0]
    3440:	00002a5c 	andeq	r2, r0, ip, asr sl
    3444:	00004c7b 	andeq	r4, r0, fp, ror ip
    3448:	0000345f 	andeq	r3, r0, pc, asr r4
    344c:	02500122 	subseq	r0, r0, #-2147483640	; 0x80000008
    3450:	01220074 			; <UNDEFINED> instruction: 0x01220074
    3454:	30080251 	andcc	r0, r8, r1, asr r2
    3458:	02520122 	subseq	r0, r2, #-2147483640	; 0x80000008
    345c:	25003008 	strcs	r3, [r0, #-8]
    3460:	00002a66 	andeq	r2, r0, r6, ror #20
    3464:	00004c7b 	andeq	r4, r0, fp, ror ip
    3468:	0000347f 	andeq	r3, r0, pc, ror r4
    346c:	02500122 	subseq	r0, r0, #-2147483640	; 0x80000008
    3470:	01220074 			; <UNDEFINED> instruction: 0x01220074
    3474:	80080251 	andhi	r0, r8, r1, asr r2
    3478:	02520122 	subseq	r0, r2, #-2147483640	; 0x80000008
    347c:	25008008 	strcs	r8, [r0, #-8]
    3480:	00002a6c 	andeq	r2, r0, ip, ror #20
    3484:	00004d57 	andeq	r4, r0, r7, asr sp
    3488:	00003493 	muleq	r0, r3, r4
    348c:	02500122 	subseq	r0, r0, #-2147483640	; 0x80000008
    3490:	36000074 			; <UNDEFINED> instruction: 0x36000074
    3494:	00002aac 	andeq	r2, r0, ip, lsr #21
    3498:	00004c7b 	andeq	r4, r0, fp, ror ip
    349c:	01510122 	cmpeq	r1, r2, lsr #2
    34a0:	52012230 	andpl	r2, r1, #48, 4
    34a4:	00800802 	addeq	r0, r0, r2, lsl #16
    34a8:	15fd2c00 	ldrbne	r2, [sp, #3072]!	; 0xc00
    34ac:	85010000 	strhi	r0, [r1, #-0]
    34b0:	002a3003 	eoreq	r3, sl, r3
    34b4:	00001800 	andeq	r1, r0, r0, lsl #16
    34b8:	089c0100 	ldmeq	ip, {r8}
    34bc:	37000035 	smladxcc	r0, r5, r0, r0
    34c0:	01007363 	tsteq	r0, r3, ror #6
    34c4:	03f10385 	mvnseq	r0, #335544322	; 0x14000002
    34c8:	243c0000 	ldrtcs	r0, [ip], #-0
    34cc:	f92b0000 			; <UNDEFINED> instruction: 0xf92b0000
    34d0:	01000007 	tsteq	r0, r7
    34d4:	03f10385 	mvnseq	r0, #335544322	; 0x14000002
    34d8:	245d0000 	ldrbcs	r0, [sp], #-0
    34dc:	e51a0000 	ldr	r0, [sl, #-0]
    34e0:	0100000f 	tsteq	r0, pc
    34e4:	04580387 	ldrbeq	r0, [r8], #-903	; 0xfffffc79
    34e8:	247e0000 	ldrbtcs	r0, [lr], #-0
    34ec:	e11a0000 	tst	sl, r0
    34f0:	01000004 	tsteq	r0, r4
    34f4:	03f10388 	mvnseq	r0, #136, 6	; 0x20000002
    34f8:	24950000 	ldrcs	r0, [r5], #0
    34fc:	442d0000 	strtmi	r0, [sp], #-0
    3500:	7b00002a 	blvc	35b0 <bcm2835_smi_write+0x1c>
    3504:	0000004c 	andeq	r0, r0, ip, asr #32
    3508:	0007232c 	andeq	r2, r7, ip, lsr #6
    350c:	037e0100 	cmneq	lr, #0, 2
    3510:	00002a1c 	andeq	r2, r0, ip, lsl sl
    3514:	00000014 	andeq	r0, r0, r4, lsl r0
    3518:	354d9c01 	strbcc	r9, [sp, #-3073]	; 0xfffff3ff
    351c:	63370000 	teqvs	r7, #0
    3520:	7e010073 	mcrvc	0, 0, r0, cr1, cr3, {3}
    3524:	0003f103 	andeq	pc, r3, r3, lsl #2
    3528:	0024ba00 	eoreq	fp, r4, r0, lsl #20
    352c:	0fe51a00 	svceq	0x00e51a00
    3530:	80010000 	andhi	r0, r1, r0
    3534:	00045803 	andeq	r5, r4, r3, lsl #16
    3538:	0024db00 	eoreq	sp, r4, r0, lsl #22
    353c:	2a2a3600 	bcs	a90d44 <__bss_end__+0xa7bcd8>
    3540:	4c7b0000 	ldclmi	0, cr0, [fp], #-0
    3544:	01220000 			; <UNDEFINED> instruction: 0x01220000
    3548:	00330152 	eorseq	r0, r3, r2, asr r1
    354c:	0d582c00 	ldcleq	12, cr2, [r8, #-0]
    3550:	79010000 	stmdbvc	r1, {}	; <UNPREDICTABLE>
    3554:	002a1403 	eoreq	r1, sl, r3, lsl #8
    3558:	00000800 	andeq	r0, r0, r0, lsl #16
    355c:	a39c0100 	orrsge	r0, ip, #0, 2
    3560:	37000035 	smladxcc	r0, r5, r0, r0
    3564:	00667562 	rsbeq	r7, r6, r2, ror #10
    3568:	e0037901 	and	r7, r3, r1, lsl #18
    356c:	f2000000 	vhadd.s8	d0, d0, d0
    3570:	37000024 	strcc	r0, [r0, -r4, lsr #32]
    3574:	006e656c 	rsbeq	r6, lr, ip, ror #10
    3578:	07037901 	streq	r7, [r3, -r1, lsl #18]
    357c:	13000004 	movwne	r0, #4
    3580:	36000025 	strcc	r0, [r0], -r5, lsr #32
    3584:	00002a1c 	andeq	r2, r0, ip, lsl sl
    3588:	00003790 	muleq	r0, r0, r7
    358c:	03500122 	cmpeq	r0, #-2147483640	; 0x80000008
    3590:	225001f3 	subscs	r0, r0, #-1073741764	; 0xc000003c
    3594:	f3035101 	vrhadd.u8	d5, d3, d1
    3598:	01225001 			; <UNDEFINED> instruction: 0x01225001
    359c:	01f30352 	mvnseq	r0, r2, asr r3
    35a0:	2c000051 	stccs	0, cr0, [r0], {81}	; 0x51
    35a4:	00000d8d 	andeq	r0, r0, sp, lsl #27
    35a8:	1c034c01 	stcne	12, cr4, [r3], {1}
    35ac:	f8000029 			; <UNDEFINED> instruction: 0xf8000029
    35b0:	01000000 	mrseq	r0, (UNDEF: 0)
    35b4:	0037909c 	mlaseq	r7, ip, r0, r9
    35b8:	117c2b00 	cmnne	ip, r0, lsl #22
    35bc:	4c010000 	stcmi	0, cr0, [r1], {-0}
    35c0:	00031003 	andeq	r1, r3, r3
    35c4:	00253f00 	eoreq	r3, r5, r0, lsl #30
    35c8:	656c3700 	strbvs	r3, [ip, #-1792]!	; 0xfffff900
    35cc:	4c01006e 	stcmi	0, cr0, [r1], {110}	; 0x6e
    35d0:	00040703 	andeq	r0, r4, r3, lsl #14
    35d4:	00257800 	eoreq	r7, r5, r0, lsl #16
    35d8:	0fe51a00 	svceq	0x00e51a00
    35dc:	4e010000 	cdpmi	0, 0, cr0, cr1, cr0, {0}
    35e0:	00045803 	andeq	r5, r4, r3, lsl #16
    35e4:	0025a400 	eoreq	sl, r5, r0, lsl #8
    35e8:	044a1a00 	strbeq	r1, [sl], #-2560	; 0xfffff600
    35ec:	4f010000 	svcmi	0x00010000
    35f0:	00045803 	andeq	r5, r4, r3, lsl #16
    35f4:	0025cd00 	eoreq	ip, r5, r0, lsl #26
    35f8:	00691b00 	rsbeq	r1, r9, r0, lsl #22
    35fc:	07035001 	streq	r5, [r3, -r1]
    3600:	f8000004 			; <UNDEFINED> instruction: 0xf8000004
    3604:	23000025 	movwcs	r0, #37	; 0x25
    3608:	00004d3b 	andeq	r4, r0, fp, lsr sp
    360c:	0000294a 	andeq	r2, r0, sl, asr #18
    3610:	00000230 	andeq	r0, r0, r0, lsr r2
    3614:	31036901 	tstcc	r3, r1, lsl #18
    3618:	38000036 	stmdacc	r0, {r1, r2, r4, r5}
    361c:	00004d4b 	andeq	r4, r0, fp, asr #26
    3620:	0029d821 	eoreq	sp, r9, r1, lsr #16
    3624:	004ea600 	subeq	sl, lr, r0, lsl #12
    3628:	50012200 	andpl	r2, r1, r0, lsl #4
    362c:	00007602 	andeq	r7, r0, r2, lsl #12
    3630:	4ddd2300 	ldclmi	3, cr2, [sp]
    3634:	295e0000 	ldmdbcs	lr, {}^	; <UNPREDICTABLE>
    3638:	02580000 	subseq	r0, r8, #0
    363c:	65010000 	strvs	r0, [r1, #-0]
    3640:	00364f03 	eorseq	r4, r6, r3, lsl #30
    3644:	4ded2000 	stclmi	0, cr2, [sp]
    3648:	261f0000 	ldrcs	r0, [pc], -r0
    364c:	23000000 	movwcs	r0, #0
    3650:	00004cf5 	strdeq	r4, [r0], -r5
    3654:	0000296e 	andeq	r2, r0, lr, ror #18
    3658:	00000270 	andeq	r0, r0, r0, ror r2
    365c:	82036501 	andhi	r6, r3, #4194304	; 0x400000
    3660:	20000036 	andcs	r0, r0, r6, lsr r0
    3664:	00004d0c 	andeq	r4, r0, ip, lsl #26
    3668:	00002632 	andeq	r2, r0, r2, lsr r6
    366c:	004d0138 	subeq	r0, sp, r8, lsr r1
    3670:	29f82100 	ldmibcs	r8!, {r8, sp}^
    3674:	4ef20000 	cdpmi	0, 15, cr0, cr2, cr0, {0}
    3678:	01220000 			; <UNDEFINED> instruction: 0x01220000
    367c:	00760250 	rsbseq	r0, r6, r0, asr r2
    3680:	3b230000 	blcc	8c3688 <__bss_end__+0x8ae61c>
    3684:	9800004d 	stmdals	r0, {r0, r2, r3, r6}
    3688:	88000029 	stmdahi	r0, {r0, r3, r5}
    368c:	01000002 	tsteq	r0, r2
    3690:	36ac036d 	strtcc	r0, [ip], sp, ror #6
    3694:	4b380000 	blmi	e0369c <__bss_end__+0xdee630>
    3698:	2100004d 	tstcs	r0, sp, asr #32
    369c:	000029e0 	andeq	r2, r0, r0, ror #19
    36a0:	00004ea6 	andeq	r4, r0, r6, lsr #29
    36a4:	02500122 	subseq	r0, r0, #-2147483640	; 0x80000008
    36a8:	00000074 	andeq	r0, r0, r4, ror r0
    36ac:	004d3b23 	subeq	r3, sp, r3, lsr #22
    36b0:	00299a00 	eoreq	r9, r9, r0, lsl #20
    36b4:	0002b000 	andeq	fp, r2, r0
    36b8:	036f0100 	cmneq	pc, #0, 2
    36bc:	000036d6 	ldrdeq	r3, [r0], -r6
    36c0:	004d4b38 	subeq	r4, sp, r8, lsr fp
    36c4:	29d02100 	ldmibcs	r0, {r8, sp}^
    36c8:	4ea60000 	cdpmi	0, 10, cr0, cr6, cr0, {0}
    36cc:	01220000 			; <UNDEFINED> instruction: 0x01220000
    36d0:	00760250 	rsbseq	r0, r6, r0, asr r2
    36d4:	3a250000 	bcc	9436dc <__bss_end__+0x92e670>
    36d8:	7b000029 	blvc	3784 <bcm2835_delayMicroseconds+0xb4>
    36dc:	f600004c 			; <UNDEFINED> instruction: 0xf600004c
    36e0:	22000036 	andcs	r0, r0, #54	; 0x36
    36e4:	74025001 	strvc	r5, [r2], #-1
    36e8:	51012200 	mrspl	r2, R9_usr
    36ec:	22300802 	eorscs	r0, r0, #131072	; 0x20000
    36f0:	08025201 	stmdaeq	r2, {r0, r9, ip, lr}
    36f4:	44250030 	strtmi	r0, [r5], #-48	; 0xffffffd0
    36f8:	7b000029 	blvc	37a4 <bcm2835_gpio_set_pud+0x10>
    36fc:	1600004c 	strne	r0, [r0], -ip, asr #32
    3700:	22000037 	andcs	r0, r0, #55	; 0x37
    3704:	74025001 	strvc	r5, [r2], #-1
    3708:	51012200 	mrspl	r2, R9_usr
    370c:	22800802 	addcs	r0, r0, #131072	; 0x20000
    3710:	08025201 	stmdaeq	r2, {r0, r9, ip, lr}
    3714:	5a250080 	bpl	94391c <__bss_end__+0x92e8b0>
    3718:	57000029 	strpl	r0, [r0, -r9, lsr #32]
    371c:	2a00004d 	bcs	3858 <bcm2835_gpio_set_pud+0xc4>
    3720:	22000037 	andcs	r0, r0, #55	; 0x37
    3724:	74025001 	strvc	r5, [r2], #-1
    3728:	80250000 	eorhi	r0, r5, r0
    372c:	57000029 	strpl	r0, [r0, -r9, lsr #32]
    3730:	3e00004d 	cdpcc	0, 0, cr0, cr0, cr13, {2}
    3734:	22000037 	andcs	r0, r0, #55	; 0x37
    3738:	74025001 	strvc	r5, [r2], #-1
    373c:	90250000 	eorls	r0, r5, r0
    3740:	57000029 	strpl	r0, [r0, -r9, lsr #32]
    3744:	5200004d 	andpl	r0, r0, #77	; 0x4d
    3748:	22000037 	andcs	r0, r0, #55	; 0x37
    374c:	74025001 	strvc	r5, [r2], #-1
    3750:	b0250000 	eorlt	r0, r5, r0
    3754:	57000029 	strpl	r0, [r0, -r9, lsr #32]
    3758:	6600004d 	strvs	r0, [r0], -sp, asr #32
    375c:	22000037 	andcs	r0, r0, #55	; 0x37
    3760:	74025001 	strvc	r5, [r2], #-1
    3764:	c0250000 	eorgt	r0, r5, r0
    3768:	57000029 	strpl	r0, [r0, -r9, lsr #32]
    376c:	7a00004d 	bvc	38a8 <bcm2835_i2c_read_register_rs>
    3770:	22000037 	andcs	r0, r0, #55	; 0x37
    3774:	74025001 	strvc	r5, [r2], #-1
    3778:	f2360000 	vhadd.s<illegal width 64>	d0, d6, d0
    377c:	7b000029 	blvc	3828 <bcm2835_gpio_set_pud+0x94>
    3780:	2200004c 	andcs	r0, r0, #76	; 0x4c
    3784:	30015101 	andcc	r5, r1, r1, lsl #2
    3788:	02520122 	subseq	r0, r2, #-2147483640	; 0x80000008
    378c:	00008008 	andeq	r8, r0, r8
    3790:	00138b2c 	andseq	r8, r3, ip, lsr #22
    3794:	03210100 			; <UNDEFINED> instruction: 0x03210100
    3798:	000027e4 	andeq	r2, r0, r4, ror #15
    379c:	00000138 	andeq	r0, r0, r8, lsr r1
    37a0:	39629c01 	stmdbcc	r2!, {r0, sl, fp, ip, pc}^
    37a4:	7c2b0000 	stcvc	0, cr0, [fp], #-0
    37a8:	01000011 	tsteq	r0, r1, lsl r0
    37ac:	00e00321 	rsceq	r0, r0, r1, lsr #6
    37b0:	26500000 	ldrbcs	r0, [r0], -r0
    37b4:	eb2b0000 	bl	ac37bc <__bss_end__+0xaae750>
    37b8:	0100000c 	tsteq	r0, ip
    37bc:	00e00321 	rsceq	r0, r0, r1, lsr #6
    37c0:	267b0000 	ldrbtcs	r0, [fp], -r0
    37c4:	6c370000 	ldcvs	0, cr0, [r7], #-0
    37c8:	01006e65 	tsteq	r0, r5, ror #28
    37cc:	04070321 	streq	r0, [r7], #-801	; 0xfffffcdf
    37d0:	26a60000 	strtcs	r0, [r6], r0
    37d4:	e51a0000 	ldr	r0, [sl, #-0]
    37d8:	0100000f 	tsteq	r0, pc
    37dc:	04580323 	ldrbeq	r0, [r8], #-803	; 0xfffffcdd
    37e0:	26d20000 	ldrbcs	r0, [r2], r0
    37e4:	4a1a0000 	bmi	6837ec <__bss_end__+0x66e780>
    37e8:	01000004 	tsteq	r0, r4
    37ec:	04580324 	ldrbeq	r0, [r8], #-804	; 0xfffffcdc
    37f0:	27000000 	strcs	r0, [r0, -r0]
    37f4:	e71a0000 	ldr	r0, [sl, -r0]
    37f8:	01000004 	tsteq	r0, r4
    37fc:	04070325 	streq	r0, [r7], #-805	; 0xfffffcdb
    3800:	27370000 	ldrcs	r0, [r7, -r0]!
    3804:	491a0000 	ldmdbmi	sl, {}	; <UNPREDICTABLE>
    3808:	0100000a 	tsteq	r0, sl
    380c:	04070326 	streq	r0, [r7], #-806	; 0xfffffcda
    3810:	276c0000 	strbcs	r0, [ip, -r0]!
    3814:	dd230000 	stcle	0, cr0, [r3, #-0]
    3818:	fe00004d 	cdp2	0, 0, cr0, cr0, cr13, {2}
    381c:	68000027 	stmdavs	r0, {r0, r1, r2, r5}
    3820:	01000001 	tsteq	r0, r1
    3824:	38340339 	ldmdacc	r4!, {r0, r3, r4, r5, r8, r9}
    3828:	ed200000 	stc	0, cr0, [r0, #-0]
    382c:	b700004d 	strlt	r0, [r0, -sp, asr #32]
    3830:	00000027 	andeq	r0, r0, r7, lsr #32
    3834:	004d3b23 	subeq	r3, sp, r3, lsr #22
    3838:	00280a00 	eoreq	r0, r8, r0, lsl #20
    383c:	0001a800 	andeq	sl, r1, r0, lsl #16
    3840:	033f0100 	teqeq	pc, #0, 2
    3844:	0000385f 	andeq	r3, r0, pc, asr r8
    3848:	004d4b38 	subeq	r4, sp, r8, lsr fp
    384c:	28cc2100 	stmiacs	ip, {r8, sp}^
    3850:	4ea60000 	cdpmi	0, 10, cr0, cr6, cr0, {0}
    3854:	01220000 			; <UNDEFINED> instruction: 0x01220000
    3858:	007d0350 	rsbseq	r0, sp, r0, asr r3
    385c:	23000006 	movwcs	r0, #6
    3860:	00004cf5 	strdeq	r4, [r0], -r5
    3864:	00002822 	andeq	r2, r0, r2, lsr #16
    3868:	000001d0 	ldrdeq	r0, [r0], -r0	; <UNPREDICTABLE>
    386c:	93033901 	movwls	r3, #14593	; 0x3901
    3870:	20000038 	andcs	r0, r0, r8, lsr r0
    3874:	00004d0c 	andeq	r4, r0, ip, lsl #26
    3878:	000027e2 	andeq	r2, r0, r2, ror #15
    387c:	004d0138 	subeq	r0, sp, r8, lsr r1
    3880:	28782100 	ldmdacs	r8!, {r8, sp}^
    3884:	4ef20000 	cdpmi	0, 15, cr0, cr2, cr0, {0}
    3888:	01220000 			; <UNDEFINED> instruction: 0x01220000
    388c:	007d0350 	rsbseq	r0, sp, r0, asr r3
    3890:	23000006 	movwcs	r0, #6
    3894:	00004ddd 	ldrdeq	r4, [r0], -sp
    3898:	00002884 	andeq	r2, r0, r4, lsl #17
    389c:	000001f8 	strdeq	r0, [r0], -r8
    38a0:	b1033f01 	tstlt	r3, r1, lsl #30
    38a4:	20000038 	andcs	r0, r0, r8, lsr r0
    38a8:	00004ded 	andeq	r4, r0, sp, ror #27
    38ac:	00002800 	andeq	r2, r0, r0, lsl #16
    38b0:	4d3b2300 	ldcmi	3, cr2, [fp, #-0]
    38b4:	28ce0000 	stmiacs	lr, {}^	; <UNPREDICTABLE>
    38b8:	02180000 	andseq	r0, r8, #0
    38bc:	44010000 	strmi	r0, [r1], #-0
    38c0:	0038db03 	eorseq	sp, r8, r3, lsl #22
    38c4:	4d4b3800 	stclmi	8, cr3, [fp, #-0]
    38c8:	e6210000 	strt	r0, [r1], -r0
    38cc:	a6000028 	strge	r0, [r0], -r8, lsr #32
    38d0:	2200004e 	andcs	r0, r0, #78	; 0x4e
    38d4:	74025001 	strvc	r5, [r2], #-1
    38d8:	25000000 	strcs	r0, [r0, #-0]
    38dc:	00002814 	andeq	r2, r0, r4, lsl r8
    38e0:	00004c7b 	andeq	r4, r0, fp, ror ip
    38e4:	000038fb 	strdeq	r3, [r0], -fp
    38e8:	02500122 	subseq	r0, r0, #-2147483640	; 0x80000008
    38ec:	01220074 			; <UNDEFINED> instruction: 0x01220074
    38f0:	30080251 	andcc	r0, r8, r1, asr r2
    38f4:	02520122 	subseq	r0, r2, #-2147483640	; 0x80000008
    38f8:	25003008 	strcs	r3, [r0, #-8]
    38fc:	00002820 	andeq	r2, r0, r0, lsr #16
    3900:	00004c7b 	andeq	r4, r0, fp, ror ip
    3904:	0000391b 	andeq	r3, r0, fp, lsl r9
    3908:	02500122 	subseq	r0, r0, #-2147483640	; 0x80000008
    390c:	01220074 			; <UNDEFINED> instruction: 0x01220074
    3910:	80080251 	andhi	r0, r8, r1, asr r2
    3914:	02520122 	subseq	r0, r2, #-2147483640	; 0x80000008
    3918:	25008008 	strcs	r8, [r0, #-8]
    391c:	0000284e 	andeq	r2, r0, lr, asr #16
    3920:	00004d57 	andeq	r4, r0, r7, asr sp
    3924:	0000392f 	andeq	r3, r0, pc, lsr #18
    3928:	02500122 	subseq	r0, r0, #-2147483640	; 0x80000008
    392c:	25000074 	strcs	r0, [r0, #-116]	; 0xffffff8c
    3930:	000028b0 			; <UNDEFINED> instruction: 0x000028b0
    3934:	00004d57 	andeq	r4, r0, r7, asr sp
    3938:	00003943 	andeq	r3, r0, r3, asr #18
    393c:	02500122 	subseq	r0, r0, #-2147483640	; 0x80000008
    3940:	36000074 			; <UNDEFINED> instruction: 0x36000074
    3944:	000028fa 	strdeq	r2, [r0], -sl
    3948:	00004c7b 	andeq	r4, r0, fp, ror ip
    394c:	05500122 	ldrbeq	r0, [r0, #-290]	; 0xfffffede
    3950:	3406407d 	strcc	r4, [r6], #-125	; 0xffffff83
    3954:	5101221c 	tstpl	r1, ip, lsl r2
    3958:	01223001 			; <UNDEFINED> instruction: 0x01223001
    395c:	80080252 	andhi	r0, r8, r2, asr r2
    3960:	e5190000 	ldr	r0, [r9, #-0]
    3964:	01000001 	tsteq	r0, r1
    3968:	03f102fc 	mvnseq	r0, #252, 4	; 0xc000000f
    396c:	27300000 	ldrcs	r0, [r0, -r0]!
    3970:	00b40000 	adcseq	r0, r4, r0
    3974:	9c010000 	stcls	0, cr0, [r1], {-0}
    3978:	00003af7 	strdeq	r3, [r0], -r7
    397c:	0005ef2b 	andeq	lr, r5, fp, lsr #30
    3980:	02fc0100 	rscseq	r0, ip, #0, 2
    3984:	000003f1 	strdeq	r0, [r0], -r1
    3988:	00002813 	andeq	r2, r0, r3, lsl r8
    398c:	000fe51a 	andeq	lr, pc, sl, lsl r5	; <UNPREDICTABLE>
    3990:	02fe0100 	rscseq	r0, lr, #0, 2
    3994:	00000458 	andeq	r0, r0, r8, asr r4
    3998:	00002834 	andeq	r2, r0, r4, lsr r8
    399c:	00044a17 	andeq	r4, r4, r7, lsl sl
    39a0:	02ff0100 	rscseq	r0, pc, #0, 2
    39a4:	00000458 	andeq	r0, r0, r8, asr r4
    39a8:	721b5701 	andsvc	r5, fp, #262144	; 0x40000
    39ac:	01007465 	tsteq	r0, r5, ror #8
    39b0:	04070300 	streq	r0, [r7], #-768	; 0xfffffd00
    39b4:	285d0000 	ldmdacs	sp, {}^	; <UNPREDICTABLE>
    39b8:	dd1f0000 	ldcle	0, cr0, [pc, #-0]	; 39c0 <bcm2835_i2c_read_register_rs+0x118>
    39bc:	5a00004d 	bpl	3af8 <bcm2835_i2c_write_read_rs+0x120>
    39c0:	10000027 	andne	r0, r0, r7, lsr #32
    39c4:	01000000 	mrseq	r0, (UNDEF: 0)
    39c8:	39d80311 	ldmibcc	r8, {r0, r4, r8, r9}^
    39cc:	ed200000 	stc	0, cr0, [r0, #-0]
    39d0:	7500004d 	strvc	r0, [r0, #-77]	; 0xffffffb3
    39d4:	00000028 	andeq	r0, r0, r8, lsr #32
    39d8:	004cf523 	subeq	pc, ip, r3, lsr #10
    39dc:	00276a00 	eoreq	r6, r7, r0, lsl #20
    39e0:	00010800 	andeq	r0, r1, r0, lsl #16
    39e4:	03110100 	tsteq	r1, #0, 2
    39e8:	00003a0d 	andeq	r3, r0, sp, lsl #20
    39ec:	004d0c20 	subeq	r0, sp, r0, lsr #24
    39f0:	00288800 	eoreq	r8, r8, r0, lsl #16
    39f4:	4d013d00 	stcmi	13, cr3, [r1, #-0]
    39f8:	57010000 	strpl	r0, [r1, -r0]
    39fc:	0027a821 	eoreq	sl, r7, r1, lsr #16
    3a00:	004ef200 	subeq	pc, lr, r0, lsl #4
    3a04:	50012200 	andpl	r2, r1, r0, lsl #4
    3a08:	00007702 	andeq	r7, r0, r2, lsl #14
    3a0c:	4d3b2300 	ldcmi	3, cr2, [fp, #-0]
    3a10:	27740000 	ldrbcs	r0, [r4, -r0]!
    3a14:	01200000 			; <UNDEFINED> instruction: 0x01200000
    3a18:	14010000 	strne	r0, [r1], #-0
    3a1c:	003a3b03 	eorseq	r3, sl, r3, lsl #22
    3a20:	4d4b2000 	stclmi	0, cr2, [fp, #-0]
    3a24:	28b10000 	ldmcs	r1!, {}	; <UNPREDICTABLE>
    3a28:	b6210000 	strtlt	r0, [r1], -r0
    3a2c:	a6000027 	strge	r0, [r0], -r7, lsr #32
    3a30:	2200004e 	andcs	r0, r0, #78	; 0x4e
    3a34:	74025001 	strvc	r5, [r2], #-1
    3a38:	23000000 	movwcs	r0, #0
    3a3c:	00004d3b 	andeq	r4, r0, fp, lsr sp
    3a40:	0000277a 	andeq	r2, r0, sl, ror r7
    3a44:	00000138 	andeq	r0, r0, r8, lsr r1
    3a48:	69031801 	stmdbvs	r3, {r0, fp, ip}
    3a4c:	2000003a 	andcs	r0, r0, sl, lsr r0
    3a50:	00004d4b 	andeq	r4, r0, fp, asr #26
    3a54:	000028c4 	andeq	r2, r0, r4, asr #17
    3a58:	0027c621 	eoreq	ip, r7, r1, lsr #12
    3a5c:	004ea600 	subeq	sl, lr, r0, lsl #12
    3a60:	50012200 	andpl	r2, r1, r0, lsl #4
    3a64:	00007702 	andeq	r7, r0, r2, lsl #14
    3a68:	4ddd2300 	ldclmi	3, cr2, [sp]
    3a6c:	277c0000 	ldrbcs	r0, [ip, -r0]!
    3a70:	01500000 	cmpeq	r0, r0
    3a74:	18010000 	stmdane	r1, {}	; <UNPREDICTABLE>
    3a78:	003a8703 	eorseq	r8, sl, r3, lsl #14
    3a7c:	4ded2000 	stclmi	0, cr2, [sp]
    3a80:	28e20000 	stmiacs	r2!, {}^	; <UNPREDICTABLE>
    3a84:	25000000 	strcs	r0, [r0, #-0]
    3a88:	00002746 	andeq	r2, r0, r6, asr #14
    3a8c:	00004c7b 	andeq	r4, r0, fp, ror ip
    3a90:	00003aa7 	andeq	r3, r0, r7, lsr #21
    3a94:	02500122 	subseq	r0, r0, #-2147483640	; 0x80000008
    3a98:	01220074 			; <UNDEFINED> instruction: 0x01220074
    3a9c:	30080251 	andcc	r0, r8, r1, asr r2
    3aa0:	02520122 	subseq	r0, r2, #-2147483640	; 0x80000008
    3aa4:	25003008 	strcs	r3, [r0, #-8]
    3aa8:	00002750 	andeq	r2, r0, r0, asr r7
    3aac:	00004c7b 	andeq	r4, r0, fp, ror ip
    3ab0:	00003ac7 	andeq	r3, r0, r7, asr #21
    3ab4:	02500122 	subseq	r0, r0, #-2147483640	; 0x80000008
    3ab8:	01220074 			; <UNDEFINED> instruction: 0x01220074
    3abc:	80080251 	andhi	r0, r8, r1, asr r2
    3ac0:	02520122 	subseq	r0, r2, #-2147483640	; 0x80000008
    3ac4:	25008008 	strcs	r8, [r0, #-8]
    3ac8:	00002756 	andeq	r2, r0, r6, asr r7
    3acc:	00004d57 	andeq	r4, r0, r7, asr sp
    3ad0:	00003adb 	ldrdeq	r3, [r0], -fp
    3ad4:	02500122 	subseq	r0, r0, #-2147483640	; 0x80000008
    3ad8:	21000074 	tstcs	r0, r4, ror r0
    3adc:	0000279a 	muleq	r0, sl, r7
    3ae0:	00004c7b 	andeq	r4, r0, fp, ror ip
    3ae4:	02500122 	subseq	r0, r0, #-2147483640	; 0x80000008
    3ae8:	01220074 			; <UNDEFINED> instruction: 0x01220074
    3aec:	22300151 	eorscs	r0, r0, #1073741844	; 0x40000014
    3af0:	08025201 	stmdaeq	r2, {r0, r9, ip, lr}
    3af4:	2c000080 	stccs	0, cr0, [r0], {128}	; 0x80
    3af8:	00000da1 	andeq	r0, r0, r1, lsr #27
    3afc:	1c02f401 	cfstrsne	mvf15, [r2], {1}
    3b00:	14000027 	strne	r0, [r0], #-39	; 0xffffffd9
    3b04:	01000000 	mrseq	r0, (UNDEF: 0)
    3b08:	003b3d9c 	mlaseq	fp, ip, sp, r3
    3b0c:	162f2b00 	strtne	r2, [pc], -r0, lsl #22
    3b10:	f4010000 	vst4.8	{d0-d3}, [r1], r0
    3b14:	0003f102 	andeq	pc, r3, r2, lsl #2
    3b18:	0028f500 	eoreq	pc, r8, r0, lsl #10
    3b1c:	0fe51a00 	svceq	0x00e51a00
    3b20:	f6010000 			; <UNDEFINED> instruction: 0xf6010000
    3b24:	00045802 	andeq	r5, r4, r2, lsl #16
    3b28:	00291600 	eoreq	r1, r9, r0, lsl #12
    3b2c:	272a3600 	strcs	r3, [sl, -r0, lsl #12]!
    3b30:	4c7b0000 	ldclmi	0, cr0, [fp], #-0
    3b34:	01220000 			; <UNDEFINED> instruction: 0x01220000
    3b38:	003c0152 	eorseq	r0, ip, r2, asr r1
    3b3c:	0d013900 	vstreq.16	s6, [r1, #-0]	; <UNPREDICTABLE>
    3b40:	ed010000 	stc	0, cr0, [r1, #-0]
    3b44:	0026f002 	eoreq	pc, r6, r2
    3b48:	00002c00 	andeq	r2, r0, r0, lsl #24
    3b4c:	a29c0100 	addsge	r0, ip, #0, 2
    3b50:	2b00003b 	blcs	3c44 <bcm2835_pwm_set_clock+0xb4>
    3b54:	00000d11 	andeq	r0, r0, r1, lsl sp
    3b58:	0702ed01 	streq	lr, [r2, -r1, lsl #26]
    3b5c:	2d000004 	stccs	0, cr0, [r0, #-16]
    3b60:	1a000029 	bne	3c0c <bcm2835_pwm_set_clock+0x7c>
    3b64:	000006e8 	andeq	r0, r0, r8, ror #13
    3b68:	fc02ef01 	stc2	15, cr14, [r2], {1}
    3b6c:	59000003 	stmdbpl	r0, {r0, r1}
    3b70:	2e000029 	cdpcs	0, 0, cr0, cr0, cr9, {1}
    3b74:	00003ba2 	andeq	r3, r0, r2, lsr #23
    3b78:	00002700 	andeq	r2, r0, r0, lsl #14
    3b7c:	000000f0 	strdeq	r0, [r0], -r0	; <UNPREDICTABLE>
    3b80:	2002f101 	andcs	pc, r2, r1, lsl #2
    3b84:	00003baf 	andeq	r3, r0, pc, lsr #23
    3b88:	00002959 	andeq	r2, r0, r9, asr r9
    3b8c:	0000f02f 	andeq	pc, r0, pc, lsr #32
    3b90:	53743000 	cmnpl	r4, #0
    3b94:	182d0000 	stmdane	sp!, {}	; <UNPREDICTABLE>
    3b98:	18000027 	stmdane	r0, {r0, r1, r2, r5}
    3b9c:	0000004d 	andeq	r0, r0, sp, asr #32
    3ba0:	9f310000 	svcls	0x00310000
    3ba4:	0100000c 	tsteq	r0, ip
    3ba8:	c80102e7 	stmdagt	r1, {r0, r1, r2, r5, r6, r7, r9}
    3bac:	2700003b 	smladxcs	r0, fp, r0, r0
    3bb0:	000006e8 	andeq	r0, r0, r8, ror #13
    3bb4:	fc02e701 	stc2	7, cr14, [r2], {1}
    3bb8:	32000003 	andcc	r0, r0, #3
    3bbc:	00000fe5 	andeq	r0, r0, r5, ror #31
    3bc0:	5802e901 	stmdapl	r2, {r0, r8, fp, sp, lr, pc}
    3bc4:	00000004 	andeq	r0, r0, r4
    3bc8:	0008d92c 	andeq	sp, r8, ip, lsr #18
    3bcc:	02dd0100 	sbcseq	r0, sp, #0, 2
    3bd0:	000026cc 	andeq	r2, r0, ip, asr #13
    3bd4:	00000010 	andeq	r0, r0, r0, lsl r0
    3bd8:	3bed9c01 	blcc	ffb6abe4 <__bss_end__+0xffb55b78>
    3bdc:	153e0000 	ldrne	r0, [lr, #-0]!
    3be0:	0100000c 	tsteq	r0, ip
    3be4:	03f102dd 	mvnseq	r0, #-805306355	; 0xd000000d
    3be8:	50010000 	andpl	r0, r1, r0
    3bec:	14bf2c00 	ldrtne	r2, [pc], #3072	; 3bf4 <bcm2835_pwm_set_clock+0x64>
    3bf0:	d3010000 	movwle	r0, #4096	; 0x1000
    3bf4:	00268002 	eoreq	r8, r6, r2
    3bf8:	00004c00 	andeq	r4, r0, r0, lsl #24
    3bfc:	ba9c0100 	blt	fe704004 <__bss_end__+0xfe6eef98>
    3c00:	1f00003d 	svcne	0x0000003d
    3c04:	00004c25 	andeq	r4, r0, r5, lsr #24
    3c08:	00002682 	andeq	r2, r0, r2, lsl #13
    3c0c:	00000010 	andeq	r0, r0, r0, lsl r0
    3c10:	5e02d601 	cfmadd32pl	mvax0, mvfx13, mvfx2, mvfx1
    3c14:	2000003c 	andcs	r0, r0, ip, lsr r0
    3c18:	00004c3e 	andeq	r4, r0, lr, lsr ip
    3c1c:	00002971 	andeq	r2, r0, r1, ror r9
    3c20:	004c3220 	subeq	r3, ip, r0, lsr #4
    3c24:	00298500 	eoreq	r8, r9, r0, lsl #10
    3c28:	26823400 	strcs	r3, [r2], r0, lsl #8
    3c2c:	00100000 	andseq	r0, r0, r0
    3c30:	4f300000 	svcmi	0x00300000
    3c34:	30000052 	andcc	r0, r0, r2, asr r0
    3c38:	00005258 	andeq	r5, r0, r8, asr r2
    3c3c:	00526130 	subseq	r6, r2, r0, lsr r1
    3c40:	526a3000 	rsbpl	r3, sl, #0
    3c44:	92210000 	eorls	r0, r1, #0
    3c48:	7b000026 	blvc	3ce8 <bcm2835_pwm_set_range+0x1c>
    3c4c:	2200004c 	andcs	r0, r0, #76	; 0x4c
    3c50:	30015101 	andcc	r5, r1, r1, lsl #2
    3c54:	03520122 	cmpeq	r2, #-2147483640	; 0x80000008
    3c58:	0024434c 	eoreq	r4, r4, ip, asr #6
    3c5c:	251f0000 	ldrcs	r0, [pc, #-0]	; 3c64 <bcm2835_pwm_set_mode+0x1c>
    3c60:	9200004c 	andls	r0, r0, #76	; 0x4c
    3c64:	0c000026 	stceq	0, cr0, [r0], {38}	; 0x26
    3c68:	01000000 	mrseq	r0, (UNDEF: 0)
    3c6c:	3cb902d7 	lfmcc	f0, 4, [r9], #860	; 0x35c
    3c70:	3e200000 	cdpcc	0, 2, cr0, cr0, cr0, {0}
    3c74:	9900004c 	stmdbls	r0, {r2, r3, r6}
    3c78:	20000029 	andcs	r0, r0, r9, lsr #32
    3c7c:	00004c32 	andeq	r4, r0, r2, lsr ip
    3c80:	000029ad 	andeq	r2, r0, sp, lsr #19
    3c84:	00269234 	eoreq	r9, r6, r4, lsr r2
    3c88:	00000c00 	andeq	r0, r0, r0, lsl #24
    3c8c:	524f3000 	subpl	r3, pc, #0
    3c90:	58300000 	ldmdapl	r0!, {}	; <UNPREDICTABLE>
    3c94:	30000052 	andcc	r0, r0, r2, asr r0
    3c98:	00005261 	andeq	r5, r0, r1, ror #4
    3c9c:	00526a30 	subseq	r6, r2, r0, lsr sl
    3ca0:	269e2100 	ldrcs	r2, [lr], r0, lsl #2
    3ca4:	4c7b0000 	ldclmi	0, cr0, [fp], #-0
    3ca8:	01220000 			; <UNDEFINED> instruction: 0x01220000
    3cac:	22300151 	eorscs	r0, r0, #1073741844	; 0x40000014
    3cb0:	4c035201 	sfmmi	f5, 4, [r3], {1}
    3cb4:	00002446 	andeq	r2, r0, r6, asr #8
    3cb8:	4c251f00 	stcmi	15, cr1, [r5], #-0
    3cbc:	269e0000 	ldrcs	r0, [lr], r0
    3cc0:	000c0000 	andeq	r0, ip, r0
    3cc4:	d8010000 	stmdale	r1, {}	; <UNPREDICTABLE>
    3cc8:	003d1402 	eorseq	r1, sp, r2, lsl #8
    3ccc:	4c3e2000 	ldcmi	0, cr2, [lr], #-0
    3cd0:	29c10000 	stmibcs	r1, {}^	; <UNPREDICTABLE>
    3cd4:	32200000 	eorcc	r0, r0, #0
    3cd8:	d500004c 	strle	r0, [r0, #-76]	; 0xffffffb4
    3cdc:	34000029 	strcc	r0, [r0], #-41	; 0xffffffd7
    3ce0:	0000269e 	muleq	r0, lr, r6
    3ce4:	0000000c 	andeq	r0, r0, ip
    3ce8:	00524f30 	subseq	r4, r2, r0, lsr pc
    3cec:	52583000 	subspl	r3, r8, #0
    3cf0:	61300000 	teqvs	r0, r0
    3cf4:	30000052 	andcc	r0, r0, r2, asr r0
    3cf8:	0000526a 	andeq	r5, r0, sl, ror #4
    3cfc:	0026aa21 	eoreq	sl, r6, r1, lsr #20
    3d00:	004c7b00 	subeq	r7, ip, r0, lsl #22
    3d04:	51012200 	mrspl	r2, R9_usr
    3d08:	01223001 			; <UNDEFINED> instruction: 0x01223001
    3d0c:	494c0352 	stmdbmi	ip, {r1, r4, r6, r8, r9}^
    3d10:	00000024 	andeq	r0, r0, r4, lsr #32
    3d14:	004c251f 	subeq	r2, ip, pc, lsl r5
    3d18:	0026aa00 	eoreq	sl, r6, r0, lsl #20
    3d1c:	00000c00 	andeq	r0, r0, r0, lsl #24
    3d20:	02d90100 	sbcseq	r0, r9, #0, 2
    3d24:	00003d6d 	andeq	r3, r0, sp, ror #26
    3d28:	004c3e20 	subeq	r3, ip, r0, lsr #28
    3d2c:	0029e900 	eoreq	lr, r9, r0, lsl #18
    3d30:	4c322000 	ldcmi	0, cr2, [r2], #-0
    3d34:	29fd0000 	ldmibcs	sp!, {}^	; <UNPREDICTABLE>
    3d38:	aa340000 	bge	d03d40 <__bss_end__+0xceecd4>
    3d3c:	0c000026 	stceq	0, cr0, [r0], {38}	; 0x26
    3d40:	30000000 	andcc	r0, r0, r0
    3d44:	0000524f 	andeq	r5, r0, pc, asr #4
    3d48:	00525830 	subseq	r5, r2, r0, lsr r8
    3d4c:	52613000 	rsbpl	r3, r1, #0
    3d50:	6a300000 	bvs	c03d58 <__bss_end__+0xbeecec>
    3d54:	21000052 	qaddcs	r0, r2, r0
    3d58:	000026b6 			; <UNDEFINED> instruction: 0x000026b6
    3d5c:	00004c7b 	andeq	r4, r0, fp, ror ip
    3d60:	01510122 	cmpeq	r1, r2, lsr #2
    3d64:	52012230 	andpl	r2, r1, #48, 4
    3d68:	00003701 	andeq	r3, r0, r1, lsl #14
    3d6c:	4c252e00 	stcmi	14, cr2, [r5], #-0
    3d70:	26b60000 	ldrtcs	r0, [r6], r0
    3d74:	00d80000 	sbcseq	r0, r8, r0
    3d78:	da010000 	ble	43d80 <__bss_end__+0x2ed14>
    3d7c:	4c3e3502 	cfldr32mi	mvfx3, [lr], #-8
    3d80:	35000000 	strcc	r0, [r0, #-0]
    3d84:	00004c32 	andeq	r4, r0, r2, lsr ip
    3d88:	00d82f0b 	sbcseq	r2, r8, fp, lsl #30
    3d8c:	4f300000 	svcmi	0x00300000
    3d90:	30000052 	andcc	r0, r0, r2, asr r0
    3d94:	00005258 	andeq	r5, r0, r8, asr r2
    3d98:	00526130 	subseq	r6, r2, r0, lsr r1
    3d9c:	526a3000 	rsbpl	r3, sl, #0
    3da0:	c6360000 	ldrtgt	r0, [r6], -r0
    3da4:	7b000026 	blvc	3e44 <bcm2835_init+0x74>
    3da8:	2200004c 	andcs	r0, r0, #76	; 0x4c
    3dac:	30015101 	andcc	r5, r1, r1, lsl #2
    3db0:	02520122 	subseq	r0, r2, #-2147483640	; 0x80000008
    3db4:	00003808 	andeq	r3, r0, r8, lsl #16
    3db8:	b1190000 	tstlt	r9, r0
    3dbc:	01000012 	tsteq	r0, r2, lsl r0
    3dc0:	004502bb 	strheq	r0, [r5], #-43	; 0xffffffd5
    3dc4:	26000000 	strcs	r0, [r0], -r0
    3dc8:	00800000 	addeq	r0, r0, r0
    3dcc:	9c010000 	stcls	0, cr0, [r1], {-0}
    3dd0:	00004002 	andeq	r4, r0, r2
    3dd4:	000fe51a 	andeq	lr, pc, sl, lsl r5	; <UNPREDICTABLE>
    3dd8:	02bd0100 	adcseq	r0, sp, #0, 2
    3ddc:	00000458 	andeq	r0, r0, r8, asr r4
    3de0:	00002a11 	andeq	r2, r0, r1, lsl sl
    3de4:	004c251f 	subeq	r2, ip, pc, lsl r5
    3de8:	00261000 	eoreq	r1, r6, r0
    3dec:	00000e00 	andeq	r0, r0, r0, lsl #28
    3df0:	02c30100 	sbceq	r0, r3, #0, 2
    3df4:	00003e41 	andeq	r3, r0, r1, asr #28
    3df8:	004c3e20 	subeq	r3, ip, r0, lsr #28
    3dfc:	002a2f00 	eoreq	r2, sl, r0, lsl #30
    3e00:	4c322000 	ldcmi	0, cr2, [r2], #-0
    3e04:	2a430000 	bcs	10c3e0c <__bss_end__+0x10aeda0>
    3e08:	10340000 	eorsne	r0, r4, r0
    3e0c:	0e000026 	cdpeq	0, 0, cr0, cr0, cr6, {1}
    3e10:	30000000 	andcc	r0, r0, r0
    3e14:	0000524f 	andeq	r5, r0, pc, asr #4
    3e18:	00525830 	subseq	r5, r2, r0, lsr r8
    3e1c:	52613000 	rsbpl	r3, r1, #0
    3e20:	6a300000 	bvs	c03e28 <__bss_end__+0xbeedbc>
    3e24:	21000052 	qaddcs	r0, r2, r0
    3e28:	0000261e 	andeq	r2, r0, lr, lsl r6
    3e2c:	00004c7b 	andeq	r4, r0, fp, ror ip
    3e30:	03510122 	cmpeq	r1, #-2147483640	; 0x80000008
    3e34:	22244340 	eorcs	r4, r4, #64, 6
    3e38:	4c035201 	sfmmi	f5, 4, [r3], {1}
    3e3c:	00002443 	andeq	r2, r0, r3, asr #8
    3e40:	4c251f00 	stcmi	15, cr1, [r5], #-0
    3e44:	261e0000 	ldrcs	r0, [lr], -r0
    3e48:	000e0000 	andeq	r0, lr, r0
    3e4c:	c4010000 	strgt	r0, [r1], #-0
    3e50:	003e9e02 	eorseq	r9, lr, r2, lsl #28
    3e54:	4c3e2000 	ldcmi	0, cr2, [lr], #-0
    3e58:	2a570000 	bcs	15c3e60 <__bss_end__+0x15aedf4>
    3e5c:	32200000 	eorcc	r0, r0, #0
    3e60:	6b00004c 	blvs	3f98 <bcm2835_init+0x1c8>
    3e64:	3400002a 	strcc	r0, [r0], #-42	; 0xffffffd6
    3e68:	0000261e 	andeq	r2, r0, lr, lsl r6
    3e6c:	0000000e 	andeq	r0, r0, lr
    3e70:	00524f30 	subseq	r4, r2, r0, lsr pc
    3e74:	52583000 	subspl	r3, r8, #0
    3e78:	61300000 	teqvs	r0, r0
    3e7c:	30000052 	andcc	r0, r0, r2, asr r0
    3e80:	0000526a 	andeq	r5, r0, sl, ror #4
    3e84:	00262c21 	eoreq	r2, r6, r1, lsr #24
    3e88:	004c7b00 	subeq	r7, ip, r0, lsl #22
    3e8c:	51012200 	mrspl	r2, R9_usr
    3e90:	24464003 	strbcs	r4, [r6], #-3
    3e94:	03520122 	cmpeq	r2, #-2147483640	; 0x80000008
    3e98:	0024464c 	eoreq	r4, r4, ip, asr #12
    3e9c:	251f0000 	ldrcs	r0, [pc, #-0]	; 3ea4 <bcm2835_init+0xd4>
    3ea0:	2c00004c 	stccs	0, cr0, [r0], {76}	; 0x4c
    3ea4:	0e000026 	cdpeq	0, 0, cr0, cr0, cr6, {1}
    3ea8:	01000000 	mrseq	r0, (UNDEF: 0)
    3eac:	3efb02c5 	cdpcc	2, 15, cr0, cr11, cr5, {6}
    3eb0:	3e200000 	cdpcc	0, 2, cr0, cr0, cr0, {0}
    3eb4:	7f00004c 	svcvc	0x0000004c
    3eb8:	2000002a 	andcs	r0, r0, sl, lsr #32
    3ebc:	00004c32 	andeq	r4, r0, r2, lsr ip
    3ec0:	00002a93 	muleq	r0, r3, sl
    3ec4:	00262c34 	eoreq	r2, r6, r4, lsr ip
    3ec8:	00000e00 	andeq	r0, r0, r0, lsl #28
    3ecc:	524f3000 	subpl	r3, pc, #0
    3ed0:	58300000 	ldmdapl	r0!, {}	; <UNPREDICTABLE>
    3ed4:	30000052 	andcc	r0, r0, r2, asr r0
    3ed8:	00005261 	andeq	r5, r0, r1, ror #4
    3edc:	00526a30 	subseq	r6, r2, r0, lsr sl
    3ee0:	263a2100 	ldrtcs	r2, [sl], -r0, lsl #2
    3ee4:	4c7b0000 	ldclmi	0, cr0, [fp], #-0
    3ee8:	01220000 			; <UNDEFINED> instruction: 0x01220000
    3eec:	49400351 	stmdbmi	r0, {r0, r4, r6, r8, r9}^
    3ef0:	52012224 	andpl	r2, r1, #36, 4	; 0x40000002
    3ef4:	24494c03 	strbcs	r4, [r9], #-3075	; 0xfffff3fd
    3ef8:	1f000000 	svcne	0x00000000
    3efc:	00004c25 	andeq	r4, r0, r5, lsr #24
    3f00:	0000263a 	andeq	r2, r0, sl, lsr r6
    3f04:	0000000c 	andeq	r0, r0, ip
    3f08:	5402c601 	strpl	ip, [r2], #-1537	; 0xfffff9ff
    3f0c:	2000003f 	andcs	r0, r0, pc, lsr r0
    3f10:	00004c3e 	andeq	r4, r0, lr, lsr ip
    3f14:	00002aa7 	andeq	r2, r0, r7, lsr #21
    3f18:	004c3220 	subeq	r3, ip, r0, lsr #4
    3f1c:	002abb00 	eoreq	fp, sl, r0, lsl #22
    3f20:	263a3400 	ldrtcs	r3, [sl], -r0, lsl #8
    3f24:	000c0000 	andeq	r0, ip, r0
    3f28:	4f300000 	svcmi	0x00300000
    3f2c:	30000052 	andcc	r0, r0, r2, asr r0
    3f30:	00005258 	andeq	r5, r0, r8, asr r2
    3f34:	00526130 	subseq	r6, r2, r0, lsr r1
    3f38:	526a3000 	rsbpl	r3, sl, #0
    3f3c:	46210000 	strtmi	r0, [r1], -r0
    3f40:	7b000026 	blvc	3fe0 <bcm2835_init+0x210>
    3f44:	2200004c 	andcs	r0, r0, #76	; 0x4c
    3f48:	34015101 	strcc	r5, [r1], #-257	; 0xfffffeff
    3f4c:	01520122 	cmpeq	r2, r2, lsr #2
    3f50:	00000037 	andeq	r0, r0, r7, lsr r0
    3f54:	004c251f 	subeq	r2, ip, pc, lsl r5
    3f58:	00264600 	eoreq	r4, r6, r0, lsl #12
    3f5c:	00000c00 	andeq	r0, r0, r0, lsl #24
    3f60:	02c70100 	sbceq	r0, r7, #0, 2
    3f64:	00003faf 	andeq	r3, r0, pc, lsr #31
    3f68:	004c3e20 	subeq	r3, ip, r0, lsr #28
    3f6c:	002acf00 	eoreq	ip, sl, r0, lsl #30
    3f70:	4c322000 	ldcmi	0, cr2, [r2], #-0
    3f74:	2ae30000 	bcs	ff8c3f7c <__bss_end__+0xff8aef10>
    3f78:	46340000 	ldrtmi	r0, [r4], -r0
    3f7c:	0c000026 	stceq	0, cr0, [r0], {38}	; 0x26
    3f80:	30000000 	andcc	r0, r0, r0
    3f84:	0000524f 	andeq	r5, r0, pc, asr #4
    3f88:	00525830 	subseq	r5, r2, r0, lsr r8
    3f8c:	52613000 	rsbpl	r3, r1, #0
    3f90:	6a300000 	bvs	c03f98 <__bss_end__+0xbeef2c>
    3f94:	21000052 	qaddcs	r0, r2, r0
    3f98:	00002652 	andeq	r2, r0, r2, asr r6
    3f9c:	00004c7b 	andeq	r4, r0, fp, ror ip
    3fa0:	02510122 	subseq	r0, r1, #-2147483640	; 0x80000008
    3fa4:	01222008 			; <UNDEFINED> instruction: 0x01222008
    3fa8:	38080252 	stmdacc	r8, {r1, r4, r6, r9}
    3fac:	23000000 	movwcs	r0, #0
    3fb0:	00004cf5 	strdeq	r4, [r0], -r5
    3fb4:	0000265c 	andeq	r2, r0, ip, asr r6
    3fb8:	000000b8 	strheq	r0, [r0], -r8
    3fbc:	ec02ce01 	stc	14, cr12, [r2], {1}
    3fc0:	2000003f 	andcs	r0, r0, pc, lsr r0
    3fc4:	00004d0c 	andeq	r4, r0, ip, lsl #26
    3fc8:	00002af7 	strdeq	r2, [r0], -r7
    3fcc:	004d0120 	subeq	r0, sp, r0, lsr #2
    3fd0:	002b1900 	eoreq	r1, fp, r0, lsl #18
    3fd4:	26742100 	ldrbtcs	r2, [r4], -r0, lsl #2
    3fd8:	4ef20000 	cdpmi	0, 15, cr0, cr2, cr0, {0}
    3fdc:	01220000 			; <UNDEFINED> instruction: 0x01220000
    3fe0:	00740250 	rsbseq	r0, r4, r0, asr r2
    3fe4:	02510122 	subseq	r0, r1, #-2147483640	; 0x80000008
    3fe8:	00003008 	andeq	r3, r0, r8
    3fec:	00265c21 	eoreq	r5, r6, r1, lsr #24
    3ff0:	004d1800 	subeq	r1, sp, r0, lsl #16
    3ff4:	50012200 	andpl	r2, r1, r0, lsl #4
    3ff8:	22007402 	andcs	r7, r0, #33554432	; 0x2000000
    3ffc:	30015101 	andcc	r5, r1, r1, lsl #2
    4000:	15260000 	strne	r0, [r6, #-0]!
    4004:	01000009 	tsteq	r0, r9
    4008:	280102b2 	stmdacs	r1, {r1, r4, r5, r7, r9}
    400c:	32000040 	andcc	r0, r0, #64	; 0x40
    4010:	000000b8 	strheq	r0, [r0], -r8
    4014:	5802b401 	stmdapl	r2, {r0, sl, ip, sp, pc}
    4018:	32000004 	andcc	r0, r0, #4
    401c:	000000bf 	strheq	r0, [r0], -pc	; <UNPREDICTABLE>
    4020:	5802b501 	stmdapl	r2, {r0, r8, sl, ip, sp, pc}
    4024:	00000004 	andeq	r0, r0, r4
    4028:	00129719 	andseq	r9, r2, r9, lsl r7
    402c:	029c0100 	addseq	r0, ip, #0, 2
    4030:	000003f1 	strdeq	r0, [r0], -r1
    4034:	000025a4 	andeq	r2, r0, r4, lsr #11
    4038:	0000005c 	andeq	r0, r0, ip, asr r0
    403c:	40ac9c01 	adcmi	r9, ip, r1, lsl #24
    4040:	70370000 	eorsvc	r0, r7, r0
    4044:	01006e69 	tsteq	r0, r9, ror #28
    4048:	03f1029c 	mvnseq	r0, #156, 4	; 0xc0000009
    404c:	2b370000 	blcs	dc4054 <__bss_end__+0xdaefe8>
    4050:	721b0000 	andsvc	r0, fp, #0
    4054:	01007465 	tsteq	r0, r5, ror #8
    4058:	03f1029e 	mvnseq	r0, #-536870903	; 0xe0000009
    405c:	2b710000 	blcs	1c44064 <__bss_end__+0x1c2eff8>
    4060:	782f0000 	stmdavc	pc!, {}	; <UNPREDICTABLE>
    4064:	1a000000 	bne	406c <bcm2835_close+0x8>
    4068:	00000213 	andeq	r0, r0, r3, lsl r2
    406c:	0702a201 	streq	sl, [r2, -r1, lsl #4]
    4070:	a7000004 	strge	r0, [r0, -r4]
    4074:	1a00002b 	bne	4128 <_IO_stdin_used+0x60>
    4078:	00000fe5 	andeq	r0, r0, r5, ror #31
    407c:	5802a301 	stmdapl	r2, {r0, r8, r9, sp, pc}
    4080:	c8000004 	stmdagt	r0, {r2}
    4084:	2e00002b 	cdpcs	0, 0, cr0, cr0, cr11, {1}
    4088:	00004d3b 	andeq	r4, r0, fp, lsr sp
    408c:	000025b4 			; <UNDEFINED> instruction: 0x000025b4
    4090:	00000098 	muleq	r0, r8, r0
    4094:	2002a401 	andcs	sl, r2, r1, lsl #8
    4098:	00004d4b 	andeq	r4, r0, fp, asr #26
    409c:	00002bc8 	andeq	r2, r0, r8, asr #23
    40a0:	0025f024 	eoreq	pc, r5, r4, lsr #32
    40a4:	004ea600 	subeq	sl, lr, r0, lsl #12
    40a8:	00000000 	andeq	r0, r0, r0
    40ac:	0010b331 	andseq	fp, r0, r1, lsr r3
    40b0:	02770100 	rsbseq	r0, r7, #0, 2
    40b4:	00410401 	subeq	r0, r1, r1, lsl #8
    40b8:	69702900 	ldmdbvs	r0!, {r8, fp, sp}^
    40bc:	7701006e 	strvc	r0, [r1, -lr, rrx]
    40c0:	0003f102 	andeq	pc, r3, r2, lsl #2
    40c4:	75702900 	ldrbvc	r2, [r0, #-2304]!	; 0xfffff700
    40c8:	77010064 	strvc	r0, [r1, -r4, rrx]
    40cc:	0003f102 	andeq	pc, r3, r2, lsl #2
    40d0:	e1323f00 	teq	r2, r0, lsl #30
    40d4:	01000000 	mrseq	r0, (UNDEF: 0)
    40d8:	0045027b 	subeq	r0, r5, fp, ror r2
    40dc:	13320000 	teqne	r2, #0
    40e0:	01000002 	tsteq	r0, r2
    40e4:	0407027c 	streq	r0, [r7], #-636	; 0xfffffd84
    40e8:	ac320000 	ldcge	0, cr0, [r2], #-0
    40ec:	01000012 	tsteq	r0, r2, lsl r0
    40f0:	0407027d 	streq	r0, [r7], #-637	; 0xfffffd83
    40f4:	e5320000 	ldr	r0, [r2, #-0]!
    40f8:	0100000f 	tsteq	r0, pc
    40fc:	04580287 	ldrbeq	r0, [r8], #-647	; 0xfffffd79
    4100:	00000000 	andeq	r0, r0, r0
    4104:	000bc62c 	andeq	ip, fp, ip, lsr #12
    4108:	025c0100 	subseq	r0, ip, #0, 2
    410c:	0000257c 	andeq	r2, r0, ip, ror r5
    4110:	00000028 	andeq	r0, r0, r8, lsr #32
    4114:	41b29c01 			; <UNDEFINED> instruction: 0x41b29c01
    4118:	ef2b0000 	svc	0x002b0000
    411c:	01000005 	tsteq	r0, r5
    4120:	0407025c 	streq	r0, [r7], #-604	; 0xfffffda4
    4124:	2be60000 	blcs	ff98412c <__bss_end__+0xff96f0c0>
    4128:	d92b0000 	stmdble	fp!, {}	; <UNPREDICTABLE>
    412c:	0100000b 	tsteq	r0, fp
    4130:	0407025c 	streq	r0, [r7], #-604	; 0xfffffda4
    4134:	2c120000 	ldccs	0, cr0, [r2], {-0}
    4138:	5f230000 	svcpl	0x00230000
    413c:	8000004b 	andhi	r0, r0, fp, asr #32
    4140:	48000025 	stmdami	r0, {r0, r2, r5}
    4144:	01000000 	mrseq	r0, (UNDEF: 0)
    4148:	4176025e 	cmnmi	r6, lr, asr r2
    414c:	6c200000 	stcvs	0, cr0, [r0], #-0
    4150:	3e00004b 	cdpcc	0, 0, cr0, cr0, cr11, {2}
    4154:	2f00002c 	svccs	0x0000002c
    4158:	00000048 	andeq	r0, r0, r8, asr #32
    415c:	00529930 	subseq	r9, r2, r0, lsr r9
    4160:	25902100 	ldrcs	r2, [r0, #256]	; 0x100
    4164:	4d180000 	ldcmi	0, cr0, [r8, #-0]
    4168:	01220000 			; <UNDEFINED> instruction: 0x01220000
    416c:	00750551 	rsbseq	r0, r5, r1, asr r5
    4170:	001a0074 	andseq	r0, sl, r4, ror r0
    4174:	392e0000 	stmdbcc	lr!, {}	; <UNPREDICTABLE>
    4178:	9000004b 	andls	r0, r0, fp, asr #32
    417c:	60000025 	andvs	r0, r0, r5, lsr #32
    4180:	01000000 	mrseq	r0, (UNDEF: 0)
    4184:	4620025f 			; <UNDEFINED> instruction: 0x4620025f
    4188:	7100004b 	tstvc	r0, fp, asr #32
    418c:	2f00002c 	svccs	0x0000002c
    4190:	00000060 	andeq	r0, r0, r0, rrx
    4194:	0052d030 	subseq	sp, r2, r0, lsr r0
    4198:	25a03600 	strcs	r3, [r0, #1536]!	; 0x600
    419c:	4d180000 	ldcmi	0, cr0, [r8, #-0]
    41a0:	01220000 			; <UNDEFINED> instruction: 0x01220000
    41a4:	01f30851 	mvnseq	r0, r1, asr r8
    41a8:	01f32050 	mvnseq	r2, r0, asr r0
    41ac:	00001a51 	andeq	r1, r0, r1, asr sl
    41b0:	122c0000 	eorne	r0, ip, #0
    41b4:	01000004 	tsteq	r0, r4
    41b8:	255c0253 	ldrbcs	r0, [ip, #-595]	; 0xfffffdad
    41bc:	00200000 	eoreq	r0, r0, r0
    41c0:	9c010000 	stcls	0, cr0, [r1], {-0}
    41c4:	00004260 	andeq	r4, r0, r0, ror #4
    41c8:	000bd92b 	andeq	sp, fp, fp, lsr #18
    41cc:	02530100 	subseq	r0, r3, #0, 2
    41d0:	00000407 	andeq	r0, r0, r7, lsl #8
    41d4:	00002ca8 	andeq	r2, r0, r8, lsr #25
    41d8:	006e6f37 	rsbeq	r6, lr, r7, lsr pc
    41dc:	f1025301 			; <UNDEFINED> instruction: 0xf1025301
    41e0:	f8000003 			; <UNDEFINED> instruction: 0xf8000003
    41e4:	1f00002c 	svcne	0x0000002c
    41e8:	00004b39 	andeq	r4, r0, r9, lsr fp
    41ec:	00002564 	andeq	r2, r0, r4, ror #10
    41f0:	0000000a 	andeq	r0, r0, sl
    41f4:	25025801 	strcs	r5, [r2, #-2049]	; 0xfffff7ff
    41f8:	20000042 	andcs	r0, r0, r2, asr #32
    41fc:	00004b46 	andeq	r4, r0, r6, asr #22
    4200:	00002d32 	andeq	r2, r0, r2, lsr sp
    4204:	00256434 	eoreq	r6, r5, r4, lsr r4
    4208:	00000a00 	andeq	r0, r0, r0, lsl #20
    420c:	52d03000 	sbcspl	r3, r0, #0
    4210:	6e360000 	cdpvs	0, 3, cr0, cr6, cr0, {0}
    4214:	18000025 	stmdane	r0, {r0, r2, r5}
    4218:	2200004d 	andcs	r0, r0, #77	; 0x4d
    421c:	f3035101 	vrhadd.u8	d5, d3, d1
    4220:	00005001 	andeq	r5, r0, r1
    4224:	4b5f4000 	blmi	17d422c <__bss_end__+0x17bf1c0>
    4228:	256e0000 	strbcs	r0, [lr, #-0]!
    422c:	000e0000 	andeq	r0, lr, r0
    4230:	56010000 	strpl	r0, [r1], -r0
    4234:	4b6c2002 	blmi	1b0c244 <__bss_end__+0x1af71d8>
    4238:	2d5e0000 	ldclcs	0, cr0, [lr, #-0]
    423c:	6e340000 	cdpvs	0, 3, cr0, cr4, cr0, {0}
    4240:	0e000025 	cdpeq	0, 0, cr0, cr0, cr5, {1}
    4244:	30000000 	andcc	r0, r0, r0
    4248:	00005299 	muleq	r0, r9, r2
    424c:	00257836 	eoreq	r7, r5, r6, lsr r8
    4250:	004d1800 	subeq	r1, sp, r0, lsl #16
    4254:	51012200 	mrspl	r2, R9_usr
    4258:	5001f303 	andpl	pc, r1, r3, lsl #6
    425c:	00000000 	andeq	r0, r0, r0
    4260:	0005f52c 	andeq	pc, r5, ip, lsr #10
    4264:	024a0100 	subeq	r0, sl, #0, 2
    4268:	00002550 	andeq	r2, r0, r0, asr r5
    426c:	0000000a 	andeq	r0, r0, sl
    4270:	42a89c01 	adcmi	r9, r8, #256	; 0x100
    4274:	70370000 	eorsvc	r0, r7, r0
    4278:	01006e69 	tsteq	r0, r9, ror #28
    427c:	03f1024a 	mvnseq	r0, #-1610612732	; 0xa0000004
    4280:	2d8a0000 	stccs	0, cr0, [sl]
    4284:	6f370000 	svcvs	0x00370000
    4288:	4a01006e 	bmi	44448 <__bss_end__+0x2f3dc>
    428c:	0003f102 	andeq	pc, r3, r2, lsl #2
    4290:	002dc400 	eoreq	ip, sp, r0, lsl #8
    4294:	25562d00 	ldrbcs	r2, [r6, #-3328]	; 0xfffff300
    4298:	4b850000 	blmi	fe1442a0 <__bss_end__+0xfe12f234>
    429c:	5a2d0000 	bpl	b442a4 <__bss_end__+0xb2f238>
    42a0:	d5000025 	strle	r0, [r0, #-37]	; 0xffffffdb
    42a4:	0000004b 	andeq	r0, r0, fp, asr #32
    42a8:	0008bf2c 	andeq	fp, r8, ip, lsr #30
    42ac:	02210100 	eoreq	r0, r1, #0, 2
    42b0:	000036d0 	ldrdeq	r3, [r0], -r0
    42b4:	000000c4 	andeq	r0, r0, r4, asr #1
    42b8:	43a39c01 			; <UNDEFINED> instruction: 0x43a39c01
    42bc:	a92b0000 	stmdbge	fp!, {}	; <UNPREDICTABLE>
    42c0:	01000013 	tsteq	r0, r3, lsl r0
    42c4:	04170221 	ldreq	r0, [r7], #-545	; 0xfffffddf
    42c8:	2dfe0000 	ldclcs	0, cr0, [lr]
    42cc:	741e0000 	ldrvc	r0, [lr], #-0
    42d0:	23010031 	movwcs	r0, #4145	; 0x1031
    42d4:	00034702 	andeq	r4, r3, r2, lsl #14
    42d8:	4c910200 	lfmmi	f0, 4, [r1], {0}
    42dc:	0000221a 	andeq	r2, r0, sl, lsl r2
    42e0:	02240100 	eoreq	r0, r4, #0, 2
    42e4:	00000417 	andeq	r0, r0, r7, lsl r4
    42e8:	00002e46 	andeq	r2, r0, r6, asr #28
    42ec:	004e611f 	subeq	r6, lr, pc, lsl r1
    42f0:	0036f800 	eorseq	pc, r6, r0, lsl #16
    42f4:	00000e00 	andeq	r0, r0, r0, lsl #28
    42f8:	02290100 	eoreq	r0, r9, #0, 2
    42fc:	00004319 	andeq	r4, r0, r9, lsl r3
    4300:	004e7120 	subeq	r7, lr, r0, lsr #2
    4304:	002e5e00 	eoreq	r5, lr, r0, lsl #28
    4308:	37062100 	strcc	r2, [r6, -r0, lsl #2]
    430c:	56840000 	strpl	r0, [r4], r0
    4310:	01220000 			; <UNDEFINED> instruction: 0x01220000
    4314:	00310150 	eorseq	r0, r1, r0, asr r1
    4318:	0ee01f00 	cdpeq	15, 14, cr1, cr0, cr0, {0}
    431c:	37320000 	ldrcc	r0, [r2, -r0]!
    4320:	00160000 	andseq	r0, r6, r0
    4324:	42010000 	andmi	r0, r1, #0
    4328:	00435c02 	subeq	r5, r3, r2, lsl #24
    432c:	0ef92000 	cdpeq	0, 15, cr2, cr9, cr0, {0}
    4330:	2e760000 	cdpcs	0, 7, cr0, cr6, cr0, {0}
    4334:	ed200000 	stc	0, cr0, [r0, #-0]
    4338:	8e00000e 	cdphi	0, 0, cr0, cr0, cr14, {0}
    433c:	3400002e 	strcc	r0, [r0], #-46	; 0xffffffd2
    4340:	00003732 	andeq	r3, r0, r2, lsr r7
    4344:	00000016 	andeq	r0, r0, r6, lsl r0
    4348:	000f053b 	andeq	r0, pc, fp, lsr r5	; <UNPREDICTABLE>
    434c:	002ea600 	eoreq	sl, lr, r0, lsl #12
    4350:	373e2400 	ldrcc	r2, [lr, -r0, lsl #8]!
    4354:	0f120000 	svceq	0x00120000
    4358:	00000000 	andeq	r0, r0, r0
    435c:	00371a24 	eorseq	r1, r7, r4, lsr #20
    4360:	000f1200 	andeq	r1, pc, r0, lsl #4
    4364:	375e2500 	ldrbcc	r2, [lr, -r0, lsl #10]
    4368:	56790000 	ldrbtpl	r0, [r9], -r0
    436c:	437f0000 	cmnmi	pc, #0
    4370:	01220000 			; <UNDEFINED> instruction: 0x01220000
    4374:	4c910250 	lfmmi	f0, 4, [r1], {80}	; 0x50
    4378:	02510122 	subseq	r0, r1, #-2147483640	; 0x80000008
    437c:	25000079 	strcs	r0, [r0, #-121]	; 0xffffff87
    4380:	0000377e 	andeq	r3, r0, lr, ror r7
    4384:	00005679 	andeq	r5, r0, r9, ror r6
    4388:	00004399 	muleq	r0, r9, r3
    438c:	02500122 	subseq	r0, r0, #-2147483640	; 0x80000008
    4390:	01224c91 			; <UNDEFINED> instruction: 0x01224c91
    4394:	00790251 	rsbseq	r0, r9, r1, asr r2
    4398:	37842400 	strcc	r2, [r4, r0, lsl #8]
    439c:	56640000 	strbtpl	r0, [r4], -r0
    43a0:	31000000 	mrscc	r0, (UNDEF: 0)
    43a4:	0000058d 	andeq	r0, r0, sp, lsl #11
    43a8:	01021701 	tsteq	r2, r1, lsl #14
    43ac:	000043c9 	andeq	r4, r0, r9, asr #7
    43b0:	0002c727 	andeq	ip, r2, r7, lsr #14
    43b4:	02170100 	andseq	r0, r7, #0, 2
    43b8:	00000025 	andeq	r0, r0, r5, lsr #32
    43bc:	00159d32 	andseq	r9, r5, r2, lsr sp
    43c0:	02190100 	andseq	r0, r9, #0, 2
    43c4:	00000347 	andeq	r0, r0, r7, asr #6
    43c8:	01ca2c00 	biceq	r2, sl, r0, lsl #24
    43cc:	0b010000 	bleq	443d4 <__bss_end__+0x2f368>
    43d0:	0024d802 	eoreq	sp, r4, r2, lsl #16
    43d4:	00002000 	andeq	r2, r0, r0
    43d8:	269c0100 	ldrcs	r0, [ip], r0, lsl #2
    43dc:	2b000044 	blcs	44f4 <__FRAME_END__+0x2c>
    43e0:	00000a1d 	andeq	r0, r0, sp, lsl sl
    43e4:	f1020b01 			; <UNDEFINED> instruction: 0xf1020b01
    43e8:	be000003 	cdplt	0, 0, cr0, cr0, cr3, {0}
    43ec:	2b00002e 	blcs	44ac <bcm2835_byte_reverse_table+0x36c>
    43f0:	00000b2b 	andeq	r0, r0, fp, lsr #22
    43f4:	07020b01 	streq	r0, [r2, -r1, lsl #22]
    43f8:	ea000004 	b	4410 <bcm2835_byte_reverse_table+0x2d0>
    43fc:	1a00002e 	bne	44bc <bcm2835_byte_reverse_table+0x37c>
    4400:	00000fe5 	andeq	r0, r0, r5, ror #31
    4404:	58021001 	stmdapl	r2, {r0, ip}
    4408:	16000004 	strne	r0, [r0], -r4
    440c:	3600002f 	strcc	r0, [r0], -pc, lsr #32
    4410:	000024f0 	strdeq	r2, [r0], -r0
    4414:	00004d18 	andeq	r4, r0, r8, lsl sp
    4418:	08510122 	ldmdaeq	r1, {r1, r5, r8}^
    441c:	085101f3 	ldmdaeq	r1, {r0, r1, r4, r5, r6, r7, r8}^
    4420:	212447b4 			; <UNDEFINED> instruction: 0x212447b4
    4424:	4d190000 	ldcmi	0, cr0, [r9, #-0]
    4428:	01000015 	tsteq	r0, r5, lsl r0
    442c:	040701fe 	streq	r0, [r7], #-510	; 0xfffffe02
    4430:	24bc0000 	ldrtcs	r0, [ip], #0
    4434:	001c0000 	andseq	r0, ip, r0
    4438:	9c010000 	stcls	0, cr0, [r1], {-0}
    443c:	0000446a 	andeq	r4, r0, sl, ror #8
    4440:	000a1d2b 	andeq	r1, sl, fp, lsr #26
    4444:	01fe0100 	mvnseq	r0, r0, lsl #2
    4448:	000003f1 	strdeq	r0, [r0], -r1
    444c:	00002f4d 	andeq	r2, r0, sp, asr #30
    4450:	000fe51a 	andeq	lr, pc, sl, lsl r5	; <UNPREDICTABLE>
    4454:	02030100 	andeq	r0, r3, #0, 2
    4458:	00000458 	andeq	r0, r0, r8, asr r4
    445c:	00002f87 	andeq	r2, r0, r7, lsl #31
    4460:	0024d02d 	eoreq	sp, r4, sp, lsr #32
    4464:	004d5700 	subeq	r5, sp, r0, lsl #14
    4468:	00310000 	eorseq	r0, r1, r0
    446c:	01000015 	tsteq	r0, r5, lsl r0
    4470:	a90101ee 	stmdbge	r1, {r1, r2, r3, r5, r6, r7, r8}
    4474:	29000044 	stmdbcs	r0, {r2, r6}
    4478:	006e6970 	rsbeq	r6, lr, r0, ror r9
    447c:	f101ee01 			; <UNDEFINED> instruction: 0xf101ee01
    4480:	29000003 	stmdbcs	r0, {r0, r1}
    4484:	01006e6f 	tsteq	r0, pc, ror #28
    4488:	03f101ee 	mvnseq	r0, #-2147483589	; 0x8000003b
    448c:	323f0000 	eorscc	r0, pc, #0
    4490:	00000fe5 	andeq	r0, r0, r5, ror #31
    4494:	5801f701 	stmdapl	r1, {r0, r8, r9, sl, ip, sp, lr, pc}
    4498:	32000004 	andcc	r0, r0, #4
    449c:	000004e1 	andeq	r0, r0, r1, ror #9
    44a0:	f101f801 			; <UNDEFINED> instruction: 0xf101f801
    44a4:	00000003 	andeq	r0, r0, r3
    44a8:	0cf03100 	ldfeqe	f3, [r0]
    44ac:	df010000 	svcle	0x00010000
    44b0:	44d10101 	ldrbmi	r0, [r1], #257	; 0x101
    44b4:	70290000 	eorvc	r0, r9, r0
    44b8:	01006475 	tsteq	r0, r5, ror r4
    44bc:	03f101df 	mvnseq	r0, #-1073741769	; 0xc0000037
    44c0:	323f0000 	eorscc	r0, pc, #0
    44c4:	00000fe5 	andeq	r0, r0, r5, ror #31
    44c8:	5801e601 	stmdapl	r1, {r0, r9, sl, sp, lr, pc}
    44cc:	00000004 	andeq	r0, r0, r4
    44d0:	155e2c00 	ldrbne	r2, [lr, #-3072]	; 0xfffff400
    44d4:	d6010000 	strle	r0, [r1], -r0
    44d8:	00248001 	eoreq	r8, r4, r1
    44dc:	00002800 	andeq	r2, r0, r0, lsl #16
    44e0:	379c0100 	ldrcc	r0, [ip, r0, lsl #2]
    44e4:	37000045 	strcc	r0, [r0, -r5, asr #32]
    44e8:	006e6970 	rsbeq	r6, lr, r0, ror r9
    44ec:	f101d601 			; <UNDEFINED> instruction: 0xf101d601
    44f0:	be000003 	cdplt	0, 0, cr0, cr0, cr3, {0}
    44f4:	1a00002f 	bne	45b8 <__FRAME_END__+0xf0>
    44f8:	00000fe5 	andeq	r0, r0, r5, ror #31
    44fc:	5801d801 	stmdapl	r1, {r0, fp, ip, lr, pc}
    4500:	df000004 	svcle	0x00000004
    4504:	1a00002f 	bne	45c8 <__FRAME_END__+0x100>
    4508:	000004e1 	andeq	r0, r0, r1, ror #9
    450c:	f101d901 			; <UNDEFINED> instruction: 0xf101d901
    4510:	22000003 	andcs	r0, r0, #3
    4514:	1a000030 	bne	45dc <__FRAME_END__+0x114>
    4518:	000005ef 	andeq	r0, r0, pc, ror #11
    451c:	0701da01 	streq	sp, [r1, -r1, lsl #20]
    4520:	49000004 	stmdbmi	r0, {r2}
    4524:	36000030 			; <UNDEFINED> instruction: 0x36000030
    4528:	000024a4 	andeq	r2, r0, r4, lsr #9
    452c:	00004c7b 	andeq	r4, r0, fp, ror ip
    4530:	01510122 	cmpeq	r1, r2, lsr #2
    4534:	2c000030 	stccs	0, cr0, [r0], {48}	; 0x30
    4538:	00001514 	andeq	r1, r0, r4, lsl r5
    453c:	5801cf01 	stmdapl	r1, {r0, r8, r9, sl, fp, lr, pc}
    4540:	28000024 	stmdacs	r0, {r2, r5}
    4544:	01000000 	mrseq	r0, (UNDEF: 0)
    4548:	0045979c 	umaaleq	r9, r5, ip, r7
    454c:	69703700 	ldmdbvs	r0!, {r8, r9, sl, ip, sp}^
    4550:	cf01006e 	svcgt	0x0001006e
    4554:	0003f101 	andeq	pc, r3, r1, lsl #2
    4558:	00307a00 	eorseq	r7, r0, r0, lsl #20
    455c:	0fe51a00 	svceq	0x00e51a00
    4560:	d1010000 	mrsle	r0, (UNDEF: 1)
    4564:	00045801 	andeq	r5, r4, r1, lsl #16
    4568:	00309b00 	eorseq	r9, r0, r0, lsl #22
    456c:	04e11a00 	strbteq	r1, [r1], #2560	; 0xa00
    4570:	d2010000 	andle	r0, r1, #0
    4574:	0003f101 	andeq	pc, r3, r1, lsl #2
    4578:	0030de00 	eorseq	sp, r0, r0, lsl #28
    457c:	05ef1a00 	strbeq	r1, [pc, #2560]!	; 4f84 <__FRAME_END__+0xabc>
    4580:	d3010000 	movwle	r0, #4096	; 0x1000
    4584:	00040701 	andeq	r0, r4, r1, lsl #14
    4588:	00310500 	eorseq	r0, r1, r0, lsl #10
    458c:	247c2d00 	ldrbtcs	r2, [ip], #-3328	; 0xfffff300
    4590:	4c7b0000 	ldclmi	0, cr0, [fp], #-0
    4594:	2c000000 	stccs	0, cr0, [r0], {-0}
    4598:	00000800 	andeq	r0, r0, r0, lsl #16
    459c:	3001c601 	andcc	ip, r1, r1, lsl #12
    45a0:	28000024 	stmdacs	r0, {r2, r5}
    45a4:	01000000 	mrseq	r0, (UNDEF: 0)
    45a8:	0045fd9c 	umaaleq	pc, r5, ip, sp	; <UNPREDICTABLE>
    45ac:	69703700 	ldmdbvs	r0!, {r8, r9, sl, ip, sp}^
    45b0:	c601006e 	strgt	r0, [r1], -lr, rrx
    45b4:	0003f101 	andeq	pc, r3, r1, lsl #2
    45b8:	00311800 	eorseq	r1, r1, r0, lsl #16
    45bc:	0fe51a00 	svceq	0x00e51a00
    45c0:	c8010000 	stmdagt	r1, {}	; <UNPREDICTABLE>
    45c4:	00045801 	andeq	r5, r4, r1, lsl #16
    45c8:	00313900 	eorseq	r3, r1, r0, lsl #18
    45cc:	04e11a00 	strbteq	r1, [r1], #2560	; 0xa00
    45d0:	c9010000 	stmdbgt	r1, {}	; <UNPREDICTABLE>
    45d4:	0003f101 	andeq	pc, r3, r1, lsl #2
    45d8:	00317c00 	eorseq	r7, r1, r0, lsl #24
    45dc:	05ef1a00 	strbeq	r1, [pc, #2560]!	; 4fe4 <__FRAME_END__+0xb1c>
    45e0:	ca010000 	bgt	445e8 <__bss_end__+0x2f57c>
    45e4:	00040701 	andeq	r0, r4, r1, lsl #14
    45e8:	0031a300 	eorseq	sl, r1, r0, lsl #6
    45ec:	24543600 	ldrbcs	r3, [r4], #-1536	; 0xfffffa00
    45f0:	4c7b0000 	ldclmi	0, cr0, [fp], #-0
    45f4:	01220000 			; <UNDEFINED> instruction: 0x01220000
    45f8:	00300151 	eorseq	r0, r0, r1, asr r1
    45fc:	04982c00 	ldreq	r2, [r8], #3072	; 0xc00
    4600:	bf010000 	svclt	0x00010000
    4604:	00240801 	eoreq	r0, r4, r1, lsl #16
    4608:	00002800 	andeq	r2, r0, r0, lsl #16
    460c:	5d9c0100 	ldfpls	f0, [ip]
    4610:	37000046 	strcc	r0, [r0, -r6, asr #32]
    4614:	006e6970 	rsbeq	r6, lr, r0, ror r9
    4618:	f101bf01 			; <UNDEFINED> instruction: 0xf101bf01
    461c:	d4000003 	strle	r0, [r0], #-3
    4620:	1a000031 	bne	46ec <__FRAME_END__+0x224>
    4624:	00000fe5 	andeq	r0, r0, r5, ror #31
    4628:	5801c101 	stmdapl	r1, {r0, r8, lr, pc}
    462c:	f5000004 			; <UNDEFINED> instruction: 0xf5000004
    4630:	1a000031 	bne	46fc <__FRAME_END__+0x234>
    4634:	000004e1 	andeq	r0, r0, r1, ror #9
    4638:	f101c201 			; <UNDEFINED> instruction: 0xf101c201
    463c:	38000003 	stmdacc	r0, {r0, r1}
    4640:	1a000032 	bne	4710 <__FRAME_END__+0x248>
    4644:	000005ef 	andeq	r0, r0, pc, ror #11
    4648:	0701c301 	streq	ip, [r1, -r1, lsl #6]
    464c:	5f000004 	svcpl	0x00000004
    4650:	2d000032 	stccs	0, cr0, [r0, #-200]	; 0xffffff38
    4654:	0000242c 	andeq	r2, r0, ip, lsr #8
    4658:	00004c7b 	andeq	r4, r0, fp, ror ip
    465c:	0bb12c00 	bleq	fec4f664 <__bss_end__+0xfec3a5f8>
    4660:	b6010000 	strlt	r0, [r1], -r0
    4664:	0023e001 	eoreq	lr, r3, r1
    4668:	00002800 	andeq	r2, r0, r0, lsl #16
    466c:	c39c0100 	orrsgt	r0, ip, #0, 2
    4670:	37000046 	strcc	r0, [r0, -r6, asr #32]
    4674:	006e6970 	rsbeq	r6, lr, r0, ror r9
    4678:	f101b601 			; <UNDEFINED> instruction: 0xf101b601
    467c:	72000003 	andvc	r0, r0, #3
    4680:	1a000032 	bne	4750 <__FRAME_END__+0x288>
    4684:	00000fe5 	andeq	r0, r0, r5, ror #31
    4688:	5801b801 	stmdapl	r1, {r0, fp, ip, sp, pc}
    468c:	93000004 	movwls	r0, #4
    4690:	1a000032 	bne	4760 <__FRAME_END__+0x298>
    4694:	000004e1 	andeq	r0, r0, r1, ror #9
    4698:	f101b901 			; <UNDEFINED> instruction: 0xf101b901
    469c:	d6000003 	strle	r0, [r0], -r3
    46a0:	1a000032 	bne	4770 <__FRAME_END__+0x2a8>
    46a4:	000005ef 	andeq	r0, r0, pc, ror #11
    46a8:	0701ba01 	streq	fp, [r1, -r1, lsl #20]
    46ac:	fd000004 	stc2	0, cr0, [r0, #-16]
    46b0:	36000032 			; <UNDEFINED> instruction: 0x36000032
    46b4:	00002404 	andeq	r2, r0, r4, lsl #8
    46b8:	00004c7b 	andeq	r4, r0, fp, ror ip
    46bc:	01510122 	cmpeq	r1, r2, lsr #2
    46c0:	2c000030 	stccs	0, cr0, [r0], {48}	; 0x30
    46c4:	00000670 	andeq	r0, r0, r0, ror r6
    46c8:	b801af01 	stmdalt	r1, {r0, r8, r9, sl, fp, sp, pc}
    46cc:	28000023 	stmdacs	r0, {r0, r1, r5}
    46d0:	01000000 	mrseq	r0, (UNDEF: 0)
    46d4:	0047239c 	umaaleq	r2, r7, ip, r3
    46d8:	69703700 	ldmdbvs	r0!, {r8, r9, sl, ip, sp}^
    46dc:	af01006e 	svcge	0x0001006e
    46e0:	0003f101 	andeq	pc, r3, r1, lsl #2
    46e4:	00332e00 	eorseq	r2, r3, r0, lsl #28
    46e8:	0fe51a00 	svceq	0x00e51a00
    46ec:	b1010000 	mrslt	r0, (UNDEF: 1)
    46f0:	00045801 	andeq	r5, r4, r1, lsl #16
    46f4:	00334f00 	eorseq	r4, r3, r0, lsl #30
    46f8:	04e11a00 	strbteq	r1, [r1], #2560	; 0xa00
    46fc:	b2010000 	andlt	r0, r1, #0
    4700:	0003f101 	andeq	pc, r3, r1, lsl #2
    4704:	00339200 	eorseq	r9, r3, r0, lsl #4
    4708:	05ef1a00 	strbeq	r1, [pc, #2560]!	; 5110 <__FRAME_END__+0xc48>
    470c:	b3010000 	movwlt	r0, #4096	; 0x1000
    4710:	00040701 	andeq	r0, r4, r1, lsl #14
    4714:	0033b900 	eorseq	fp, r3, r0, lsl #18
    4718:	23dc2d00 	bicscs	r2, ip, #0, 26
    471c:	4c7b0000 	ldclmi	0, cr0, [fp], #-0
    4720:	2c000000 	stccs	0, cr0, [r0], {-0}
    4724:	000010e8 	andeq	r1, r0, r8, ror #1
    4728:	9001a601 	andls	sl, r1, r1, lsl #12
    472c:	28000023 	stmdacs	r0, {r0, r1, r5}
    4730:	01000000 	mrseq	r0, (UNDEF: 0)
    4734:	0047899c 	umaaleq	r8, r7, ip, r9
    4738:	69703700 	ldmdbvs	r0!, {r8, r9, sl, ip, sp}^
    473c:	a601006e 	strge	r0, [r1], -lr, rrx
    4740:	0003f101 	andeq	pc, r3, r1, lsl #2
    4744:	0033cc00 	eorseq	ip, r3, r0, lsl #24
    4748:	0fe51a00 	svceq	0x00e51a00
    474c:	a8010000 	stmdage	r1, {}	; <UNPREDICTABLE>
    4750:	00045801 	andeq	r5, r4, r1, lsl #16
    4754:	0033ed00 	eorseq	lr, r3, r0, lsl #26
    4758:	04e11a00 	strbteq	r1, [r1], #2560	; 0xa00
    475c:	a9010000 	stmdbge	r1, {}	; <UNPREDICTABLE>
    4760:	0003f101 	andeq	pc, r3, r1, lsl #2
    4764:	00343000 	eorseq	r3, r4, r0
    4768:	05ef1a00 	strbeq	r1, [pc, #2560]!	; 5170 <__FRAME_END__+0xca8>
    476c:	aa010000 	bge	44774 <__bss_end__+0x2f708>
    4770:	00040701 	andeq	r0, r4, r1, lsl #14
    4774:	00345700 	eorseq	r5, r4, r0, lsl #14
    4778:	23b43600 			; <UNDEFINED> instruction: 0x23b43600
    477c:	4c7b0000 	ldclmi	0, cr0, [fp], #-0
    4780:	01220000 			; <UNDEFINED> instruction: 0x01220000
    4784:	00300151 	eorseq	r0, r0, r1, asr r1
    4788:	0a382c00 	beq	e0f790 <__bss_end__+0xdfa724>
    478c:	9f010000 	svcls	0x00010000
    4790:	00236801 	eoreq	r6, r3, r1, lsl #16
    4794:	00002800 	andeq	r2, r0, r0, lsl #16
    4798:	e99c0100 	ldmib	ip, {r8}
    479c:	37000047 	strcc	r0, [r0, -r7, asr #32]
    47a0:	006e6970 	rsbeq	r6, lr, r0, ror r9
    47a4:	f1019f01 			; <UNDEFINED> instruction: 0xf1019f01
    47a8:	88000003 	stmdahi	r0, {r0, r1}
    47ac:	1a000034 	bne	4884 <__FRAME_END__+0x3bc>
    47b0:	00000fe5 	andeq	r0, r0, r5, ror #31
    47b4:	5801a101 	stmdapl	r1, {r0, r8, sp, pc}
    47b8:	a9000004 	stmdbge	r0, {r2}
    47bc:	1a000034 	bne	4894 <__FRAME_END__+0x3cc>
    47c0:	000004e1 	andeq	r0, r0, r1, ror #9
    47c4:	f101a201 			; <UNDEFINED> instruction: 0xf101a201
    47c8:	ec000003 	stc	0, cr0, [r0], {3}
    47cc:	1a000034 	bne	48a4 <__FRAME_END__+0x3dc>
    47d0:	000005ef 	andeq	r0, r0, pc, ror #11
    47d4:	0701a301 	streq	sl, [r1, -r1, lsl #6]
    47d8:	13000004 	movwne	r0, #4
    47dc:	2d000035 	stccs	0, cr0, [r0, #-212]	; 0xffffff2c
    47e0:	0000238c 	andeq	r2, r0, ip, lsl #7
    47e4:	00004c7b 	andeq	r4, r0, fp, ror ip
    47e8:	07c82c00 	strbeq	r2, [r8, r0, lsl #24]
    47ec:	96010000 	strls	r0, [r1], -r0
    47f0:	00234001 	eoreq	r4, r3, r1
    47f4:	00002800 	andeq	r2, r0, r0, lsl #16
    47f8:	4f9c0100 	svcmi	0x009c0100
    47fc:	37000048 	strcc	r0, [r0, -r8, asr #32]
    4800:	006e6970 	rsbeq	r6, lr, r0, ror r9
    4804:	f1019601 			; <UNDEFINED> instruction: 0xf1019601
    4808:	26000003 	strcs	r0, [r0], -r3
    480c:	1a000035 	bne	48e8 <__FRAME_END__+0x420>
    4810:	00000fe5 	andeq	r0, r0, r5, ror #31
    4814:	58019801 	stmdapl	r1, {r0, fp, ip, pc}
    4818:	47000004 	strmi	r0, [r0, -r4]
    481c:	1a000035 	bne	48f8 <__FRAME_END__+0x430>
    4820:	000004e1 	andeq	r0, r0, r1, ror #9
    4824:	f1019901 			; <UNDEFINED> instruction: 0xf1019901
    4828:	8a000003 	bhi	483c <__FRAME_END__+0x374>
    482c:	1a000035 	bne	4908 <__FRAME_END__+0x440>
    4830:	000005ef 	andeq	r0, r0, pc, ror #11
    4834:	07019a01 	streq	r9, [r1, -r1, lsl #20]
    4838:	b1000004 	tstlt	r0, r4
    483c:	36000035 			; <UNDEFINED> instruction: 0x36000035
    4840:	00002364 	andeq	r2, r0, r4, ror #6
    4844:	00004c7b 	andeq	r4, r0, fp, ror ip
    4848:	01510122 	cmpeq	r1, r2, lsr #2
    484c:	2c000030 	stccs	0, cr0, [r0], {48}	; 0x30
    4850:	000001b9 			; <UNDEFINED> instruction: 0x000001b9
    4854:	18018f01 	stmdane	r1, {r0, r8, r9, sl, fp, pc}
    4858:	28000023 	stmdacs	r0, {r0, r1, r5}
    485c:	01000000 	mrseq	r0, (UNDEF: 0)
    4860:	0048af9c 	umaaleq	sl, r8, ip, pc	; <UNPREDICTABLE>
    4864:	69703700 	ldmdbvs	r0!, {r8, r9, sl, ip, sp}^
    4868:	8f01006e 	svchi	0x0001006e
    486c:	0003f101 	andeq	pc, r3, r1, lsl #2
    4870:	0035e200 	eorseq	lr, r5, r0, lsl #4
    4874:	0fe51a00 	svceq	0x00e51a00
    4878:	91010000 	mrsls	r0, (UNDEF: 1)
    487c:	00045801 	andeq	r5, r4, r1, lsl #16
    4880:	00360300 	eorseq	r0, r6, r0, lsl #6
    4884:	04e11a00 	strbteq	r1, [r1], #2560	; 0xa00
    4888:	92010000 	andls	r0, r1, #0
    488c:	0003f101 	andeq	pc, r3, r1, lsl #2
    4890:	00364600 	eorseq	r4, r6, r0, lsl #12
    4894:	05ef1a00 	strbeq	r1, [pc, #2560]!	; 529c <__FRAME_END__+0xdd4>
    4898:	93010000 	movwls	r0, #4096	; 0x1000
    489c:	00040701 	andeq	r0, r4, r1, lsl #14
    48a0:	00366d00 	eorseq	r6, r6, r0, lsl #26
    48a4:	233c2d00 	teqcs	ip, #0, 26
    48a8:	4c7b0000 	ldclmi	0, cr0, [fp], #-0
    48ac:	2c000000 	stccs	0, cr0, [r0], {-0}
    48b0:	00000900 	andeq	r0, r0, r0, lsl #18
    48b4:	f0018601 			; <UNDEFINED> instruction: 0xf0018601
    48b8:	28000022 	stmdacs	r0, {r1, r5}
    48bc:	01000000 	mrseq	r0, (UNDEF: 0)
    48c0:	0049159c 	umaaleq	r1, r9, ip, r5
    48c4:	69703700 	ldmdbvs	r0!, {r8, r9, sl, ip, sp}^
    48c8:	8601006e 	strhi	r0, [r1], -lr, rrx
    48cc:	0003f101 	andeq	pc, r3, r1, lsl #2
    48d0:	00368000 	eorseq	r8, r6, r0
    48d4:	0fe51a00 	svceq	0x00e51a00
    48d8:	88010000 	stmdahi	r1, {}	; <UNPREDICTABLE>
    48dc:	00045801 	andeq	r5, r4, r1, lsl #16
    48e0:	0036a100 	eorseq	sl, r6, r0, lsl #2
    48e4:	04e11a00 	strbteq	r1, [r1], #2560	; 0xa00
    48e8:	89010000 	stmdbhi	r1, {}	; <UNPREDICTABLE>
    48ec:	0003f101 	andeq	pc, r3, r1, lsl #2
    48f0:	0036e400 	eorseq	lr, r6, r0, lsl #8
    48f4:	05ef1a00 	strbeq	r1, [pc, #2560]!	; 52fc <__FRAME_END__+0xe34>
    48f8:	8a010000 	bhi	44900 <__bss_end__+0x2f894>
    48fc:	00040701 	andeq	r0, r4, r1, lsl #14
    4900:	00370b00 	eorseq	r0, r7, r0, lsl #22
    4904:	23143600 	tstcs	r4, #0, 12
    4908:	4c7b0000 	ldclmi	0, cr0, [fp], #-0
    490c:	01220000 			; <UNDEFINED> instruction: 0x01220000
    4910:	00300151 	eorseq	r0, r0, r1, asr r1
    4914:	0a592c00 	beq	164f91c <__bss_end__+0x163a8b0>
    4918:	7f010000 	svcvc	0x00010000
    491c:	0022c801 	eoreq	ip, r2, r1, lsl #16
    4920:	00002800 	andeq	r2, r0, r0, lsl #16
    4924:	759c0100 	ldrvc	r0, [ip, #256]	; 0x100
    4928:	37000049 	strcc	r0, [r0, -r9, asr #32]
    492c:	006e6970 	rsbeq	r6, lr, r0, ror r9
    4930:	f1017f01 			; <UNDEFINED> instruction: 0xf1017f01
    4934:	3c000003 	stccc	0, cr0, [r0], {3}
    4938:	1a000037 	bne	4a1c <__FRAME_END__+0x554>
    493c:	00000fe5 	andeq	r0, r0, r5, ror #31
    4940:	58018101 	stmdapl	r1, {r0, r8, pc}
    4944:	5d000004 	stcpl	0, cr0, [r0, #-16]
    4948:	1a000037 	bne	4a2c <__FRAME_END__+0x564>
    494c:	000004e1 	andeq	r0, r0, r1, ror #9
    4950:	f1018201 			; <UNDEFINED> instruction: 0xf1018201
    4954:	a0000003 	andge	r0, r0, r3
    4958:	1a000037 	bne	4a3c <__FRAME_END__+0x574>
    495c:	000005ef 	andeq	r0, r0, pc, ror #11
    4960:	07018301 	streq	r8, [r1, -r1, lsl #6]
    4964:	c7000004 	strgt	r0, [r0, -r4]
    4968:	2d000037 	stccs	0, cr0, [r0, #-220]	; 0xffffff24
    496c:	000022ec 	andeq	r2, r0, ip, ror #5
    4970:	00004c7b 	andeq	r4, r0, fp, ror ip
    4974:	04ed2c00 	strbteq	r2, [sp], #3072	; 0xc00
    4978:	78010000 	stmdavc	r1, {}	; <UNPREDICTABLE>
    497c:	0022b401 	eoreq	fp, r2, r1, lsl #8
    4980:	00001400 	andeq	r1, r0, r0, lsl #8
    4984:	bd9c0100 	ldflts	f0, [ip]
    4988:	2b000049 	blcs	4ab4 <__FRAME_END__+0x5ec>
    498c:	00000bd9 	ldrdeq	r0, [r0], -r9
    4990:	07017801 	streq	r7, [r1, -r1, lsl #16]
    4994:	da000004 	ble	49ac <__FRAME_END__+0x4e4>
    4998:	1a000037 	bne	4a7c <__FRAME_END__+0x5b4>
    499c:	00000fe5 	andeq	r0, r0, r5, ror #31
    49a0:	58017a01 	stmdapl	r1, {r0, r9, fp, ip, sp, lr}
    49a4:	06000004 	streq	r0, [r0], -r4
    49a8:	36000038 			; <UNDEFINED> instruction: 0x36000038
    49ac:	000022c2 	andeq	r2, r0, r2, asr #5
    49b0:	00004d18 	andeq	r4, r0, r8, lsl sp
    49b4:	03510122 	cmpeq	r1, #-2147483640	; 0x80000008
    49b8:	005001f3 	ldrsheq	r0, [r0], #-19	; 0xffffffed
    49bc:	15882c00 	strne	r2, [r8, #3072]	; 0xc00
    49c0:	70010000 	andvc	r0, r1, r0
    49c4:	00228c01 	eoreq	r8, r2, r1, lsl #24
    49c8:	00002800 	andeq	r2, r0, r0, lsl #16
    49cc:	1d9c0100 	ldfnes	f0, [ip]
    49d0:	3700004a 	strcc	r0, [r0, -sl, asr #32]
    49d4:	006e6970 	rsbeq	r6, lr, r0, ror r9
    49d8:	f1017001 			; <UNDEFINED> instruction: 0xf1017001
    49dc:	2c000003 	stccs	0, cr0, [r0], {3}
    49e0:	1a000038 	bne	4ac8 <__FRAME_END__+0x600>
    49e4:	00000fe5 	andeq	r0, r0, r5, ror #31
    49e8:	58017201 	stmdapl	r1, {r0, r9, ip, sp, lr}
    49ec:	4d000004 	stcmi	0, cr0, [r0, #-16]
    49f0:	1a000038 	bne	4ad8 <__FRAME_END__+0x610>
    49f4:	000004e1 	andeq	r0, r0, r1, ror #9
    49f8:	f1017301 			; <UNDEFINED> instruction: 0xf1017301
    49fc:	90000003 	andls	r0, r0, r3
    4a00:	1a000038 	bne	4ae8 <__FRAME_END__+0x620>
    4a04:	000005ef 	andeq	r0, r0, pc, ror #11
    4a08:	07017401 	streq	r7, [r1, -r1, lsl #8]
    4a0c:	b7000004 	strlt	r0, [r0, -r4]
    4a10:	2d000038 	stccs	0, cr0, [r0, #-224]	; 0xffffff20
    4a14:	000022ae 	andeq	r2, r0, lr, lsr #5
    4a18:	00004d18 	andeq	r4, r0, r8, lsl sp
    4a1c:	15a51900 	strne	r1, [r5, #2304]!	; 0x900
    4a20:	68010000 	stmdavs	r1, {}	; <UNPREDICTABLE>
    4a24:	00040701 	andeq	r0, r4, r1, lsl #14
    4a28:	00227400 	eoreq	r7, r2, r0, lsl #8
    4a2c:	00001800 	andeq	r1, r0, r0, lsl #16
    4a30:	719c0100 	orrsvc	r0, ip, r0, lsl #2
    4a34:	2b00004a 	blcs	4b64 <__FRAME_END__+0x69c>
    4a38:	00000bd9 	ldrdeq	r0, [r0], -r9
    4a3c:	07016801 	streq	r6, [r1, -r1, lsl #16]
    4a40:	e8000004 	stmda	r0, {r2}
    4a44:	1a000038 	bne	4b2c <__FRAME_END__+0x664>
    4a48:	00000fe5 	andeq	r0, r0, r5, ror #31
    4a4c:	58016a01 	stmdapl	r1, {r0, r9, fp, sp, lr}
    4a50:	14000004 	strne	r0, [r0], #-4
    4a54:	1a000039 	bne	4b40 <__FRAME_END__+0x678>
    4a58:	000005ef 	andeq	r0, r0, pc, ror #11
    4a5c:	07016b01 	streq	r6, [r1, -r1, lsl #22]
    4a60:	3a000004 	bcc	4a78 <__FRAME_END__+0x5b0>
    4a64:	24000039 	strcs	r0, [r0], #-57	; 0xffffffc7
    4a68:	00002284 	andeq	r2, r0, r4, lsl #5
    4a6c:	00004d57 	andeq	r4, r0, r7, asr sp
    4a70:	13bb1900 			; <UNDEFINED> instruction: 0x13bb1900
    4a74:	60010000 	andvs	r0, r1, r0
    4a78:	0003f101 	andeq	pc, r3, r1, lsl #2
    4a7c:	00224400 	eoreq	r4, r2, r0, lsl #8
    4a80:	00003000 	andeq	r3, r0, r0
    4a84:	d59c0100 	ldrle	r0, [ip, #256]	; 0x100
    4a88:	3700004a 	strcc	r0, [r0, -sl, asr #32]
    4a8c:	006e6970 	rsbeq	r6, lr, r0, ror r9
    4a90:	f1016001 			; <UNDEFINED> instruction: 0xf1016001
    4a94:	4d000003 	stcmi	0, cr0, [r0, #-12]
    4a98:	1a000039 	bne	4b84 <__FRAME_END__+0x6bc>
    4a9c:	00000fe5 	andeq	r0, r0, r5, ror #31
    4aa0:	58016201 	stmdapl	r1, {r0, r9, sp, lr}
    4aa4:	6e000004 	cdpvs	0, 0, cr0, cr0, cr4, {0}
    4aa8:	1a000039 	bne	4b94 <__FRAME_END__+0x6cc>
    4aac:	000004e1 	andeq	r0, r0, r1, ror #9
    4ab0:	f1016301 			; <UNDEFINED> instruction: 0xf1016301
    4ab4:	b1000003 	tstlt	r0, r3
    4ab8:	1a000039 	bne	4ba4 <__FRAME_END__+0x6dc>
    4abc:	000005ef 	andeq	r0, r0, pc, ror #11
    4ac0:	07016401 	streq	r6, [r1, -r1, lsl #8]
    4ac4:	d8000004 	stmdale	r0, {r2}
    4ac8:	24000039 	strcs	r0, [r0], #-57	; 0xffffffc7
    4acc:	0000225e 	andeq	r2, r0, lr, asr r2
    4ad0:	00004d57 	andeq	r4, r0, r7, asr sp
    4ad4:	069b1900 	ldreq	r1, [fp], r0, lsl #18
    4ad8:	55010000 	strpl	r0, [r1, #-0]
    4adc:	0003f101 	andeq	pc, r3, r1, lsl #2
    4ae0:	00221400 	eoreq	r1, r2, r0, lsl #8
    4ae4:	00003000 	andeq	r3, r0, r0
    4ae8:	399c0100 	ldmibcc	ip, {r8}
    4aec:	3700004b 	strcc	r0, [r0, -fp, asr #32]
    4af0:	006e6970 	rsbeq	r6, lr, r0, ror r9
    4af4:	f1015501 			; <UNDEFINED> instruction: 0xf1015501
    4af8:	eb000003 	bl	4b0c <__FRAME_END__+0x644>
    4afc:	1a000039 	bne	4be8 <__FRAME_END__+0x720>
    4b00:	00000fe5 	andeq	r0, r0, r5, ror #31
    4b04:	58015701 	stmdapl	r1, {r0, r8, r9, sl, ip, lr}
    4b08:	0c000004 	stceq	0, cr0, [r0], {4}
    4b0c:	1a00003a 	bne	4bfc <__FRAME_END__+0x734>
    4b10:	000004e1 	andeq	r0, r0, r1, ror #9
    4b14:	f1015801 			; <UNDEFINED> instruction: 0xf1015801
    4b18:	4f000003 	svcmi	0x00000003
    4b1c:	1a00003a 	bne	4c0c <__FRAME_END__+0x744>
    4b20:	000005ef 	andeq	r0, r0, pc, ror #11
    4b24:	07015901 	streq	r5, [r1, -r1, lsl #18]
    4b28:	76000004 	strvc	r0, [r0], -r4
    4b2c:	2400003a 	strcs	r0, [r0], #-58	; 0xffffffc6
    4b30:	0000222e 	andeq	r2, r0, lr, lsr #4
    4b34:	00004d57 	andeq	r4, r0, r7, asr sp
    4b38:	14463100 	strbne	r3, [r6], #-256	; 0xffffff00
    4b3c:	4e010000 	cdpmi	0, 0, cr0, cr1, cr0, {0}
    4b40:	4b5f0101 	blmi	17c4f4c <__bss_end__+0x17afee0>
    4b44:	d9270000 	stmdble	r7!, {}	; <UNPREDICTABLE>
    4b48:	0100000b 	tsteq	r0, fp
    4b4c:	0407014e 	streq	r0, [r7], #-334	; 0xfffffeb2
    4b50:	e5320000 	ldr	r0, [r2, #-0]!
    4b54:	0100000f 	tsteq	r0, pc
    4b58:	04580150 	ldrbeq	r0, [r8], #-336	; 0xfffffeb0
    4b5c:	31000000 	mrscc	r0, (UNDEF: 0)
    4b60:	00001191 	muleq	r0, r1, r1
    4b64:	01014701 	tsteq	r1, r1, lsl #14
    4b68:	00004b85 	andeq	r4, r0, r5, lsl #23
    4b6c:	000bd927 	andeq	sp, fp, r7, lsr #18
    4b70:	01470100 	mrseq	r0, (UNDEF: 87)
    4b74:	00000407 	andeq	r0, r0, r7, lsl #8
    4b78:	000fe532 	andeq	lr, pc, r2, lsr r5	; <UNPREDICTABLE>
    4b7c:	01490100 	mrseq	r0, (UNDEF: 89)
    4b80:	00000458 	andeq	r0, r0, r8, asr r4
    4b84:	0fa22c00 	svceq	0x00a22c00
    4b88:	3f010000 	svccc	0x00010000
    4b8c:	0021c401 	eoreq	ip, r1, r1, lsl #8
    4b90:	00002800 	andeq	r2, r0, r0, lsl #16
    4b94:	d59c0100 	ldrle	r0, [ip, #256]	; 0x100
    4b98:	3700004b 	strcc	r0, [r0, -fp, asr #32]
    4b9c:	006e6970 	rsbeq	r6, lr, r0, ror r9
    4ba0:	f1013f01 			; <UNDEFINED> instruction: 0xf1013f01
    4ba4:	89000003 	stmdbhi	r0, {r0, r1}
    4ba8:	1a00003a 	bne	4c98 <__FRAME_END__+0x7d0>
    4bac:	00000fe5 	andeq	r0, r0, r5, ror #31
    4bb0:	58014101 	stmdapl	r1, {r0, r8, lr}
    4bb4:	aa000004 	bge	4bcc <__FRAME_END__+0x704>
    4bb8:	1a00003a 	bne	4ca8 <__FRAME_END__+0x7e0>
    4bbc:	000004e1 	andeq	r0, r0, r1, ror #9
    4bc0:	f1014201 			; <UNDEFINED> instruction: 0xf1014201
    4bc4:	ed000003 	stc	0, cr0, [r0, #-12]
    4bc8:	2d00003a 	stccs	0, cr0, [r0, #-232]	; 0xffffff18
    4bcc:	000021e6 	andeq	r2, r0, r6, ror #3
    4bd0:	00004d18 	andeq	r4, r0, r8, lsl sp
    4bd4:	0f912c00 	svceq	0x00912c00
    4bd8:	37010000 	strcc	r0, [r1, -r0]
    4bdc:	00219c01 	eoreq	r9, r1, r1, lsl #24
    4be0:	00002800 	andeq	r2, r0, r0, lsl #16
    4be4:	259c0100 	ldrcs	r0, [ip, #256]	; 0x100
    4be8:	3700004c 	strcc	r0, [r0, -ip, asr #32]
    4bec:	006e6970 	rsbeq	r6, lr, r0, ror r9
    4bf0:	f1013701 			; <UNDEFINED> instruction: 0xf1013701
    4bf4:	14000003 	strne	r0, [r0], #-3
    4bf8:	1a00003b 	bne	4cec <__FRAME_END__+0x824>
    4bfc:	00000fe5 	andeq	r0, r0, r5, ror #31
    4c00:	58013901 	stmdapl	r1, {r0, r8, fp, ip, sp}
    4c04:	35000004 	strcc	r0, [r0, #-4]
    4c08:	1a00003b 	bne	4cfc <__FRAME_END__+0x834>
    4c0c:	000004e1 	andeq	r0, r0, r1, ror #9
    4c10:	f1013a01 			; <UNDEFINED> instruction: 0xf1013a01
    4c14:	78000003 	stmdavc	r0, {r0, r1}
    4c18:	2d00003b 	stccs	0, cr0, [r0, #-236]	; 0xffffff14
    4c1c:	000021be 			; <UNDEFINED> instruction: 0x000021be
    4c20:	00004d18 	andeq	r4, r0, r8, lsl sp
    4c24:	140c3100 	strne	r3, [ip], #-256	; 0xffffff00
    4c28:	2c010000 	stccs	0, cr0, [r1], {-0}
    4c2c:	4c7b0101 	ldfmie	f0, [fp], #-4
    4c30:	70290000 	eorvc	r0, r9, r0
    4c34:	01006e69 	tsteq	r0, r9, ror #28
    4c38:	03f1012c 	mvnseq	r0, #44, 2
    4c3c:	2f270000 	svccs	0x00270000
    4c40:	01000016 	tsteq	r0, r6, lsl r0
    4c44:	03f1012c 	mvnseq	r0, #44, 2
    4c48:	e5320000 	ldr	r0, [r2, #-0]!
    4c4c:	0100000f 	tsteq	r0, pc
    4c50:	0458012f 	ldrbeq	r0, [r8], #-303	; 0xfffffed1
    4c54:	e1320000 	teq	r2, r0
    4c58:	01000004 	tsteq	r0, r4
    4c5c:	03f10130 	mvnseq	r0, #48, 2
    4c60:	d9320000 	ldmdble	r2!, {}	; <UNPREDICTABLE>
    4c64:	0100000b 	tsteq	r0, fp
    4c68:	04070131 	streq	r0, [r7], #-305	; 0xfffffecf
    4c6c:	ef320000 	svc	0x00320000
    4c70:	01000005 	tsteq	r0, r5
    4c74:	04070132 	streq	r0, [r7], #-306	; 0xfffffece
    4c78:	2c000000 	stccs	0, cr0, [r0], {-0}
    4c7c:	00000202 	andeq	r0, r0, r2, lsl #4
    4c80:	3c010f01 	stccc	15, cr0, [r1], {1}
    4c84:	1e000021 	cdpne	0, 0, cr0, cr0, cr1, {1}
    4c88:	01000000 	mrseq	r0, (UNDEF: 0)
    4c8c:	004cf59c 	umaaleq	pc, ip, ip, r5	; <UNPREDICTABLE>
    4c90:	0fe52b00 	svceq	0x00e52b00
    4c94:	0f010000 	svceq	0x00010000
    4c98:	00045801 	andeq	r5, r4, r1, lsl #16
    4c9c:	003b9f00 	eorseq	r9, fp, r0, lsl #30
    4ca0:	05ef2b00 	strbeq	r2, [pc, #2816]!	; 57a8 <__FRAME_END__+0x12e0>
    4ca4:	0f010000 	svceq	0x00010000
    4ca8:	00040701 	andeq	r0, r4, r1, lsl #14
    4cac:	003bd600 	eorseq	sp, fp, r0, lsl #12
    4cb0:	0bd92b00 	bleq	ff64f8b8 <__bss_end__+0xff63a84c>
    4cb4:	0f010000 	svceq	0x00010000
    4cb8:	00040701 	andeq	r0, r4, r1, lsl #14
    4cbc:	003c0200 	eorseq	r0, ip, r0, lsl #4
    4cc0:	00761b00 	rsbseq	r1, r6, r0, lsl #22
    4cc4:	07011101 	streq	r1, [r1, -r1, lsl #2]
    4cc8:	2e000004 	cdpcs	0, 0, cr0, cr0, cr4, {0}
    4ccc:	2500003c 	strcs	r0, [r0, #-60]	; 0xffffffc4
    4cd0:	00002148 	andeq	r2, r0, r8, asr #2
    4cd4:	00004d57 	andeq	r4, r0, r7, asr sp
    4cd8:	00004ce3 	andeq	r4, r0, r3, ror #25
    4cdc:	02500122 	subseq	r0, r0, #-2147483640	; 0x80000008
    4ce0:	36000075 			; <UNDEFINED> instruction: 0x36000075
    4ce4:	0000215a 	andeq	r2, r0, sl, asr r1
    4ce8:	00004d18 	andeq	r4, r0, r8, lsl sp
    4cec:	03500122 	cmpeq	r0, #-2147483640	; 0x80000008
    4cf0:	005001f3 	ldrsheq	r0, [r0], #-19	; 0xffffffed
    4cf4:	145d4100 	ldrbne	r4, [sp], #-256	; 0xffffff00
    4cf8:	ff010000 			; <UNDEFINED> instruction: 0xff010000
    4cfc:	004d1801 	subeq	r1, sp, r1, lsl #16
    4d00:	0fe54200 	svceq	0x00e54200
    4d04:	ff010000 			; <UNDEFINED> instruction: 0xff010000
    4d08:	00000458 	andeq	r0, r0, r8, asr r4
    4d0c:	0005ef42 	andeq	lr, r5, r2, asr #30
    4d10:	07ff0100 	ldrbeq	r0, [pc, r0, lsl #2]!
    4d14:	00000004 	andeq	r0, r0, r4
    4d18:	000d7a41 	andeq	r7, sp, r1, asr #20
    4d1c:	01f00100 	mvnseq	r0, r0, lsl #2
    4d20:	00004d3b 	andeq	r4, r0, fp, lsr sp
    4d24:	000fe542 	andeq	lr, pc, r2, asr #10
    4d28:	58f00100 	ldmpl	r0!, {r8}^
    4d2c:	42000004 	andmi	r0, r0, #4
    4d30:	000005ef 	andeq	r0, r0, pc, ror #11
    4d34:	0407f001 	streq	pc, [r7], #-1
    4d38:	43000000 	movwmi	r0, #0
    4d3c:	00001050 	andeq	r1, r0, r0, asr r0
    4d40:	0407e001 	streq	lr, [r7], #-1
    4d44:	57010000 	strpl	r0, [r1, -r0]
    4d48:	4200004d 	andmi	r0, r0, #77	; 0x4d
    4d4c:	00000fe5 	andeq	r0, r0, r5, ror #31
    4d50:	0458e001 	ldrbeq	lr, [r8], #-1
    4d54:	43000000 	movwmi	r0, #0
    4d58:	000011d9 	ldrdeq	r1, [r0], -r9
    4d5c:	0407c901 	streq	ip, [r7], #-2305	; 0xfffff6ff
    4d60:	7e010000 	cdpvc	0, 0, cr0, cr1, cr0, {0}
    4d64:	4200004d 	andmi	r0, r0, #77	; 0x4d
    4d68:	00000fe5 	andeq	r0, r0, r5, ror #31
    4d6c:	0458c901 	ldrbeq	ip, [r8], #-2305	; 0xfffff6ff
    4d70:	72440000 	subvc	r0, r4, #0
    4d74:	01007465 	tsteq	r0, r5, ror #8
    4d78:	000407cb 	andeq	r0, r4, fp, asr #15
    4d7c:	f2450000 	vhadd.s8	d16, d5, d0
    4d80:	01000013 	tsteq	r0, r3, lsl r0
    4d84:	000025c1 	andeq	r2, r0, r1, asr #11
    4d88:	00208c00 	eoreq	r8, r0, r0, lsl #24
    4d8c:	00000600 	andeq	r0, r0, r0, lsl #12
    4d90:	469c0100 	ldrmi	r0, [ip], r0, lsl #2
    4d94:	000002ce 	andeq	r0, r0, lr, asr #5
    4d98:	2080bc01 	addcs	fp, r0, r1, lsl #24
    4d9c:	000c0000 	andeq	r0, ip, r0
    4da0:	9c010000 	stcls	0, cr0, [r1], {-0}
    4da4:	00004db4 			; <UNDEFINED> instruction: 0x00004db4
    4da8:	01006447 	tsteq	r0, r7, asr #8
    4dac:	0003f1bc 			; <UNDEFINED> instruction: 0x0003f1bc
    4db0:	00500100 	subseq	r0, r0, r0, lsl #2
    4db4:	0015e148 	andseq	lr, r5, r8, asr #2
    4db8:	469b0100 	ldrmi	r0, [fp], r0, lsl #2
    4dbc:	ec000004 	stc	0, cr0, [r0], {4}
    4dc0:	9400001f 	strls	r0, [r0], #-31	; 0xffffffe1
    4dc4:	01000000 	mrseq	r0, (UNDEF: 0)
    4dc8:	004ddd9c 	umaaleq	sp, sp, ip, sp
    4dcc:	15e94900 	strbne	r4, [r9, #2304]!	; 0x900
    4dd0:	9b010000 	blls	44dd8 <__bss_end__+0x2fd6c>
    4dd4:	000003f1 	strdeq	r0, [r0], -r1
    4dd8:	00003c6c 	andeq	r3, r0, ip, ror #24
    4ddc:	0c054a00 			; <UNDEFINED> instruction: 0x0c054a00
    4de0:	7d010000 	stcvc	0, cr0, [r1, #-0]
    4de4:	000003f1 	strdeq	r0, [r0], -r1
    4de8:	004df701 	subeq	pc, sp, r1, lsl #14
    4dec:	00624b00 	rsbeq	r4, r2, r0, lsl #22
    4df0:	03f17d01 	mvnseq	r7, #1, 26	; 0x40
    4df4:	4c000000 	stcmi	0, cr0, [r0], {-0}
    4df8:	00001219 	andeq	r1, r0, r9, lsl r2
    4dfc:	00452903 	subeq	r2, r5, r3, lsl #18
    4e00:	1f030000 	svcne	0x00030000
    4e04:	4200004e 	andmi	r0, r0, #78	; 0x4e
    4e08:	00000354 	andeq	r0, r0, r4, asr r3
    4e0c:	03102903 	tsteq	r0, #49152	; 0xc000
    4e10:	d6420000 	strble	r0, [r2], -r0
    4e14:	03000014 	movweq	r0, #20
    4e18:	00004529 	andeq	r4, r0, r9, lsr #10
    4e1c:	4e004d00 	cdpmi	13, 0, cr4, cr0, cr0, {0}
    4e20:	00001526 	andeq	r1, r0, r6, lsr #10
    4e24:	3a011902 	bcc	4b234 <__bss_end__+0x361c8>
    4e28:	03000000 	movweq	r0, #0
    4e2c:	00004e61 	andeq	r4, r0, r1, ror #28
    4e30:	00064227 	andeq	r4, r6, r7, lsr #4
    4e34:	01190200 	tsteq	r9, r0, lsl #4
    4e38:	000000d0 	ldrdeq	r0, [r0], -r0	; <UNPREDICTABLE>
    4e3c:	0009f727 	andeq	pc, r9, r7, lsr #14
    4e40:	01190200 	tsteq	r9, r0, lsl #4
    4e44:	0000003a 	andeq	r0, r0, sl, lsr r0
    4e48:	6e5f5f29 	cdpvs	15, 5, cr5, cr15, cr9, {1}
    4e4c:	01190200 	tsteq	r9, r0, lsl #4
    4e50:	0000003a 	andeq	r0, r0, sl, lsr r0
    4e54:	00000027 	andeq	r0, r0, r7, lsr #32
    4e58:	011a0200 	tsteq	sl, r0, lsl #4
    4e5c:	00000b60 	andeq	r0, r0, r0, ror #22
    4e60:	128b4c00 	addne	r4, fp, #0, 24
    4e64:	66020000 	strvs	r0, [r2], -r0
    4e68:	00000045 	andeq	r0, r0, r5, asr #32
    4e6c:	004e7e03 	subeq	r7, lr, r3, lsl #28
    4e70:	00394200 	eorseq	r4, r9, r0, lsl #4
    4e74:	66020000 	strvs	r0, [r2], -r0
    4e78:	00000316 	andeq	r0, r0, r6, lsl r3
    4e7c:	8a4c004d 	bhi	1304fb8 <__bss_end__+0x12eff4c>
    4e80:	02000012 	andeq	r0, r0, #18
    4e84:	0000455f 	andeq	r4, r0, pc, asr r5
    4e88:	4ea60300 	cdpmi	3, 10, cr0, cr6, cr0, {0}
    4e8c:	00420000 	subeq	r0, r2, r0
    4e90:	02000000 	andeq	r0, r0, #0
    4e94:	000b605f 	andeq	r6, fp, pc, asr r0
    4e98:	00394200 	eorseq	r4, r9, r0, lsl #4
    4e9c:	5f020000 	svcpl	0x00020000
    4ea0:	00000316 	andeq	r0, r0, r6, lsl r3
    4ea4:	3b4f004d 	blcc	13c4fe0 <__bss_end__+0x13aff74>
    4ea8:	2800004d 	stmdacs	r0, {r0, r2, r3, r6}
    4eac:	1800001f 	stmdane	r0, {r0, r1, r2, r3, r4}
    4eb0:	01000000 	mrseq	r0, (UNDEF: 0)
    4eb4:	004ef29c 	umaaleq	pc, lr, ip, r2	; <UNPREDICTABLE>
    4eb8:	4d4b2000 	stclmi	0, cr2, [fp, #-0]
    4ebc:	3c8d0000 	stccc	0, cr0, [sp], {0}
    4ec0:	61500000 	cmpvs	r0, r0
    4ec4:	2800004e 	stmdacs	r0, {r1, r2, r3, r6}
    4ec8:	0000001f 	andeq	r0, r0, pc, lsl r0
    4ecc:	01000000 	mrseq	r0, (UNDEF: 0)
    4ed0:	4e7120e4 	cdpmi	0, 7, cr2, cr1, cr4, {7}
    4ed4:	3cb90000 	ldccc	0, cr0, [r9]
    4ed8:	36210000 	strtcc	r0, [r1], -r0
    4edc:	8400001f 	strhi	r0, [r0], #-31	; 0xffffffe1
    4ee0:	22000056 	andcs	r0, r0, #86	; 0x56
    4ee4:	31015001 	tstcc	r1, r1
    4ee8:	03520122 	cmpeq	r2, #-2147483640	; 0x80000008
    4eec:	005001f3 	ldrsheq	r0, [r0], #-19	; 0xffffffed
    4ef0:	f54f0000 			; <UNDEFINED> instruction: 0xf54f0000
    4ef4:	4000004c 	andmi	r0, r0, ip, asr #32
    4ef8:	1400001f 	strne	r0, [r0], #-31	; 0xffffffe1
    4efc:	01000000 	mrseq	r0, (UNDEF: 0)
    4f00:	004f529c 	umaaleq	r5, pc, ip, r2	; <UNPREDICTABLE>
    4f04:	4d012000 	stcmi	0, cr2, [r1, #-0]
    4f08:	3cd10000 	ldclcc	0, cr0, [r1], {0}
    4f0c:	0c200000 	stceq	0, cr0, [r0], #-0
    4f10:	fd00004d 	stc2	0, cr0, [r0, #-308]	; 0xfffffecc
    4f14:	4000003c 	andmi	r0, r0, ip, lsr r0
    4f18:	00004e61 	andeq	r4, r0, r1, ror #28
    4f1c:	00001f40 	andeq	r1, r0, r0, asr #30
    4f20:	00000014 	andeq	r0, r0, r4, lsl r0
    4f24:	3d010301 	stccc	3, cr0, [r1, #-4]
    4f28:	00004e71 	andeq	r4, r0, r1, ror lr
    4f2c:	42600306 	rsbmi	r0, r0, #402653184	; 0x18000000
    4f30:	369f0000 	ldrcc	r0, [pc], r0
    4f34:	00001f4e 	andeq	r1, r0, lr, asr #30
    4f38:	00005684 	andeq	r5, r0, r4, lsl #13
    4f3c:	01500122 	cmpeq	r0, r2, lsr #2
    4f40:	52012231 	andpl	r2, r1, #268435459	; 0x10000003
    4f44:	5001f303 	andpl	pc, r1, r3, lsl #6
    4f48:	03530122 	cmpeq	r3, #-2147483640	; 0x80000008
    4f4c:	005101f3 	ldrsheq	r0, [r1], #-19	; 0xffffffed
    4f50:	d24f0000 	suble	r0, pc, #0
    4f54:	54000008 	strpl	r0, [r0], #-8
    4f58:	3c00001f 	stccc	0, cr0, [r0], {31}
    4f5c:	01000000 	mrseq	r0, (UNDEF: 0)
    4f60:	004f929c 	umaaleq	r9, pc, ip, r2	; <UNPREDICTABLE>
    4f64:	0b754000 	bleq	1d54f6c <__bss_end__+0x1d3ff00>
    4f68:	1f560000 	svcne	0x00560000
    4f6c:	00100000 	andseq	r0, r0, r0
    4f70:	5f010000 	svcpl	0x00010000
    4f74:	0b8e2008 	bleq	fe38cf9c <__bss_end__+0xfe377f30>
    4f78:	3d290000 	stccc	0, cr0, [r9, #-0]
    4f7c:	82200000 	eorhi	r0, r0, #0
    4f80:	4000000b 	andmi	r0, r0, fp
    4f84:	2400003d 	strcs	r0, [r0], #-61	; 0xffffffc3
    4f88:	00001f66 	andeq	r1, r0, r6, ror #30
    4f8c:	0000568f 	andeq	r5, r0, pc, lsl #13
    4f90:	a14f0000 	mrsge	r0, SPSR
    4f94:	9000000b 	andls	r0, r0, fp
    4f98:	5c00001f 	stcpl	0, cr0, [r0], {31}
    4f9c:	01000000 	mrseq	r0, (UNDEF: 0)
    4fa0:	0050a29c 			; <UNDEFINED> instruction: 0x0050a29c
    4fa4:	0bbe2000 	bleq	fef8cfac <__bss_end__+0xfef77f40>
    4fa8:	3d580000 	ldclcc	0, cr0, [r8, #-0]
    4fac:	ca200000 	bgt	804fb4 <__bss_end__+0x7eff48>
    4fb0:	8400000b 	strhi	r0, [r0], #-11
    4fb4:	2000003d 	andcs	r0, r0, sp, lsr r0
    4fb8:	00000bd5 	ldrdeq	r0, [r0], -r5
    4fbc:	00003db1 			; <UNDEFINED> instruction: 0x00003db1
    4fc0:	000be13b 	andeq	lr, fp, fp, lsr r1
    4fc4:	003dde00 	eorseq	sp, sp, r0, lsl #28
    4fc8:	0bb23d00 	bleq	fec943d0 <__bss_end__+0xfec7f364>
    4fcc:	03060000 	movweq	r0, #24576	; 0x6000
    4fd0:	0000428c 	andeq	r4, r0, ip, lsl #5
    4fd4:	0ba1519f 	bleq	fe859658 <__bss_end__+0xfe8445ec>
    4fd8:	1fb40000 	svcne	0x00b40000
    4fdc:	00220000 	eoreq	r0, r2, r0
    4fe0:	50710000 	rsbspl	r0, r1, r0
    4fe4:	b23d0000 	eorslt	r0, sp, #0
    4fe8:	0600000b 	streq	r0, [r0], -fp
    4fec:	00428c03 	subeq	r8, r2, r3, lsl #24
    4ff0:	be3d9f00 	cdplt	15, 3, cr9, cr13, cr0, {0}
    4ff4:	0400000b 	streq	r0, [r0], #-11
    4ff8:	9f5001f3 	svcls	0x005001f3
    4ffc:	000bca3d 	andeq	ip, fp, sp, lsr sl
    5000:	01f30400 	mvnseq	r0, r0, lsl #8
    5004:	d53d9f51 	ldrle	r9, [sp, #-3921]!	; 0xfffff0af
    5008:	0400000b 	streq	r0, [r0], #-11
    500c:	9f5201f3 	svcls	0x005201f3
    5010:	001fb434 	andseq	fp, pc, r4, lsr r4	; <UNPREDICTABLE>
    5014:	00002200 	andeq	r2, r0, r0, lsl #4
    5018:	0be13000 	bleq	ff851020 <__bss_end__+0xff83bfb4>
    501c:	7e1f0000 	cdpvc	0, 1, cr0, cr15, cr0, {0}
    5020:	c400004e 	strgt	r0, [r0], #-78	; 0xffffffb2
    5024:	1200001f 	andne	r0, r0, #31
    5028:	01000000 	mrseq	r0, (UNDEF: 0)
    502c:	505d07b3 	ldrhpl	r0, [sp], #-115	; 0xffffff8d
    5030:	993d0000 	ldmdbls	sp!, {}	; <UNPREDICTABLE>
    5034:	0600004e 	streq	r0, [r0], -lr, asr #32
    5038:	00429403 	subeq	r9, r2, r3, lsl #8
    503c:	8e209f00 	cdphi	15, 2, cr9, cr0, cr0, {0}
    5040:	0700004e 	streq	r0, [r0, -lr, asr #32]
    5044:	2100003e 	tstcs	r0, lr, lsr r0
    5048:	00001fd6 	ldrdeq	r1, [r0], -r6
    504c:	0000561f 	andeq	r5, r0, pc, lsl r6
    5050:	02500122 	subseq	r0, r0, #-2147483640	; 0x80000008
    5054:	01220075 			; <UNDEFINED> instruction: 0x01220075
    5058:	00310151 	eorseq	r0, r1, r1, asr r1
    505c:	1fbe2400 	svcne	0x00be2400
    5060:	564d0000 	strbpl	r0, [sp], -r0
    5064:	c4240000 	strtgt	r0, [r4], #-0
    5068:	5800001f 	stmdapl	r0, {r0, r1, r2, r3, r4}
    506c:	00000056 	andeq	r0, r0, r6, asr r0
    5070:	1fa42100 	svcne	0x00a42100
    5074:	569a0000 	ldrpl	r0, [sl], r0
    5078:	01220000 			; <UNDEFINED> instruction: 0x01220000
    507c:	22300150 	eorscs	r0, r0, #80, 2
    5080:	f3035101 	vrhadd.u8	d5, d3, d1
    5084:	01225001 			; <UNDEFINED> instruction: 0x01225001
    5088:	22330152 	eorscs	r0, r3, #-2147483628	; 0x80000014
    508c:	31015301 	tstcc	r1, r1, lsl #6
    5090:	007d0222 	rsbseq	r0, sp, r2, lsr #4
    5094:	5101f303 	tstpl	r1, r3, lsl #6	; <UNPREDICTABLE>
    5098:	047d0222 	ldrbteq	r0, [sp], #-546	; 0xfffffdde
    509c:	5201f303 	andpl	pc, r1, #201326592	; 0xc000000
    50a0:	574f0000 	strbpl	r0, [pc, -r0]
    50a4:	9400004d 	strls	r0, [r0], #-77	; 0xffffffb3
    50a8:	30000020 	andcc	r0, r0, r0, lsr #32
    50ac:	01000000 	mrseq	r0, (UNDEF: 0)
    50b0:	00511d9c 			; <UNDEFINED> instruction: 0x00511d9c
    50b4:	4d672000 	stclmi	0, cr2, [r7, #-0]
    50b8:	3e1a0000 	cdpcc	0, 1, cr0, cr10, cr0, {0}
    50bc:	723b0000 	eorsvc	r0, fp, #0
    50c0:	5f00004d 	svcpl	0x0000004d
    50c4:	5200003e 	andpl	r0, r0, #62	; 0x3e
    50c8:	00004d57 	andeq	r4, r0, r7, asr sp
    50cc:	000020aa 	andeq	r2, r0, sl, lsr #1
    50d0:	0000000e 	andeq	r0, r0, lr
    50d4:	004d6720 	subeq	r6, sp, r0, lsr #14
    50d8:	003e7200 	eorseq	r7, lr, r0, lsl #4
    50dc:	20aa3400 	adccs	r3, sl, r0, lsl #8
    50e0:	000e0000 	andeq	r0, lr, r0
    50e4:	be300000 	cdplt	0, 3, cr0, cr0, cr0, {0}
    50e8:	53000050 	movwpl	r0, #80	; 0x50
    50ec:	00004e61 	andeq	r4, r0, r1, ror #28
    50f0:	000020aa 	andeq	r2, r0, sl, lsr #1
    50f4:	0000000e 	andeq	r0, r0, lr
    50f8:	7120ce01 			; <UNDEFINED> instruction: 0x7120ce01
    50fc:	9300004e 	movwls	r0, #78	; 0x4e
    5100:	2100003e 	tstcs	r0, lr, lsr r0
    5104:	000020b6 	strheq	r2, [r0], -r6
    5108:	00005684 	andeq	r5, r0, r4, lsl #13
    510c:	01500122 	cmpeq	r0, r2, lsr #2
    5110:	52012231 	andpl	r2, r1, #268435459	; 0x10000003
    5114:	5001f303 	andpl	pc, r1, r3, lsl #6
    5118:	00000000 	andeq	r0, r0, r0
    511c:	4d3b4f00 	ldcmi	15, cr4, [fp, #-0]
    5120:	20c40000 	sbccs	r0, r4, r0
    5124:	00140000 	andseq	r0, r4, r0
    5128:	9c010000 	stcls	0, cr0, [r1], {-0}
    512c:	00005143 	andeq	r5, r0, r3, asr #2
    5130:	004d4b20 	subeq	r4, sp, r0, lsr #22
    5134:	003eab00 	eorseq	sl, lr, r0, lsl #22
    5138:	20d22d00 	sbcscs	r2, r2, r0, lsl #26
    513c:	4ea60000 	cdpmi	0, 10, cr0, cr6, cr0, {0}
    5140:	4f000000 	svcmi	0x00000000
    5144:	00004d18 	andeq	r4, r0, r8, lsl sp
    5148:	000020d8 	ldrdeq	r2, [r0], -r8
    514c:	00000034 	andeq	r0, r0, r4, lsr r0
    5150:	51be9c01 			; <UNDEFINED> instruction: 0x51be9c01
    5154:	24200000 	strtcs	r0, [r0], #-0
    5158:	e500004d 	str	r0, [r0, #-77]	; 0xffffffb3
    515c:	2000003e 	andcs	r0, r0, lr, lsr r0
    5160:	00004d2f 	andeq	r4, r0, pc, lsr #26
    5164:	00003f11 	andeq	r3, r0, r1, lsl pc
    5168:	004d1854 	subeq	r1, sp, r4, asr r8
    516c:	00001800 	andeq	r1, r0, r0, lsl #16
    5170:	4d2f2000 	stcmi	0, cr2, [pc, #-0]	; 5178 <__FRAME_END__+0xcb0>
    5174:	3f3d0000 	svccc	0x003d0000
    5178:	24200000 	strtcs	r0, [r0], #-0
    517c:	6900004d 	stmdbvs	r0, {r0, r2, r3, r6}
    5180:	5000003f 	andpl	r0, r0, pc, lsr r0
    5184:	00004e61 	andeq	r4, r0, r1, ror #28
    5188:	000020f2 	strdeq	r2, [r0], -r2	; <UNPREDICTABLE>
    518c:	00000030 	andeq	r0, r0, r0, lsr r0
    5190:	713df401 	teqvc	sp, r1, lsl #8	; <UNPREDICTABLE>
    5194:	0600004e 	streq	r0, [r0], -lr, asr #32
    5198:	0042d803 	subeq	sp, r2, r3, lsl #16
    519c:	04369f00 	ldrteq	r9, [r6], #-3840	; 0xfffff100
    51a0:	84000021 	strhi	r0, [r0], #-33	; 0xffffffdf
    51a4:	22000056 	andcs	r0, r0, #86	; 0x56
    51a8:	31015001 	tstcc	r1, r1
    51ac:	03520122 	cmpeq	r2, #-2147483640	; 0x80000008
    51b0:	225001f3 	subscs	r0, r0, #-1073741764	; 0xc000003c
    51b4:	f3035301 	vcgt.u8	d5, d3, d1
    51b8:	00005101 	andeq	r5, r0, r1, lsl #2
    51bc:	a94f0000 	stmdbge	pc, {}^	; <UNPREDICTABLE>
    51c0:	0c000044 	stceq	0, cr0, [r0], {68}	; 0x44
    51c4:	14000021 	strne	r0, [r0], #-33	; 0xffffffdf
    51c8:	01000000 	mrseq	r0, (UNDEF: 0)
    51cc:	0051fb9c 			; <UNDEFINED> instruction: 0x0051fb9c
    51d0:	44b62000 	ldrtmi	r2, [r6], #0
    51d4:	3f950000 	svccc	0x00950000
    51d8:	c2520000 	subsgt	r0, r2, #0
    51dc:	0c000044 	stceq	0, cr0, [r0], {68}	; 0x44
    51e0:	14000021 	strne	r0, [r0], #-33	; 0xffffffdf
    51e4:	3b000000 	blcc	51ec <__FRAME_END__+0xd24>
    51e8:	000044c3 	andeq	r4, r0, r3, asr #9
    51ec:	00003fb6 			; <UNDEFINED> instruction: 0x00003fb6
    51f0:	00211a2d 	eoreq	r1, r1, sp, lsr #20
    51f4:	004d1800 	subeq	r1, sp, r0, lsl #16
    51f8:	4f000000 	svcmi	0x00000000
    51fc:	00004cf5 	strdeq	r4, [r0], -r5
    5200:	00002120 	andeq	r2, r0, r0, lsr #2
    5204:	0000001c 	andeq	r0, r0, ip, lsl r0
    5208:	522a9c01 	eorpl	r9, sl, #256	; 0x100
    520c:	01200000 			; <UNDEFINED> instruction: 0x01200000
    5210:	dd00004d 	stcle	0, cr0, [r0, #-308]	; 0xfffffecc
    5214:	2000003f 	andcs	r0, r0, pc, lsr r0
    5218:	00004d0c 	andeq	r4, r0, ip, lsl #26
    521c:	00003ffe 	strdeq	r3, [r0], -lr
    5220:	0021362d 	eoreq	r3, r1, sp, lsr #12
    5224:	004ef200 	subeq	pc, lr, r0, lsl #4
    5228:	254f0000 	strbcs	r0, [pc, #-0]	; 5230 <__FRAME_END__+0xd68>
    522c:	5c00004c 	stcpl	0, cr0, [r0], {76}	; 0x4c
    5230:	40000021 	andmi	r0, r0, r1, lsr #32
    5234:	01000000 	mrseq	r0, (UNDEF: 0)
    5238:	00527d9c 			; <UNDEFINED> instruction: 0x00527d9c
    523c:	4c322000 	ldcmi	0, cr2, [r2], #-0
    5240:	401f0000 	andsmi	r0, pc, r0
    5244:	3e200000 	cdpcc	0, 2, cr0, cr0, cr0, {0}
    5248:	4000004c 	andmi	r0, r0, ip, asr #32
    524c:	3b000040 	blcc	5354 <__FRAME_END__+0xe8c>
    5250:	00004c4a 	andeq	r4, r0, sl, asr #24
    5254:	00004061 	andeq	r4, r0, r1, rrx
    5258:	004c563b 	subeq	r5, ip, fp, lsr r6
    525c:	0040ac00 	subeq	sl, r0, r0, lsl #24
    5260:	4c623b00 			; <UNDEFINED> instruction: 0x4c623b00
    5264:	40d70000 	sbcsmi	r0, r7, r0
    5268:	6e3b0000 	cdpvs	0, 3, cr0, cr11, cr0, {0}
    526c:	f900004c 			; <UNDEFINED> instruction: 0xf900004c
    5270:	2d000040 	stccs	0, cr0, [r0, #-256]	; 0xffffff00
    5274:	00002196 	muleq	r0, r6, r1
    5278:	00004c7b 	andeq	r4, r0, fp, ror ip
    527c:	4b5f4f00 	blmi	17d8e84 <__bss_end__+0x17c3e18>
    5280:	21ec0000 	mvncs	r0, r0
    5284:	00140000 	andseq	r0, r4, r0
    5288:	9c010000 	stcls	0, cr0, [r1], {-0}
    528c:	000052b4 			; <UNDEFINED> instruction: 0x000052b4
    5290:	004b6c20 	subeq	r6, fp, r0, lsr #24
    5294:	00412800 	subeq	r2, r1, r0, lsl #16
    5298:	4b783b00 	blmi	1e13ea0 <__bss_end__+0x1dfee34>
    529c:	41540000 	cmpmi	r4, r0
    52a0:	fa360000 	blx	d852a8 <__bss_end__+0xd7023c>
    52a4:	18000021 	stmdane	r0, {r0, r5}
    52a8:	2200004d 	andcs	r0, r0, #77	; 0x4d
    52ac:	f3035101 	vrhadd.u8	d5, d3, d1
    52b0:	00005001 	andeq	r5, r0, r1
    52b4:	004b394f 	subeq	r3, fp, pc, asr #18
    52b8:	00220000 	eoreq	r0, r2, r0
    52bc:	00001400 	andeq	r1, r0, r0, lsl #8
    52c0:	eb9c0100 	bl	fe7056c8 <__bss_end__+0xfe6f065c>
    52c4:	20000052 	andcs	r0, r0, r2, asr r0
    52c8:	00004b46 	andeq	r4, r0, r6, asr #22
    52cc:	0000417a 	andeq	r4, r0, sl, ror r1
    52d0:	004b523b 	subeq	r5, fp, fp, lsr r2
    52d4:	0041a600 	subeq	sl, r1, r0, lsl #12
    52d8:	220e3600 	andcs	r3, lr, #0, 12
    52dc:	4d180000 	ldcmi	0, cr0, [r8, #-0]
    52e0:	01220000 			; <UNDEFINED> instruction: 0x01220000
    52e4:	01f30351 	mvnseq	r0, r1, asr r3
    52e8:	4f000050 	svcmi	0x00000050
    52ec:	000044a9 	andeq	r4, r0, r9, lsr #9
    52f0:	000024a8 	andeq	r2, r0, r8, lsr #9
    52f4:	00000014 	andeq	r0, r0, r4, lsl r0
    52f8:	53119c01 	tstpl	r1, #256	; 0x100
    52fc:	b6200000 	strtlt	r0, [r0], -r0
    5300:	cc000044 	stcgt	0, cr0, [r0], {68}	; 0x44
    5304:	2d000041 	stccs	0, cr0, [r0, #-260]	; 0xfffffefc
    5308:	000024b6 			; <UNDEFINED> instruction: 0x000024b6
    530c:	000051be 			; <UNDEFINED> instruction: 0x000051be
    5310:	43a34f00 			; <UNDEFINED> instruction: 0x43a34f00
    5314:	24f80000 	ldrbtcs	r0, [r8], #0
    5318:	00580000 	subseq	r0, r8, r0
    531c:	9c010000 	stcls	0, cr0, [r1], {-0}
    5320:	00005358 	andeq	r5, r0, r8, asr r3
    5324:	0043b020 	subeq	fp, r3, r0, lsr #32
    5328:	0041ed00 	subeq	lr, r1, r0, lsl #26
    532c:	43bc5500 			; <UNDEFINED> instruction: 0x43bc5500
    5330:	91020000 	mrsls	r0, (UNDEF: 2)
    5334:	2536255c 	ldrcs	r2, [r6, #-1372]!	; 0xfffffaa4
    5338:	56790000 	ldrbtpl	r0, [r9], -r0
    533c:	534e0000 	movtpl	r0, #57344	; 0xe000
    5340:	01220000 			; <UNDEFINED> instruction: 0x01220000
    5344:	5c910250 	lfmpl	f0, 4, [r1], {80}	; 0x50
    5348:	01510122 	cmpeq	r1, r2, lsr #2
    534c:	46240030 			; <UNDEFINED> instruction: 0x46240030
    5350:	64000025 	strvs	r0, [r0], #-37	; 0xffffffdb
    5354:	00000056 	andeq	r0, r0, r6, asr r0
    5358:	003ba24f 	eorseq	sl, fp, pc, asr #4
    535c:	0026dc00 	eoreq	sp, r6, r0, lsl #24
    5360:	00001400 	andeq	r1, r0, r0, lsl #8
    5364:	879c0100 	ldrhi	r0, [ip, r0, lsl #2]
    5368:	20000053 	andcs	r0, r0, r3, asr r0
    536c:	00003baf 	andeq	r3, r0, pc, lsr #23
    5370:	0000420e 	andeq	r4, r0, lr, lsl #4
    5374:	003bbb3b 	eorseq	fp, fp, fp, lsr fp
    5378:	00422f00 	subeq	r2, r2, r0, lsl #30
    537c:	26ea2d00 	strbtcs	r2, [sl], r0, lsl #26
    5380:	4d180000 	ldcmi	0, cr0, [r8, #-0]
    5384:	56000000 	strpl	r0, [r0], -r0
    5388:	00002fa4 	andeq	r2, r0, r4, lsr #31
    538c:	00002b90 	muleq	r0, r0, fp
    5390:	00000046 	andeq	r0, r0, r6, asr #32
    5394:	53ad9c01 			; <UNDEFINED> instruction: 0x53ad9c01
    5398:	b5200000 	strlt	r0, [r0, #-0]!
    539c:	5500002f 	strpl	r0, [r0, #-47]	; 0xffffffd1
    53a0:	3b000042 	blcc	54b0 <__FRAME_END__+0xfe8>
    53a4:	00002fc1 	andeq	r2, r0, r1, asr #31
    53a8:	00004281 	andeq	r4, r0, r1, lsl #5
    53ac:	2f8a4f00 	svccs	0x008a4f00
    53b0:	2bd80000 	blcs	ff6053b8 <__bss_end__+0xff5f034c>
    53b4:	000c0000 	andeq	r0, ip, r0
    53b8:	9c010000 	stcls	0, cr0, [r1], {-0}
    53bc:	000053c8 	andeq	r5, r0, r8, asr #7
    53c0:	002f973d 	eoreq	r9, pc, sp, lsr r7	; <UNPREDICTABLE>
    53c4:	00500100 	subseq	r0, r0, r0, lsl #2
    53c8:	0040ac4f 	subeq	sl, r0, pc, asr #24
    53cc:	00379400 	eorseq	r9, r7, r0, lsl #8
    53d0:	0000c800 	andeq	ip, r0, r0, lsl #16
    53d4:	319c0100 	orrscc	r0, ip, r0, lsl #2
    53d8:	20000055 	andcs	r0, r0, r5, asr r0
    53dc:	000040b9 	strheq	r4, [r0], -r9
    53e0:	000042c1 	andeq	r4, r0, r1, asr #5
    53e4:	0040c520 	subeq	ip, r0, r0, lsr #10
    53e8:	00431400 	subeq	r1, r3, r0, lsl #8
    53ec:	40ac5700 	adcmi	r5, ip, r0, lsl #14
    53f0:	04f00000 	ldrbteq	r0, [r0], #0
    53f4:	54950000 	ldrpl	r0, [r5], #0
    53f8:	c5200000 	strgt	r0, [r0, #-0]!
    53fc:	67000040 	strvs	r0, [r0, -r0, asr #32]
    5400:	20000043 	andcs	r0, r0, r3, asr #32
    5404:	000040b9 	strheq	r4, [r0], -r9
    5408:	000043a1 	andeq	r4, r0, r1, lsr #7
    540c:	0040d154 	subeq	sp, r0, r4, asr r1
    5410:	0004f000 	andeq	pc, r4, r0
    5414:	40d23b00 	sbcsmi	r3, r2, r0, lsl #22
    5418:	43db0000 	bicsmi	r0, fp, #0
    541c:	de3b0000 	cdple	0, 3, cr0, cr11, cr0, {0}
    5420:	f9000040 			; <UNDEFINED> instruction: 0xf9000040
    5424:	3b000043 	blcc	5538 <__FRAME_END__+0x1070>
    5428:	000040ea 	andeq	r4, r0, sl, ror #1
    542c:	0000442d 	andeq	r4, r0, sp, lsr #8
    5430:	0040f63b 	subeq	pc, r0, fp, lsr r6	; <UNPREDICTABLE>
    5434:	00444100 	subeq	r4, r4, r0, lsl #2
    5438:	4d3b2300 	ldcmi	3, cr2, [fp, #-0]
    543c:	37ba0000 	ldrcc	r0, [sl, r0]!
    5440:	05100000 	ldreq	r0, [r0, #-0]
    5444:	89010000 	stmdbhi	r1, {}	; <UNPREDICTABLE>
    5448:	00546702 	subseq	r6, r4, r2, lsl #14
    544c:	4d4b2000 	stclmi	0, cr2, [fp, #-0]
    5450:	446a0000 	strbtmi	r0, [sl], #-0
    5454:	2a210000 	bcs	84545c <__bss_end__+0x8303f0>
    5458:	a6000038 			; <UNDEFINED> instruction: 0xa6000038
    545c:	2200004e 	andcs	r0, r0, #78	; 0x4e
    5460:	79025001 	stmdbvc	r2, {r0, ip, lr}
    5464:	2e000000 	cdpcs	0, 0, cr0, cr0, cr0, {0}
    5468:	00004cf5 	strdeq	r4, [r0], -r5
    546c:	000037e2 	andeq	r3, r0, r2, ror #15
    5470:	00000540 	andeq	r0, r0, r0, asr #10
    5474:	20028d01 	andcs	r8, r2, r1, lsl #26
    5478:	00004d0c 	andeq	r4, r0, ip, lsl #26
    547c:	00004488 	andeq	r4, r0, r8, lsl #9
    5480:	004d0120 	subeq	r0, sp, r0, lsr #2
    5484:	0044a600 	subeq	sl, r4, r0, lsl #12
    5488:	38402d00 	stmdacc	r0, {r8, sl, fp, sp}^
    548c:	4ef20000 	cdpmi	0, 15, cr0, cr2, cr0, {0}
    5490:	00000000 	andeq	r0, r0, r0
    5494:	44a91f00 	strtmi	r1, [r9], #3840	; 0xf00
    5498:	37ea0000 	strbcc	r0, [sl, r0]!
    549c:	00060000 	andeq	r0, r6, r0
    54a0:	91010000 	mrsls	r0, (UNDEF: 1)
    54a4:	0054bc02 	subseq	fp, r4, r2, lsl #24
    54a8:	44b62000 	ldrtmi	r2, [r6], #0
    54ac:	44cf0000 	strbmi	r0, [pc], #0	; 54b4 <__FRAME_END__+0xfec>
    54b0:	f0240000 			; <UNDEFINED> instruction: 0xf0240000
    54b4:	be000037 	mcrlt	0, 0, r0, cr0, cr7, {1}
    54b8:	00000051 	andeq	r0, r0, r1, asr r0
    54bc:	0044a923 	subeq	sl, r4, r3, lsr #18
    54c0:	00380800 	eorseq	r0, r8, r0, lsl #16
    54c4:	00056800 	andeq	r6, r5, r0, lsl #16
    54c8:	02950100 	addseq	r0, r5, #0, 2
    54cc:	000054e3 	andeq	r5, r0, r3, ror #9
    54d0:	0044b620 	subeq	fp, r4, r0, lsr #12
    54d4:	0044f000 	subeq	pc, r4, r0
    54d8:	38442400 	stmdacc	r4, {sl, sp}^
    54dc:	51be0000 			; <UNDEFINED> instruction: 0x51be0000
    54e0:	24000000 	strcs	r0, [r0], #-0
    54e4:	000037f8 	strdeq	r3, [r0], -r8
    54e8:	000042a8 	andeq	r4, r0, r8, lsr #5
    54ec:	00380025 	eorseq	r0, r8, r5, lsr #32
    54f0:	00446a00 	subeq	r6, r4, r0, lsl #20
    54f4:	00550500 	subseq	r0, r5, r0, lsl #10
    54f8:	50012200 	andpl	r2, r1, r0, lsl #4
    54fc:	22007402 	andcs	r7, r0, #33554432	; 0x2000000
    5500:	31015101 	tstcc	r1, r1, lsl #2
    5504:	38082400 	stmdacc	r8, {sl, sp}
    5508:	42a80000 	adcmi	r0, r8, #0
    550c:	1a330000 	bne	cc5514 <__bss_end__+0xcb04a8>
    5510:	6a000038 	bvs	55f8 <__FRAME_END__+0x1130>
    5514:	21000044 	tstcs	r0, r4, asr #32
    5518:	22000055 	andcs	r0, r0, #85	; 0x55
    551c:	30015101 	andcc	r5, r1, r1, lsl #2
    5520:	38503600 	ldmdacc	r0, {r9, sl, ip, sp}^
    5524:	446a0000 	strbtmi	r0, [sl], #-0
    5528:	01220000 			; <UNDEFINED> instruction: 0x01220000
    552c:	00300151 	eorseq	r0, r0, r1, asr r1
    5530:	446a4f00 	strbtmi	r4, [sl], #-3840	; 0xfffff100
    5534:	385c0000 	ldmdacc	ip, {}^	; <UNPREDICTABLE>
    5538:	004c0000 	subeq	r0, ip, r0
    553c:	9c010000 	stcls	0, cr0, [r1], {-0}
    5540:	0000559d 	muleq	r0, sp, r5
    5544:	00447720 	subeq	r7, r4, r0, lsr #14
    5548:	00451000 	subeq	r1, r5, r0
    554c:	44832000 	strmi	r2, [r3], #0
    5550:	454a0000 	strbmi	r0, [sl, #-0]
    5554:	6a570000 	bvs	15c555c <__bss_end__+0x15b04f0>
    5558:	80000044 	andhi	r0, r0, r4, asr #32
    555c:	7b000005 	blvc	5578 <__FRAME_END__+0x10b0>
    5560:	20000055 	andcs	r0, r0, r5, asr r0
    5564:	00004483 	andeq	r4, r0, r3, lsl #9
    5568:	00004584 	andeq	r4, r0, r4, lsl #11
    556c:	00447738 	subeq	r7, r4, r8, lsr r7
    5570:	38782d00 	ldmdacc	r8!, {r8, sl, fp, sp}^
    5574:	40ac0000 	adcmi	r0, ip, r0
    5578:	2f000000 	svccs	0x00000000
    557c:	00000598 	muleq	r0, r8, r5
    5580:	00448f3b 	subeq	r8, r4, fp, lsr pc
    5584:	00459700 	subeq	r9, r5, r0, lsl #14
    5588:	449b3b00 	ldrmi	r3, [fp], #2816	; 0xb00
    558c:	45bc0000 	ldrmi	r0, [ip, #0]!
    5590:	9e2d0000 	cdpls	0, 2, cr0, cr13, cr0, {0}
    5594:	18000038 	stmdane	r0, {r3, r4, r5}
    5598:	0000004d 	andeq	r0, r0, sp, asr #32
    559c:	0ee04f00 	cdpeq	15, 14, cr4, cr0, cr0, {0}
    55a0:	3b780000 	blcc	1e055a8 <__bss_end__+0x1df053c>
    55a4:	00160000 	andseq	r0, r6, r0
    55a8:	9c010000 	stcls	0, cr0, [r1], {-0}
    55ac:	000055d8 	ldrdeq	r5, [r0], -r8
    55b0:	000eed20 	andeq	lr, lr, r0, lsr #26
    55b4:	0045d300 	subeq	sp, r5, r0, lsl #6
    55b8:	0ef92000 	cdpeq	0, 15, cr2, cr9, cr0, {0}
    55bc:	45fb0000 	ldrbmi	r0, [fp, #0]!
    55c0:	05550000 	ldrbeq	r0, [r5, #-0]
    55c4:	0600000f 	streq	r0, [r0], -pc
    55c8:	55049354 	strpl	r9, [r4, #-852]	; 0xfffffcac
    55cc:	84240493 	strthi	r0, [r4], #-1171	; 0xfffffb6d
    55d0:	1200003b 	andne	r0, r0, #59	; 0x3b
    55d4:	0000000f 	andeq	r0, r0, pc
    55d8:	0008d24f 	andeq	sp, r8, pc, asr #4
    55dc:	00406400 	subeq	r6, r0, r0, lsl #8
    55e0:	00001800 	andeq	r1, r0, r0, lsl #16
    55e4:	f59c0100 			; <UNDEFINED> instruction: 0xf59c0100
    55e8:	24000055 	strcs	r0, [r0], #-85	; 0xffffffab
    55ec:	00004072 	andeq	r4, r0, r2, ror r0
    55f0:	00004f52 	andeq	r4, r0, r2, asr pc
    55f4:	15265800 	strne	r5, [r6, #-2048]!	; 0xfffff800
    55f8:	03fb0000 	mvnseq	r0, #0
    55fc:	0c020000 	stceq	0, cr0, [r2], {-0}
    5600:	00152601 	andseq	r2, r5, r1, lsl #12
    5604:	059b5900 	ldreq	r5, [fp, #2304]	; 0x900
    5608:	059b0000 	ldreq	r0, [fp]
    560c:	c7080000 	strgt	r0, [r8, -r0]
    5610:	0012195a 	andseq	r1, r2, sl, asr r9
    5614:	0009b300 	andeq	fp, r9, r0, lsl #6
    5618:	191b0300 	ldmdbne	fp, {r8, r9}
    561c:	59000012 	stmdbpl	r0, {r1, r4}
    5620:	00000a0f 	andeq	r0, r0, pc, lsl #20
    5624:	00000a0f 	andeq	r0, r0, pc, lsl #20
    5628:	18595502 	ldmdane	r9, {r1, r8, sl, ip, lr}^
    562c:	18000012 	stmdane	r0, {r1, r4}
    5630:	08000012 	stmdaeq	r0, {r1, r4}
    5634:	01fa5be8 	mvnseq	r5, r8, ror #23
    5638:	01fa0000 	mvnseq	r0, r0
    563c:	a90c0000 	stmdbge	ip, {}	; <UNPREDICTABLE>
    5640:	02c15b02 	sbceq	r5, r1, #2048	; 0x800
    5644:	02c10000 	sbceq	r0, r1, #0
    5648:	640c0000 	strvs	r0, [ip], #-0
    564c:	06d75901 	ldrbeq	r5, [r7], r1, lsl #18
    5650:	06d70000 	ldrbeq	r0, [r7], r0
    5654:	25100000 	ldrcs	r0, [r0, #-0]
    5658:	0005155b 	andeq	r1, r5, fp, asr r5
    565c:	00051500 	andeq	r1, r5, r0, lsl #10
    5660:	018c1100 	orreq	r1, ip, r0, lsl #2
    5664:	000a755c 	andeq	r7, sl, ip, asr r5
    5668:	000a7500 	andeq	r7, sl, r0, lsl #10
    566c:	15795b00 	ldrbne	r5, [r9, #-2816]!	; 0xfffff500
    5670:	15790000 	ldrbne	r0, [r9, #-0]!
    5674:	41120000 	tstmi	r2, r0
    5678:	048e5902 	streq	r5, [lr], #2306	; 0x902
    567c:	048e0000 	streq	r0, [lr], #0
    5680:	d30b0000 	movwle	r0, #45056	; 0xb000
    5684:	00032059 	andeq	r2, r3, r9, asr r0
    5688:	00032000 	andeq	r2, r3, r0
    568c:	59570200 	ldmdbpl	r7, {r9}^
    5690:	00000028 	andeq	r0, r0, r8, lsr #32
    5694:	00000028 	andeq	r0, r0, r8, lsr #32
    5698:	61594c13 	cmpvs	r9, r3, lsl ip
    569c:	61000007 	tstvs	r0, r7
    56a0:	13000007 	movwne	r0, #7
    56a4:	Address 0x000056a4 is out of bounds.


Disassembly of section .debug_abbrev:

00000000 <.debug_abbrev>:
   0:	25011101 	strcs	r1, [r1, #-257]	; 0xfffffeff
   4:	030b130e 	movweq	r1, #45838	; 0xb30e
   8:	110e1b0e 	tstne	lr, lr, lsl #22
   c:	10061201 	andne	r1, r6, r1, lsl #4
  10:	02000017 	andeq	r0, r0, #23
  14:	0b0b0024 	bleq	2c00ac <__bss_end__+0x2ab040>
  18:	0e030b3e 	vmoveq.16	d3[0], r0
  1c:	16030000 	strne	r0, [r3], -r0
  20:	3a0e0300 	bcc	380c28 <__bss_end__+0x36bbbc>
  24:	490b3b0b 	stmdbmi	fp, {r0, r1, r3, r8, r9, fp, ip, sp}
  28:	04000013 	streq	r0, [r0], #-19	; 0xffffffed
  2c:	0b0b0024 	bleq	2c00c4 <__bss_end__+0x2ab058>
  30:	08030b3e 	stmdaeq	r3, {r1, r2, r3, r4, r5, r8, r9, fp}
  34:	0f050000 	svceq	0x00050000
  38:	000b0b00 	andeq	r0, fp, r0, lsl #22
  3c:	00370600 	eorseq	r0, r7, r0, lsl #12
  40:	00001349 	andeq	r1, r0, r9, asr #6
  44:	0b000f07 	bleq	3c68 <bcm2835_pwm_set_mode+0x20>
  48:	0013490b 	andseq	r4, r3, fp, lsl #18
  4c:	00260800 	eoreq	r0, r6, r0, lsl #16
  50:	00001349 	andeq	r1, r0, r9, asr #6
  54:	03011309 	movweq	r1, #4873	; 0x1309
  58:	3a0b0b0e 	bcc	2c2c98 <__bss_end__+0x2adc2c>
  5c:	010b3b0b 	tsteq	fp, fp, lsl #22
  60:	0a000013 	beq	b4 <_init-0x664>
  64:	0e03000d 	cdpeq	0, 0, cr0, cr3, cr13, {0}
  68:	0b3b0b3a 	bleq	ec2d58 <__bss_end__+0xeadcec>
  6c:	0b381349 	bleq	e04d98 <__bss_end__+0xdefd2c>
  70:	0d0b0000 	stceq	0, cr0, [fp, #-0]
  74:	3a0e0300 	bcc	380c7c <__bss_end__+0x36bc10>
  78:	49053b0b 	stmdbmi	r5, {r0, r1, r3, r8, r9, fp, ip, sp}
  7c:	000b3813 	andeq	r3, fp, r3, lsl r8
  80:	00160c00 	andseq	r0, r6, r0, lsl #24
  84:	0b3a0e03 	bleq	e83898 <__bss_end__+0xe6e82c>
  88:	00000b3b 	andeq	r0, r0, fp, lsr fp
  8c:	4901010d 	stmdbmi	r1, {r0, r2, r3, r8}
  90:	00130113 	andseq	r0, r3, r3, lsl r1
  94:	00210e00 	eoreq	r0, r1, r0, lsl #28
  98:	0b2f1349 	bleq	bc4dc4 <__bss_end__+0xbafd58>
  9c:	130f0000 	movwne	r0, #61440	; 0xf000
  a0:	3c0e0300 	stccc	3, cr0, [lr], {-0}
  a4:	10000019 	andne	r0, r0, r9, lsl r0
  a8:	0e030034 	mcreq	0, 0, r0, cr3, cr4, {1}
  ac:	053b0b3a 	ldreq	r0, [fp, #-2874]!	; 0xfffff4c6
  b0:	193f1349 	ldmdbne	pc!, {r0, r3, r6, r8, r9, ip}	; <UNPREDICTABLE>
  b4:	0000193c 	andeq	r1, r0, ip, lsr r9
  b8:	03003411 	movweq	r3, #1041	; 0x411
  bc:	3b0b3a0e 	blcc	2ce8fc <__bss_end__+0x2b9890>
  c0:	3f13490b 	svccc	0x0013490b
  c4:	00193c19 	andseq	r3, r9, r9, lsl ip
  c8:	00351200 	eorseq	r1, r5, r0, lsl #4
  cc:	00001349 	andeq	r1, r0, r9, asr #6
  d0:	3e010413 	cfmvdlrcc	mvd1, r0
  d4:	490b0b0b 	stmdbmi	fp, {r0, r1, r3, r8, r9, fp}
  d8:	3b0b3a13 	blcc	2ce92c <__bss_end__+0x2b98c0>
  dc:	00130105 	andseq	r0, r3, r5, lsl #2
  e0:	00281400 	eoreq	r1, r8, r0, lsl #8
  e4:	0b1c0e03 	bleq	7038f8 <__bss_end__+0x6ee88c>
  e8:	34150000 	ldrcc	r0, [r5], #-0
  ec:	3a134700 	bcc	4d1cf4 <__bss_end__+0x4bcc88>
  f0:	020b3b0b 	andeq	r3, fp, #11264	; 0x2c00
  f4:	16000018 			; <UNDEFINED> instruction: 0x16000018
  f8:	0e030034 	mcreq	0, 0, r0, cr3, cr4, {1}
  fc:	0b3b0b3a 	bleq	ec2dec <__bss_end__+0xeadd80>
 100:	18021349 	stmdane	r2, {r0, r3, r6, r8, r9, ip}
 104:	34170000 	ldrcc	r0, [r7], #-0
 108:	3a0e0300 	bcc	380d10 <__bss_end__+0x36bca4>
 10c:	49053b0b 	stmdbmi	r5, {r0, r1, r3, r8, r9, fp, ip, sp}
 110:	00180213 	andseq	r0, r8, r3, lsl r2
 114:	002e1800 	eoreq	r1, lr, r0, lsl #16
 118:	0e03193f 			; <UNDEFINED> instruction: 0x0e03193f
 11c:	053b0b3a 	ldreq	r0, [fp, #-2874]!	; 0xfffff4c6
 120:	13491927 	movtne	r1, #39207	; 0x9927
 124:	00000b20 	andeq	r0, r0, r0, lsr #22
 128:	3f012e19 	svccc	0x00012e19
 12c:	3a0e0319 	bcc	380d98 <__bss_end__+0x36bd2c>
 130:	27053b0b 	strcs	r3, [r5, -fp, lsl #22]
 134:	11134919 	tstne	r3, r9, lsl r9
 138:	40061201 	andmi	r1, r6, r1, lsl #4
 13c:	19429718 	stmdbne	r2, {r3, r4, r8, r9, sl, ip, pc}^
 140:	00001301 	andeq	r1, r0, r1, lsl #6
 144:	0300341a 	movweq	r3, #1050	; 0x41a
 148:	3b0b3a0e 	blcc	2ce988 <__bss_end__+0x2b991c>
 14c:	02134905 	andseq	r4, r3, #81920	; 0x14000
 150:	1b000017 	blne	1b4 <_init-0x564>
 154:	08030034 	stmdaeq	r3, {r2, r4, r5}
 158:	053b0b3a 	ldreq	r0, [fp, #-2874]!	; 0xfffff4c6
 15c:	17021349 	strne	r1, [r2, -r9, asr #6]
 160:	0a1c0000 	beq	700168 <__bss_end__+0x6eb0fc>
 164:	3a0e0300 	bcc	380d6c <__bss_end__+0x36bd00>
 168:	00053b0b 	andeq	r3, r5, fp, lsl #22
 16c:	010b1d00 	tsteq	fp, r0, lsl #26
 170:	13011755 	movwne	r1, #5973	; 0x1755
 174:	341e0000 	ldrcc	r0, [lr], #-0
 178:	3a080300 	bcc	200d80 <__bss_end__+0x1ebd14>
 17c:	49053b0b 	stmdbmi	r5, {r0, r1, r3, r8, r9, fp, ip, sp}
 180:	00180213 	andseq	r0, r8, r3, lsl r2
 184:	011d1f00 	tsteq	sp, r0, lsl #30
 188:	01111331 	tsteq	r1, r1, lsr r3
 18c:	0b580612 	bleq	16019dc <__bss_end__+0x15ec970>
 190:	13010559 	movwne	r0, #5465	; 0x1559
 194:	05200000 	streq	r0, [r0, #-0]!
 198:	02133100 	andseq	r3, r3, #0, 2
 19c:	21000017 	tstcs	r0, r7, lsl r0
 1a0:	01018289 	smlabbeq	r1, r9, r2, r8
 1a4:	13310111 	teqne	r1, #1073741828	; 0x40000004
 1a8:	8a220000 	bhi	8801b0 <__bss_end__+0x86b144>
 1ac:	02000182 	andeq	r0, r0, #-2147483616	; 0x80000020
 1b0:	18429118 	stmdane	r2, {r3, r4, r8, ip, pc}^
 1b4:	1d230000 	stcne	0, cr0, [r3, #-0]
 1b8:	52133101 	andspl	r3, r3, #1073741824	; 0x40000000
 1bc:	58175501 	ldmdapl	r7, {r0, r8, sl, ip, lr}
 1c0:	0105590b 	tsteq	r5, fp, lsl #18
 1c4:	24000013 	strcs	r0, [r0], #-19	; 0xffffffed
 1c8:	00018289 	andeq	r8, r1, r9, lsl #5
 1cc:	13310111 	teqne	r1, #1073741828	; 0x40000004
 1d0:	89250000 	stmdbhi	r5!, {}	; <UNPREDICTABLE>
 1d4:	11010182 	smlabbne	r1, r2, r1, r0
 1d8:	01133101 	tsteq	r3, r1, lsl #2
 1dc:	26000013 			; <UNDEFINED> instruction: 0x26000013
 1e0:	0e03012e 	adfeqsp	f0, f3, #0.5
 1e4:	053b0b3a 	ldreq	r0, [fp, #-2874]!	; 0xfffff4c6
 1e8:	0b201927 	bleq	80668c <__bss_end__+0x7f1620>
 1ec:	00001301 	andeq	r1, r0, r1, lsl #6
 1f0:	03000527 	movweq	r0, #1319	; 0x527
 1f4:	3b0b3a0e 	blcc	2cea34 <__bss_end__+0x2b99c8>
 1f8:	00134905 	andseq	r4, r3, r5, lsl #18
 1fc:	012e2800 			; <UNDEFINED> instruction: 0x012e2800
 200:	0b3a0e03 	bleq	e83a14 <__bss_end__+0xe6e9a8>
 204:	1927053b 	stmdbne	r7!, {r0, r1, r3, r4, r5, r8, sl}
 208:	0b201349 	bleq	804f34 <__bss_end__+0x7efec8>
 20c:	00001301 	andeq	r1, r0, r1, lsl #6
 210:	03000529 	movweq	r0, #1321	; 0x529
 214:	3b0b3a08 	blcc	2cea3c <__bss_end__+0x2b99d0>
 218:	00134905 	andseq	r4, r3, r5, lsl #18
 21c:	00342a00 	eorseq	r2, r4, r0, lsl #20
 220:	0b3a0803 	bleq	e82234 <__bss_end__+0xe6d1c8>
 224:	1349053b 	movtne	r0, #38203	; 0x953b
 228:	052b0000 	streq	r0, [fp, #-0]!
 22c:	3a0e0300 	bcc	380e34 <__bss_end__+0x36bdc8>
 230:	49053b0b 	stmdbmi	r5, {r0, r1, r3, r8, r9, fp, ip, sp}
 234:	00170213 	andseq	r0, r7, r3, lsl r2
 238:	012e2c00 			; <UNDEFINED> instruction: 0x012e2c00
 23c:	0e03193f 			; <UNDEFINED> instruction: 0x0e03193f
 240:	053b0b3a 	ldreq	r0, [fp, #-2874]!	; 0xfffff4c6
 244:	01111927 	tsteq	r1, r7, lsr #18
 248:	18400612 	stmdane	r0, {r1, r4, r9, sl}^
 24c:	01194297 			; <UNDEFINED> instruction: 0x01194297
 250:	2d000013 	stccs	0, cr0, [r0, #-76]	; 0xffffffb4
 254:	00018289 	andeq	r8, r1, r9, lsl #5
 258:	42950111 	addsmi	r0, r5, #1073741828	; 0x40000004
 25c:	00133119 	andseq	r3, r3, r9, lsl r1
 260:	011d2e00 	tsteq	sp, r0, lsl #28
 264:	01521331 	cmpeq	r2, r1, lsr r3
 268:	0b581755 	bleq	1605fc4 <__bss_end__+0x15f0f58>
 26c:	00000559 	andeq	r0, r0, r9, asr r5
 270:	55010b2f 	strpl	r0, [r1, #-2863]	; 0xfffff4d1
 274:	30000017 	andcc	r0, r0, r7, lsl r0
 278:	13310034 	teqne	r1, #52	; 0x34
 27c:	2e310000 	cdpcs	0, 3, cr0, cr1, cr0, {0}
 280:	03193f01 	tsteq	r9, #1, 30
 284:	3b0b3a0e 	blcc	2ceac4 <__bss_end__+0x2b9a58>
 288:	20192705 	andscs	r2, r9, r5, lsl #14
 28c:	0013010b 	andseq	r0, r3, fp, lsl #2
 290:	00343200 	eorseq	r3, r4, r0, lsl #4
 294:	0b3a0e03 	bleq	e83aa8 <__bss_end__+0xe6ea3c>
 298:	1349053b 	movtne	r0, #38203	; 0x953b
 29c:	89330000 	ldmdbhi	r3!, {}	; <UNPREDICTABLE>
 2a0:	11010182 	smlabbne	r1, r2, r1, r0
 2a4:	19429501 	stmdbne	r2, {r0, r8, sl, ip, pc}^
 2a8:	13011331 	movwne	r1, #4913	; 0x1331
 2ac:	0b340000 	bleq	d002b4 <__bss_end__+0xceb248>
 2b0:	12011101 	andne	r1, r1, #1073741824	; 0x40000000
 2b4:	35000006 	strcc	r0, [r0, #-6]
 2b8:	13310005 	teqne	r1, #5
 2bc:	00000b1c 	andeq	r0, r0, ip, lsl fp
 2c0:	01828936 	orreq	r8, r2, r6, lsr r9
 2c4:	95011101 	strls	r1, [r1, #-257]	; 0xfffffeff
 2c8:	13311942 	teqne	r1, #1081344	; 0x108000
 2cc:	05370000 	ldreq	r0, [r7, #-0]!
 2d0:	3a080300 	bcc	200ed8 <__bss_end__+0x1ebe6c>
 2d4:	49053b0b 	stmdbmi	r5, {r0, r1, r3, r8, r9, fp, ip, sp}
 2d8:	00170213 	andseq	r0, r7, r3, lsl r2
 2dc:	00053800 	andeq	r3, r5, r0, lsl #16
 2e0:	00001331 	andeq	r1, r0, r1, lsr r3
 2e4:	3f012e39 	svccc	0x00012e39
 2e8:	3a0e0319 	bcc	380f54 <__bss_end__+0x36bee8>
 2ec:	27053b0b 	strcs	r3, [r5, -fp, lsl #22]
 2f0:	12011119 	andne	r1, r1, #1073741830	; 0x40000006
 2f4:	96184006 	ldrls	r4, [r8], -r6
 2f8:	13011942 	movwne	r1, #6466	; 0x1942
 2fc:	343a0000 	ldrtcc	r0, [sl], #-0
 300:	3a0e0300 	bcc	380f08 <__bss_end__+0x36be9c>
 304:	49053b0b 	stmdbmi	r5, {r0, r1, r3, r8, r9, fp, ip, sp}
 308:	000b1c13 	andeq	r1, fp, r3, lsl ip
 30c:	00343b00 	eorseq	r3, r4, r0, lsl #22
 310:	17021331 	smladxne	r2, r1, r3, r1
 314:	2e3c0000 	cdpcs	0, 3, cr0, cr12, cr0, {0}
 318:	03193f01 	tsteq	r9, #1, 30
 31c:	3b0b3a0e 	blcc	2ceb5c <__bss_end__+0x2b9af0>
 320:	49192705 	ldmdbmi	r9, {r0, r2, r8, r9, sl, sp}
 324:	010b2013 	tsteq	fp, r3, lsl r0
 328:	3d000013 	stccc	0, cr0, [r0, #-76]	; 0xffffffb4
 32c:	13310005 	teqne	r1, #5
 330:	00001802 	andeq	r1, r0, r2, lsl #16
 334:	0300053e 	movweq	r0, #1342	; 0x53e
 338:	3b0b3a0e 	blcc	2ceb78 <__bss_end__+0x2b9b0c>
 33c:	02134905 	andseq	r4, r3, #81920	; 0x14000
 340:	3f000018 	svccc	0x00000018
 344:	0000010b 	andeq	r0, r0, fp, lsl #2
 348:	31011d40 	tstcc	r1, r0, asr #26
 34c:	12011113 	andne	r1, r1, #-1073741820	; 0xc0000004
 350:	590b5806 	stmdbpl	fp, {r1, r2, fp, ip, lr}
 354:	41000005 	tstmi	r0, r5
 358:	193f012e 	ldmdbne	pc!, {r1, r2, r3, r5, r8}	; <UNPREDICTABLE>
 35c:	0b3a0e03 	bleq	e83b70 <__bss_end__+0xe6eb04>
 360:	19270b3b 	stmdbne	r7!, {r0, r1, r3, r4, r5, r8, r9, fp}
 364:	13010b20 	movwne	r0, #6944	; 0x1b20
 368:	05420000 	strbeq	r0, [r2, #-0]
 36c:	3a0e0300 	bcc	380f74 <__bss_end__+0x36bf08>
 370:	490b3b0b 	stmdbmi	fp, {r0, r1, r3, r8, r9, fp, ip, sp}
 374:	43000013 	movwmi	r0, #19
 378:	193f012e 	ldmdbne	pc!, {r1, r2, r3, r5, r8}	; <UNPREDICTABLE>
 37c:	0b3a0e03 	bleq	e83b90 <__bss_end__+0xe6eb24>
 380:	19270b3b 	stmdbne	r7!, {r0, r1, r3, r4, r5, r8, r9, fp}
 384:	0b201349 	bleq	8050b0 <__bss_end__+0x7f0044>
 388:	00001301 	andeq	r1, r0, r1, lsl #6
 38c:	03003444 	movweq	r3, #1092	; 0x444
 390:	3b0b3a08 	blcc	2cebb8 <__bss_end__+0x2b9b4c>
 394:	0013490b 	andseq	r4, r3, fp, lsl #18
 398:	002e4500 	eoreq	r4, lr, r0, lsl #10
 39c:	0e03193f 			; <UNDEFINED> instruction: 0x0e03193f
 3a0:	0b3b0b3a 	bleq	ec3090 <__bss_end__+0xeae024>
 3a4:	13491927 	movtne	r1, #39207	; 0x9927
 3a8:	06120111 			; <UNDEFINED> instruction: 0x06120111
 3ac:	42971840 	addsmi	r1, r7, #64, 16	; 0x400000
 3b0:	46000019 			; <UNDEFINED> instruction: 0x46000019
 3b4:	193f012e 	ldmdbne	pc!, {r1, r2, r3, r5, r8}	; <UNPREDICTABLE>
 3b8:	0b3a0e03 	bleq	e83bcc <__bss_end__+0xe6eb60>
 3bc:	19270b3b 	stmdbne	r7!, {r0, r1, r3, r4, r5, r8, r9, fp}
 3c0:	06120111 			; <UNDEFINED> instruction: 0x06120111
 3c4:	42971840 	addsmi	r1, r7, #64, 16	; 0x400000
 3c8:	00130119 	andseq	r0, r3, r9, lsl r1
 3cc:	00054700 	andeq	r4, r5, r0, lsl #14
 3d0:	0b3a0803 	bleq	e823e4 <__bss_end__+0xe6d378>
 3d4:	13490b3b 	movtne	r0, #39739	; 0x9b3b
 3d8:	00001802 	andeq	r1, r0, r2, lsl #16
 3dc:	3f012e48 	svccc	0x00012e48
 3e0:	3a0e0319 	bcc	38104c <__bss_end__+0x36bfe0>
 3e4:	270b3b0b 	strcs	r3, [fp, -fp, lsl #22]
 3e8:	11134919 	tstne	r3, r9, lsl r9
 3ec:	40061201 	andmi	r1, r6, r1, lsl #4
 3f0:	19429718 	stmdbne	r2, {r3, r4, r8, r9, sl, ip, pc}^
 3f4:	00001301 	andeq	r1, r0, r1, lsl #6
 3f8:	03000549 	movweq	r0, #1353	; 0x549
 3fc:	3b0b3a0e 	blcc	2cec3c <__bss_end__+0x2b9bd0>
 400:	0213490b 	andseq	r4, r3, #180224	; 0x2c000
 404:	4a000017 	bmi	468 <_init-0x2b0>
 408:	0e03012e 	adfeqsp	f0, f3, #0.5
 40c:	0b3b0b3a 	bleq	ec30fc <__bss_end__+0xeae090>
 410:	13491927 	movtne	r1, #39207	; 0x9927
 414:	13010b20 	movwne	r0, #6944	; 0x1b20
 418:	054b0000 	strbeq	r0, [fp, #-0]
 41c:	3a080300 	bcc	201024 <__bss_end__+0x1ebfb8>
 420:	490b3b0b 	stmdbmi	fp, {r0, r1, r3, r8, r9, fp, ip, sp}
 424:	4c000013 	stcmi	0, cr0, [r0], {19}
 428:	193f012e 	ldmdbne	pc!, {r1, r2, r3, r5, r8}	; <UNPREDICTABLE>
 42c:	0b3a0e03 	bleq	e83c40 <__bss_end__+0xe6ebd4>
 430:	19270b3b 	stmdbne	r7!, {r0, r1, r3, r4, r5, r8, r9, fp}
 434:	0b201349 	bleq	805160 <__bss_end__+0x7f00f4>
 438:	13011934 	movwne	r1, #6452	; 0x1934
 43c:	184d0000 	stmdane	sp, {}^	; <UNPREDICTABLE>
 440:	4e000000 	cdpmi	0, 0, cr0, cr0, cr0, {0}
 444:	193f012e 	ldmdbne	pc!, {r1, r2, r3, r5, r8}	; <UNPREDICTABLE>
 448:	0b3a0e03 	bleq	e83c5c <__bss_end__+0xe6ebf0>
 44c:	1927053b 	stmdbne	r7!, {r0, r1, r3, r4, r5, r8, sl}
 450:	0b201349 	bleq	80517c <__bss_end__+0x7f0110>
 454:	13011934 	movwne	r1, #6452	; 0x1934
 458:	2e4f0000 	cdpcs	0, 4, cr0, cr15, cr0, {0}
 45c:	11133101 	tstne	r3, r1, lsl #2
 460:	40061201 	andmi	r1, r6, r1, lsl #4
 464:	19429718 	stmdbne	r2, {r3, r4, r8, r9, sl, ip, pc}^
 468:	00001301 	andeq	r1, r0, r1, lsl #6
 46c:	31011d50 	tstcc	r1, r0, asr sp
 470:	55015213 	strpl	r5, [r1, #-531]	; 0xfffffded
 474:	590b5817 	stmdbpl	fp, {r0, r1, r2, r4, fp, ip, lr}
 478:	5100000b 	tstpl	r0, fp
 47c:	1331010b 	teqne	r1, #-1073741822	; 0xc0000002
 480:	06120111 			; <UNDEFINED> instruction: 0x06120111
 484:	00001301 	andeq	r1, r0, r1, lsl #6
 488:	31010b52 	tstcc	r1, r2, asr fp
 48c:	12011113 	andne	r1, r1, #-1073741820	; 0xc0000004
 490:	53000006 	movwpl	r0, #6
 494:	1331011d 	teqne	r1, #1073741831	; 0x40000007
 498:	06120111 			; <UNDEFINED> instruction: 0x06120111
 49c:	0b590b58 	bleq	1643204 <__bss_end__+0x162e198>
 4a0:	0b540000 	bleq	15004a8 <__bss_end__+0x14eb43c>
 4a4:	55133101 	ldrpl	r3, [r3, #-257]	; 0xfffffeff
 4a8:	55000017 	strpl	r0, [r0, #-23]	; 0xffffffe9
 4ac:	13310034 	teqne	r1, #52	; 0x34
 4b0:	00001802 	andeq	r1, r0, r2, lsl #16
 4b4:	31012e56 	tstcc	r1, r6, asr lr
 4b8:	12011113 	andne	r1, r1, #-1073741820	; 0xc0000004
 4bc:	96184006 	ldrls	r4, [r8], -r6
 4c0:	13011942 	movwne	r1, #6466	; 0x1942
 4c4:	0b570000 	bleq	15c04cc <__bss_end__+0x15ab460>
 4c8:	55133101 	ldrpl	r3, [r3, #-257]	; 0xfffffeff
 4cc:	00130117 	andseq	r0, r3, r7, lsl r1
 4d0:	002e5800 	eoreq	r5, lr, r0, lsl #16
 4d4:	193c193f 	ldmdbne	ip!, {r0, r1, r2, r3, r4, r5, r8, fp, ip}
 4d8:	0e030e6e 	cdpeq	14, 0, cr0, cr3, cr14, {3}
 4dc:	053b0b3a 	ldreq	r0, [fp, #-2874]!	; 0xfffff4c6
 4e0:	00000e6e 	andeq	r0, r0, lr, ror #28
 4e4:	3f002e59 	svccc	0x00002e59
 4e8:	6e193c19 	mrcvs	12, 0, r3, cr9, cr9, {0}
 4ec:	3a0e030e 	bcc	38112c <__bss_end__+0x36c0c0>
 4f0:	000b3b0b 	andeq	r3, fp, fp, lsl #22
 4f4:	002e5a00 	eoreq	r5, lr, r0, lsl #20
 4f8:	193c193f 	ldmdbne	ip!, {r0, r1, r2, r3, r4, r5, r8, fp, ip}
 4fc:	0e030e6e 	cdpeq	14, 0, cr0, cr3, cr14, {3}
 500:	0b3b0b3a 	bleq	ec31f0 <__bss_end__+0xeae184>
 504:	00000e6e 	andeq	r0, r0, lr, ror #28
 508:	3f002e5b 	svccc	0x00002e5b
 50c:	6e193c19 	mrcvs	12, 0, r3, cr9, cr9, {0}
 510:	3a0e030e 	bcc	381150 <__bss_end__+0x36c0e4>
 514:	00053b0b 	andeq	r3, r5, fp, lsl #22
 518:	002e5c00 	eoreq	r5, lr, r0, lsl #24
 51c:	193c193f 	ldmdbne	ip!, {r0, r1, r2, r3, r4, r5, r8, fp, ip}
 520:	0e030e6e 	cdpeq	14, 0, cr0, cr3, cr14, {3}
 524:	Address 0x00000524 is out of bounds.


Disassembly of section .debug_line:

00000000 <.debug_line>:
   0:	00000d25 	andeq	r0, r0, r5, lsr #26
   4:	01b20002 			; <UNDEFINED> instruction: 0x01b20002
   8:	01020000 	mrseq	r0, (UNDEF: 2)
   c:	000d0efb 	strdeq	r0, [sp], -fp
  10:	01010101 	tsteq	r1, r1, lsl #2
  14:	01000000 	mrseq	r0, (UNDEF: 0)
  18:	2f010000 	svccs	0x00010000
  1c:	2f727375 	svccs	0x00727375
  20:	6c636e69 	stclvs	14, cr6, [r3], #-420	; 0xfffffe5c
  24:	2f656475 	svccs	0x00656475
  28:	2d6d7261 	sfmcs	f7, 2, [sp, #-388]!	; 0xfffffe7c
  2c:	756e696c 	strbvc	r6, [lr, #-2412]!	; 0xfffff694
  30:	6e672d78 	mcrvs	13, 3, r2, cr7, cr8, {3}
  34:	62616575 	rsbvs	r6, r1, #490733568	; 0x1d400000
  38:	2f666869 	svccs	0x00666869
  3c:	73746962 	cmnvc	r4, #1605632	; 0x188000
  40:	73752f00 	cmnvc	r5, #0, 30
  44:	696c2f72 	stmdbvs	ip!, {r1, r4, r5, r6, r8, r9, sl, fp, sp}^
  48:	63672f62 	cmnvs	r7, #392	; 0x188
  4c:	72612f63 	rsbvc	r2, r1, #396	; 0x18c
  50:	696c2d6d 	stmdbvs	ip!, {r0, r2, r3, r5, r6, r8, sl, fp, sp}^
  54:	2d78756e 	cfldr64cs	mvdx7, [r8, #-440]!	; 0xfffffe48
  58:	65756e67 	ldrbvs	r6, [r5, #-3687]!	; 0xfffff199
  5c:	68696261 	stmdavs	r9!, {r0, r5, r6, r9, sp, lr}^
  60:	2f372f66 	svccs	0x00372f66
  64:	6c636e69 	stclvs	14, cr6, [r3], #-420	; 0xfffffe5c
  68:	00656475 	rsbeq	r6, r5, r5, ror r4
  6c:	7273752f 	rsbsvc	r7, r3, #197132288	; 0xbc00000
  70:	636e692f 	cmnvs	lr, #770048	; 0xbc000
  74:	6564756c 	strbvs	r7, [r4, #-1388]!	; 0xfffffa94
  78:	6d72612f 	ldfvse	f6, [r2, #-188]!	; 0xffffff44
  7c:	6e696c2d 	cdpvs	12, 6, cr6, cr9, cr13, {1}
  80:	672d7875 			; <UNDEFINED> instruction: 0x672d7875
  84:	6165756e 	cmnvs	r5, lr, ror #10
  88:	66686962 	strbtvs	r6, [r8], -r2, ror #18
  8c:	7469622f 	strbtvc	r6, [r9], #-559	; 0xfffffdd1
  90:	79742f73 	ldmdbvc	r4!, {r0, r1, r4, r5, r6, r8, r9, sl, fp, sp}^
  94:	00736570 	rsbseq	r6, r3, r0, ror r5
  98:	7273752f 	rsbsvc	r7, r3, #197132288	; 0xbc00000
  9c:	636e692f 	cmnvs	lr, #770048	; 0xbc000
  a0:	6564756c 	strbvs	r7, [r4, #-1388]!	; 0xfffffa94
  a4:	73752f00 	cmnvc	r5, #0, 30
  a8:	6e692f72 	mcrvs	15, 3, r2, cr9, cr2, {3}
  ac:	64756c63 	ldrbtvs	r6, [r5], #-3171	; 0xfffff39d
  b0:	72612f65 	rsbvc	r2, r1, #404	; 0x194
  b4:	696c2d6d 	stmdbvs	ip!, {r0, r2, r3, r5, r6, r8, sl, fp, sp}^
  b8:	2d78756e 	cfldr64cs	mvdx7, [r8, #-440]!	; 0xfffffe48
  bc:	65756e67 	ldrbvs	r6, [r5, #-3687]!	; 0xfffff199
  c0:	68696261 	stmdavs	r9!, {r0, r5, r6, r9, sp, lr}^
  c4:	79732f66 	ldmdbvc	r3!, {r1, r2, r5, r6, r8, r9, sl, fp, sp}^
  c8:	62000073 	andvs	r0, r0, #115	; 0x73
  cc:	38326d63 	ldmdacc	r2!, {r0, r1, r5, r6, r8, sl, fp, sp, lr}
  d0:	632e3533 			; <UNDEFINED> instruction: 0x632e3533
  d4:	00000000 	andeq	r0, r0, r0
  d8:	69647473 	stmdbvs	r4!, {r0, r1, r4, r5, r6, sl, ip, sp, lr}^
  dc:	682e326f 	stmdavs	lr!, {r0, r1, r2, r3, r5, r6, r9, ip, sp}
  e0:	00000100 	andeq	r0, r0, r0, lsl #2
  e4:	746e6366 	strbtvc	r6, [lr], #-870	; 0xfffffc9a
  e8:	682e326c 	stmdavs	lr!, {r2, r3, r5, r6, r9, ip, sp}
  ec:	00000100 	andeq	r0, r0, r0, lsl #2
  f0:	64647473 	strbtvs	r7, [r4], #-1139	; 0xfffffb8d
  f4:	682e6665 	stmdavs	lr!, {r0, r2, r5, r6, r9, sl, sp, lr}
  f8:	00000200 	andeq	r0, r0, r0, lsl #4
  fc:	65707974 	ldrbvs	r7, [r0, #-2420]!	; 0xfffff68c
 100:	00682e73 	rsbeq	r2, r8, r3, ror lr
 104:	6c000001 	stcvs	0, cr0, [r0], {1}
 108:	6f696269 	svcvs	0x00696269
 10c:	0100682e 	tsteq	r0, lr, lsr #16
 110:	49460000 	stmdbmi	r6, {}^	; <UNPREDICTABLE>
 114:	682e454c 	stmdavs	lr!, {r2, r3, r6, r8, sl, lr}
 118:	00000300 	andeq	r0, r0, r0, lsl #6
 11c:	69647473 	stmdbvs	r4!, {r0, r1, r4, r5, r6, sl, ip, sp, lr}^
 120:	00682e6f 	rsbeq	r2, r8, pc, ror #28
 124:	73000004 	movwvc	r0, #4
 128:	63757274 	cmnvs	r5, #116, 4	; 0x40000007
 12c:	69745f74 	ldmdbvs	r4!, {r2, r4, r5, r6, r8, r9, sl, fp, ip, lr}^
 130:	7073656d 	rsbsvc	r6, r3, sp, ror #10
 134:	682e6365 	stmdavs	lr!, {r0, r2, r5, r6, r8, r9, sp, lr}
 138:	00000300 	andeq	r0, r0, r0, lsl #6
 13c:	656d6974 	strbvs	r6, [sp, #-2420]!	; 0xfffff68c
 140:	682e745f 	stmdavs	lr!, {r0, r1, r2, r3, r4, r6, sl, ip, sp, lr}
 144:	00000300 	andeq	r0, r0, r0, lsl #6
 148:	656d6974 	strbvs	r6, [sp, #-2420]!	; 0xfffff68c
 14c:	0400682e 	streq	r6, [r0], #-2094	; 0xfffff7d2
 150:	6e750000 	cdpvs	0, 7, cr0, cr5, cr0, {0}
 154:	64747369 	ldrbtvs	r7, [r4], #-873	; 0xfffffc97
 158:	0400682e 	streq	r6, [r0], #-2094	; 0xfffff7d2
 15c:	65670000 	strbvs	r0, [r7, #-0]!
 160:	74706f74 	ldrbtvc	r6, [r0], #-3956	; 0xfffff08c
 164:	726f635f 	rsbvc	r6, pc, #2080374785	; 0x7c000001
 168:	00682e65 	rsbeq	r2, r8, r5, ror #28
 16c:	73000001 	movwvc	r0, #1
 170:	6e696474 	mcrvs	4, 3, r6, cr9, cr4, {3}
 174:	69752d74 	ldmdbvs	r5!, {r2, r4, r5, r6, r8, sl, fp, sp}^
 178:	2e6e746e 	cdpcs	4, 6, cr7, cr14, cr14, {3}
 17c:	00010068 	andeq	r0, r1, r8, rrx
 180:	6d636200 	sfmvs	f6, 2, [r3, #-0]
 184:	35333832 	ldrcc	r3, [r3, #-2098]!	; 0xfffff7ce
 188:	0000682e 	andeq	r6, r0, lr, lsr #16
 18c:	72650000 	rsbvc	r0, r5, #0
 190:	2e6f6e72 	mcrcs	14, 3, r6, cr15, cr2, {3}
 194:	00040068 	andeq	r0, r4, r8, rrx
 198:	72747300 	rsbsvc	r7, r4, #0, 6
 19c:	2e676e69 	cdpcs	14, 6, cr6, cr7, cr9, {3}
 1a0:	00040068 	andeq	r0, r4, r8, rrx
 1a4:	64747300 	ldrbtvs	r7, [r4], #-768	; 0xfffffd00
 1a8:	2e62696c 	vnmulcs.f16	s13, s4, s25	; <UNPREDICTABLE>
 1ac:	00040068 	andeq	r0, r4, r8, rrx
 1b0:	616d6d00 	cmnvs	sp, r0, lsl #26
 1b4:	00682e6e 	rsbeq	r2, r8, lr, ror #28
 1b8:	00000005 	andeq	r0, r0, r5
 1bc:	28020500 	stmdacs	r2, {r8, sl}
 1c0:	0300001f 	movweq	r0, #31
 1c4:	040101df 	streq	r0, [r1], #-479	; 0xfffffe21
 1c8:	7f880302 	svcvc	0x00880302
 1cc:	03010401 	movweq	r0, #5121	; 0x1401
 1d0:	042e00f8 	strteq	r0, [lr], #-248	; 0xffffff08
 1d4:	7f880302 	svcvc	0x00880302
 1d8:	03010420 	movweq	r0, #5152	; 0x1420
 1dc:	034a0183 	movteq	r0, #41347	; 0xa183
 1e0:	02045814 	andeq	r5, r4, #20, 16	; 0x140000
 1e4:	017ee903 	cmneq	lr, r3, lsl #18
 1e8:	f3030104 	vrhadd.u8	d0, d3, d4
 1ec:	de039e0f 	cdple	14, 0, cr9, cr3, cr15, {0}
 1f0:	0359207e 	cmpeq	r9, #126	; 0x7e
 1f4:	5a3c01a6 	bpl	f00894 <__bss_end__+0xeeb828>
 1f8:	30303030 	eorscc	r3, r0, r0, lsr r0
 1fc:	c0032330 	andgt	r2, r3, r0, lsr r3
 200:	8030587e 	eorshi	r5, r0, lr, ror r8
 204:	3a312130 	bcc	c486cc <__bss_end__+0xc33660>
 208:	ae030204 	cdpge	2, 0, cr0, cr3, cr4, {0}
 20c:	01048271 	tsteq	r4, r1, ror r2
 210:	900ed403 	andls	sp, lr, r3, lsl #8
 214:	ac71e703 	ldclge	7, cr14, [r1], #-12
 218:	4c4caf13 	mcrrmi	15, 1, sl, ip, cr3
 21c:	4c4c4c4c 	mcrrmi	12, 4, r4, ip, cr12
 220:	454a0903 	strbmi	r0, [sl, #-2307]	; 0xfffff6fd
 224:	082f514c 	stmdaeq	pc!, {r2, r3, r6, r8, ip, lr}	; <UNPREDICTABLE>
 228:	3f3d134d 	svccc	0x003d134d
 22c:	51225014 			; <UNDEFINED> instruction: 0x51225014
 230:	0431212f 	ldrteq	r2, [r1], #-303	; 0xfffffed1
 234:	7f900302 	svcvc	0x00900302
 238:	03010420 	movweq	r0, #5152	; 0x1420
 23c:	037400f0 	cmneq	r4, #240	; 0xf0
 240:	51136609 	tstpl	r3, r9, lsl #12
 244:	50215e22 	eorpl	r5, r1, r2, lsr #28
 248:	0430212f 	ldrteq	r2, [r0], #-303	; 0xfffffed1
 24c:	7eec0302 	cdpvc	3, 14, cr0, cr12, cr2, {0}
 250:	0301043c 	movweq	r0, #5180	; 0x143c
 254:	043c0194 	ldrteq	r0, [ip], #-404	; 0xfffffe6c
 258:	7eec0302 	cdpvc	3, 14, cr0, cr12, cr2, {0}
 25c:	0301042e 	movweq	r0, #5166	; 0x142e
 260:	198202f7 	stmibne	r2, {r0, r1, r2, r4, r5, r6, r7, r9}
 264:	032f1f21 			; <UNDEFINED> instruction: 0x032f1f21
 268:	13667e99 	cmnne	r6, #2448	; 0x990
 26c:	7a223649 	bvc	88db98 <__bss_end__+0x878b2c>
 270:	2f5a3d20 	svccs	0x005a3d20
 274:	3c1a032d 	ldccc	3, cr0, [sl], {45}	; 0x2d
 278:	2d1f5931 	vldrcs.16	s10, [pc, #-98]	; 21e <_init-0x4fa>	; <UNPREDICTABLE>
 27c:	2f24493d 	svccs	0x0024493d
 280:	79222f2a 	stmdbvc	r2!, {r1, r3, r5, r8, r9, sl, fp, sp}
 284:	2d2c3013 	stccs	0, cr3, [ip, #-76]!	; 0xffffffb4
 288:	2f221e23 	svccs	0x00221e23
 28c:	3013792d 	andscc	r7, r3, sp, lsr #18
 290:	1e232d2c 	cdpne	13, 2, cr2, cr3, cr12, {1}
 294:	792d2f22 	pushvc	{r1, r5, r8, r9, sl, fp, sp}
 298:	2f1f2113 	svccs	0x001f2113
 29c:	1f21136b 	svcne	0x0021136b
 2a0:	2d136b2f 	vldrcs	d6, [r3, #-188]	; 0xffffff44
 2a4:	23212d21 			; <UNDEFINED> instruction: 0x23212d21
 2a8:	7a4b4b2d 	bvc	12d2f64 <__bss_end__+0x12bdef8>
 2ac:	2d212d13 	stccs	13, cr2, [r1, #-76]!	; 0xffffffb4
 2b0:	4b2d2321 	blmi	b48f3c <__bss_end__+0xb33ed0>
 2b4:	1f13774b 	svcne	0x0013774b
 2b8:	21211f21 			; <UNDEFINED> instruction: 0x21211f21
 2bc:	30134e3e 	andscc	r4, r3, lr, lsr lr
 2c0:	1e232d2c 	cdpne	13, 2, cr2, cr3, cr12, {1}
 2c4:	782d2f23 	stmdavc	sp!, {r0, r1, r5, r8, r9, sl, fp, sp}
 2c8:	2f1f2113 	svccs	0x001f2113
 2cc:	3a30216b 	bcc	c08880 <__bss_end__+0xbf3814>
 2d0:	2d242c30 	stccs	12, cr2, [r4, #-192]!	; 0xffffff40
 2d4:	2c301377 	ldccs	3, cr1, [r0], #-476	; 0xfffffe24
 2d8:	231e232d 	tstcs	lr, #-1275068416	; 0xb4000000
 2dc:	216b2d3d 	cmncs	fp, sp, lsr sp
 2e0:	2c303a30 			; <UNDEFINED> instruction: 0x2c303a30
 2e4:	13772d24 	cmnne	r7, #36, 26	; 0x900
 2e8:	232d2c30 			; <UNDEFINED> instruction: 0x232d2c30
 2ec:	2d3d231e 	ldccs	3, cr2, [sp, #-120]!	; 0xffffff88
 2f0:	3a30216b 	bcc	c088a4 <__bss_end__+0xbf3838>
 2f4:	2d242c30 	stccs	12, cr2, [r4, #-192]!	; 0xffffff40
 2f8:	2c301377 	ldccs	3, cr1, [r0], #-476	; 0xfffffe24
 2fc:	231e232d 	tstcs	lr, #-1275068416	; 0xb4000000
 300:	216b2d3d 	cmncs	fp, sp, lsr sp
 304:	2c303a30 			; <UNDEFINED> instruction: 0x2c303a30
 308:	13772d24 	cmnne	r7, #36, 26	; 0x900
 30c:	232d2c30 			; <UNDEFINED> instruction: 0x232d2c30
 310:	2d3d231e 	ldccs	3, cr2, [sp, #-120]!	; 0xffffff88
 314:	3a30216b 	bcc	c088c8 <__bss_end__+0xbf385c>
 318:	2d242c30 	stccs	12, cr2, [r4, #-192]!	; 0xffffff40
 31c:	2c301377 	ldccs	3, cr1, [r0], #-476	; 0xfffffe24
 320:	231e232d 	tstcs	lr, #-1275068416	; 0xb4000000
 324:	216b2d3d 	cmncs	fp, sp, lsr sp
 328:	2c303a30 			; <UNDEFINED> instruction: 0x2c303a30
 32c:	13772d24 	cmnne	r7, #36, 26	; 0x900
 330:	232d2c30 			; <UNDEFINED> instruction: 0x232d2c30
 334:	2d3d231e 	ldccs	3, cr2, [sp, #-120]!	; 0xffffff88
 338:	264c136b 	strbcs	r1, [ip], -fp, ror #6
 33c:	13581603 	cmpne	r8, #3145728	; 0x300000
 340:	514b215b 	cmppl	fp, fp, asr r1
 344:	67215b13 			; <UNDEFINED> instruction: 0x67215b13
 348:	3f472350 	svccc	0x00472350
 34c:	2446242b 	strbcs	r2, [r6], #-1067	; 0xfffffbd5
 350:	242b1e2f 	strtcs	r1, [fp], #-3631	; 0xfffff1d1
 354:	3d241b2f 	fstmdbxcc	r4!, {d1-d23}	;@ Deprecated
 358:	c82d032f 	stmdagt	sp!, {r0, r1, r2, r3, r5, r8, r9}
 35c:	432c2313 			; <UNDEFINED> instruction: 0x432c2313
 360:	7dfc033d 	ldclvc	3, cr0, [ip, #244]!	; 0xf4
 364:	58790320 	ldmdapl	r9!, {r5, r8, r9}^
 368:	74029303 	strvc	r9, [r2], #-771	; 0xfffffcfd
 36c:	7dec0320 	stclvc	3, cr0, [ip, #128]!	; 0x80
 370:	02940320 	addseq	r0, r4, #32, 6	; 0x80000000
 374:	7ded0320 	stclvc	3, cr0, [sp, #128]!	; 0x80
 378:	422f1f20 	eormi	r1, pc, #32, 30	; 0x80
 37c:	028f0321 	addeq	r0, pc, #-2080374784	; 0x84000000
 380:	7df1033c 	ldclvc	3, cr0, [r1, #240]!	; 0xf0
 384:	02cc032e 	sbceq	r0, ip, #-1207959552	; 0xb8000000
 388:	034d154a 	movteq	r1, #54602	; 0xd54a
 38c:	03262e7a 			; <UNDEFINED> instruction: 0x03262e7a
 390:	03207cbf 			; <UNDEFINED> instruction: 0x03207cbf
 394:	032003c1 			; <UNDEFINED> instruction: 0x032003c1
 398:	27587cbf 			; <UNDEFINED> instruction: 0x27587cbf
 39c:	2e03bb03 	vmlacs.f64	d11, d3, d3
 3a0:	222b2376 	eorcs	r2, fp, #-671088639	; 0xd8000001
 3a4:	0341332c 	movteq	r3, #4908	; 0x132c
 3a8:	12034a6e 	andne	r4, r3, #450560	; 0x6e000
 3ac:	660c0320 	strvs	r0, [ip], -r0, lsr #6
 3b0:	032d4b23 			; <UNDEFINED> instruction: 0x032d4b23
 3b4:	08207cf4 	stmdaeq	r0!, {r2, r4, r5, r6, r7, sl, fp, ip, sp, lr}
 3b8:	24542446 	ldrbcs	r2, [r4], #-1094	; 0xfffffbba
 3bc:	58039703 	stmdapl	r3, {r0, r1, r8, r9, sl, ip, pc}
 3c0:	7cb60321 	ldcvc	3, cr0, [r6], #132	; 0x84
 3c4:	03cf034a 	biceq	r0, pc, #671088641	; 0x28000001
 3c8:	7cb8034a 	ldcvc	3, cr0, [r8], #296	; 0x128
 3cc:	03c90320 	biceq	r0, r9, #32, 6	; 0x80000000
 3d0:	5b21572e 	blpl	856090 <__bss_end__+0x841024>
 3d4:	207cdf03 	rsbscs	sp, ip, r3, lsl #30
 3d8:	241c242a 	ldrcs	r2, [ip], #-1066	; 0xfffffbd6
 3dc:	245424e0 	ldrbcs	r2, [r4], #-1248	; 0xfffffb20
 3e0:	3c03a803 	stccc	8, cr10, [r3], {3}
 3e4:	2e7cd803 	cdpcs	8, 7, cr13, cr12, cr3, {0}
 3e8:	5803ab03 	stmdapl	r3, {r0, r1, r8, r9, fp, sp, pc}
 3ec:	13524b13 	cmpne	r2, #19456	; 0x4c00
 3f0:	6a2f1f21 	bvs	bc807c <__bss_end__+0xbb3010>
 3f4:	747a0321 	ldrbtvc	r0, [sl], #-801	; 0xfffffcdf
 3f8:	442f2d21 	strtmi	r2, [pc], #-3361	; 400 <_init-0x318>
 3fc:	032e7803 			; <UNDEFINED> instruction: 0x032e7803
 400:	22134a0b 	andscs	r4, r3, #45056	; 0xb000
 404:	036b222c 	cmneq	fp, #44, 4	; 0xc0000002
 408:	7703200a 	strvc	r2, [r3, -sl]
 40c:	20090320 	andcs	r0, r9, r0, lsr #6
 410:	21207603 			; <UNDEFINED> instruction: 0x21207603
 414:	003f282f 	eorseq	r2, pc, pc, lsr #16
 418:	5b010402 	blpl	41428 <__bss_end__+0x2c3bc>
 41c:	587af203 	ldmdapl	sl!, {r0, r1, r9, ip, sp, lr, pc}^
 420:	01810359 	orreq	r0, r1, r9, asr r3
 424:	6103513c 	tstvs	r3, ip, lsr r1
 428:	04ab0320 	strteq	r0, [fp], #800	; 0x320
 42c:	7bd50320 	blvc	ff5410b4 <__bss_end__+0xff52c048>
 430:	7f96032e 	svcvc	0x0096032e
 434:	05990320 	ldreq	r0, [r9, #800]	; 0x320
 438:	7ae70320 	bvc	ff9c10c0 <__bss_end__+0xff9ac054>
 43c:	9b034b20 	blls	d30c4 <__bss_end__+0xbe058>
 440:	005b4a05 	subseq	r4, fp, r5, lsl #20
 444:	03010402 	movweq	r0, #5122	; 0x1402
 448:	039e7bc4 	orrseq	r7, lr, #196, 22	; 0x31000
 44c:	035804b2 	cmpeq	r8, #-1308622848	; 0xb2000000
 450:	032e7bce 			; <UNDEFINED> instruction: 0x032e7bce
 454:	3c0804c0 	cfstrscc	mvf0, [r8], {192}	; 0xc0
 458:	1f2f1f13 	svcne	0x002f1f13
 45c:	0b032120 	bleq	c88e4 <__bss_end__+0xb3878>
 460:	20740320 	rsbscs	r0, r4, r0, lsr #6
 464:	032e0c03 			; <UNDEFINED> instruction: 0x032e0c03
 468:	dc032076 	stcle	0, cr2, [r3], {118}	; 0x76
 46c:	ae032e7a 	mcrge	14, 0, r2, cr3, cr10, {3}
 470:	d1032005 	tstle	r3, r5
 474:	a703207a 	smlsdxge	r3, sl, r0, r2
 478:	da032e05 	ble	cbc94 <__bss_end__+0xb6c28>
 47c:	e203207a 	and	r2, r3, #122	; 0x7a
 480:	9e032000 	cdpls	0, 0, cr2, cr3, cr0, {0}
 484:	ae032e7f 	mcrge	14, 0, r2, cr3, cr15, {3}
 488:	03312005 	teqeq	r1, #5
 48c:	033c7ace 	teqeq	ip, #843776	; 0xce000
 490:	032005b2 			; <UNDEFINED> instruction: 0x032005b2
 494:	032e7bb1 			; <UNDEFINED> instruction: 0x032e7bb1
 498:	a403201f 	strge	r2, [r3], #-31	; 0xffffffe1
 49c:	dc032004 	stcle	0, cr2, [r3], {4}
 4a0:	b303207b 	movwlt	r2, #12411	; 0x307b
 4a4:	d4032e04 	strle	r2, [r3], #-3588	; 0xfffff1fc
 4a8:	b203c87b 	andlt	ip, r3, #8060928	; 0x7b0000
 4ac:	031d2004 	tsteq	sp, #4
 4b0:	039e7ac8 	orrseq	r7, lr, #200, 20	; 0xc8000
 4b4:	032e05ba 			; <UNDEFINED> instruction: 0x032e05ba
 4b8:	212e7ac6 	smlawtcs	lr, r6, sl, r7
 4bc:	2e018103 	mvfcss	f0, f3
 4c0:	c87efe03 	ldmdagt	lr!, {r0, r1, r9, sl, fp, ip, sp, lr, pc}^
 4c4:	03211f3d 			; <UNDEFINED> instruction: 0x03211f3d
 4c8:	033c00e9 	teqeq	ip, #233	; 0xe9
 4cc:	2f207f96 	svccs	0x00207f96
 4d0:	2005bf03 	andcs	fp, r5, r3, lsl #30
 4d4:	207ac003 	rsbscs	ip, sl, r3
 4d8:	05c00321 	strbeq	r0, [r0, #801]	; 0x321
 4dc:	032c1f2e 			; <UNDEFINED> instruction: 0x032c1f2e
 4e0:	b39e7ba5 	orrslt	r7, lr, #168960	; 0x29400
 4e4:	2004db03 	andcs	sp, r4, r3, lsl #22
 4e8:	01040200 	mrseq	r0, R12_usr
 4ec:	2e7b9e03 	cdpcs	14, 7, cr9, cr11, cr3, {0}
 4f0:	6604e203 	strvs	lr, [r4], -r3, lsl #4
 4f4:	083b3d32 	ldmdaeq	fp!, {r1, r4, r5, r8, sl, fp, ip, sp}
 4f8:	2e0c0333 	mcrcs	3, 0, r0, cr12, cr3, {1}
 4fc:	2d207503 	cfstr32cs	mvfx7, [r0, #-12]!
 500:	032e0c03 			; <UNDEFINED> instruction: 0x032e0c03
 504:	033d2075 	teqeq	sp, #117	; 0x75
 508:	5a3f200a 	bpl	fc8538 <__bss_end__+0xfb34cc>
 50c:	3c7b8403 	cfldrdcc	mvd8, [fp], #-12
 510:	01040200 	mrseq	r0, R12_usr
 514:	5804ff03 	stmdapl	r4, {r0, r1, r8, r9, sl, fp, ip, sp, lr, pc}
 518:	587a9e03 	ldmdapl	sl!, {r0, r1, r9, sl, fp, ip, pc}^
 51c:	2e05e603 	cfmadd32cs	mvax0, mvfx14, mvfx5, mvfx3
 520:	2e7a9a03 	vaddcs.f32	s19, s20, s6
 524:	01810321 	orreq	r0, r1, r1, lsr #6
 528:	e0035f3c 	and	r5, r3, ip, lsr pc
 52c:	fa032004 	blx	c8544 <__bss_end__+0xb34d8>
 530:	8603587a 			; <UNDEFINED> instruction: 0x8603587a
 534:	81032e05 	tsthi	r3, r5, lsl #28
 538:	ff03207b 			; <UNDEFINED> instruction: 0xff03207b
 53c:	02002004 	andeq	r2, r0, #4
 540:	76030204 	strvc	r0, [r3], -r4, lsl #4
 544:	7b84034a 	blvc	fe101274 <__bss_end__+0xfe0ec208>
 548:	84036d2e 	strhi	r6, [r3], #-3374	; 0xfffff2d2
 54c:	032f2005 			; <UNDEFINED> instruction: 0x032f2005
 550:	03587af4 	cmpeq	r8, #244, 20	; 0xf4000
 554:	032e058c 			; <UNDEFINED> instruction: 0x032e058c
 558:	03207afb 			; <UNDEFINED> instruction: 0x03207afb
 55c:	03200585 			; <UNDEFINED> instruction: 0x03200585
 560:	034a7af4 	movteq	r7, #43764	; 0xaaf4
 564:	34d6058b 	ldrbcc	r0, [r6], #1419	; 0x58b
 568:	35082d3d 	strcc	r2, [r8, #-3389]	; 0xfffff2c3
 56c:	22134e13 	andscs	r4, r3, #304	; 0x130
 570:	136a222c 	cmnne	sl, #44, 4	; 0xc0000002
 574:	231d2221 	tstcs	sp, #268435458	; 0x10000002
 578:	200d0386 	andcs	r0, sp, r6, lsl #7
 57c:	7303241c 	movwvc	r2, #13340	; 0x341c
 580:	20090320 	andcs	r0, r9, r0, lsr #6
 584:	02003f32 	andeq	r3, r0, #50, 30	; 0xc8
 588:	035b0104 	cmpeq	fp, #4, 2
 58c:	03587ae0 	cmpeq	r8, #224, 20	; 0xe0000
 590:	032005a4 			; <UNDEFINED> instruction: 0x032005a4
 594:	432e7adc 			; <UNDEFINED> instruction: 0x432e7adc
 598:	01040200 	mrseq	r0, R12_usr
 59c:	27585a03 	ldrbcs	r5, [r8, -r3, lsl #20]
 5a0:	2005c103 	andcs	ip, r5, r3, lsl #2
 5a4:	3c7ab803 	ldclcc	8, cr11, [sl], #-12
 5a8:	5805c803 	stmdapl	r5, {r0, r1, fp, lr, pc}
 5ac:	032c3e32 			; <UNDEFINED> instruction: 0x032c3e32
 5b0:	e9032e6a 	stmdb	r3, {r1, r3, r5, r6, r9, sl, fp, sp}
 5b4:	b2034a7a 	andlt	r4, r3, #499712	; 0x7a000
 5b8:	3f22f205 	svccc	0x0022f205
 5bc:	f7032d21 			; <UNDEFINED> instruction: 0xf7032d21
 5c0:	0324207a 			; <UNDEFINED> instruction: 0x0324207a
 5c4:	034a0581 	movteq	r0, #42369	; 0xa581
 5c8:	38207aff 	stmdacc	r0!, {r0, r1, r2, r3, r4, r5, r6, r7, r9, fp, ip, sp, lr}
 5cc:	54247024 	strtpl	r7, [r4], #-36	; 0xffffffdc
 5d0:	05b90324 	ldreq	r0, [r9, #804]!	; 0x324
 5d4:	20570358 	subscs	r0, r7, r8, asr r3
 5d8:	032e2903 			; <UNDEFINED> instruction: 0x032e2903
 5dc:	4b2f3c57 	blmi	bcf740 <__bss_end__+0xbba6d4>
 5e0:	035b215a 	cmpeq	fp, #-2147483626	; 0x80000016
 5e4:	2a207ae8 	bcs	81f18c <__bss_end__+0x80a120>
 5e8:	38321c24 	ldmdacc	r2!, {r2, r5, sl, fp, ip}
 5ec:	54246224 	strtpl	r6, [r4], #-548	; 0xfffffddc
 5f0:	059e0324 	ldreq	r0, [lr, #804]	; 0x324
 5f4:	7ae2033c 	bvc	ff8812ec <__bss_end__+0xff86c280>
 5f8:	05a3032e 	streq	r0, [r3, #814]!	; 0x32e
 5fc:	09032358 	stmdbeq	r3, {r3, r4, r6, r8, r9, sp}
 600:	3c77033c 	ldclcc	3, cr0, [r7], #-240	; 0xffffff10
 604:	032a5c22 			; <UNDEFINED> instruction: 0x032a5c22
 608:	7903200b 	stmdbvc	r3, {r0, r1, r3, sp}
 60c:	33190820 	tstcc	r9, #32, 16	; 0x200000
 610:	033f3d13 	teqeq	pc, #1216	; 0x4c0
 614:	7703200a 	strvc	r2, [r3, -sl]
 618:	2009032e 	andcs	r0, r9, lr, lsr #6
 61c:	207a032a 	rsbscs	r0, sl, sl, lsr #6
 620:	251b2521 	ldrcs	r2, [fp, #-1313]	; 0xfffffadf
 624:	59362f1d 	ldmdbpl	r6!, {r0, r2, r3, r4, r8, r9, sl, fp, sp}
 628:	01040200 	mrseq	r0, R12_usr
 62c:	2d2f5b4c 	vstmdbcs	pc!, {d5-<overflow reg d42>}
 630:	03212e69 			; <UNDEFINED> instruction: 0x03212e69
 634:	242a2011 	strtcs	r2, [sl], #-17	; 0xffffffef
 638:	1f2e6f03 	svcne	0x002e6f03
 63c:	03200e03 			; <UNDEFINED> instruction: 0x03200e03
 640:	0d032073 	stceq	0, cr2, [r3, #-460]	; 0xfffffe34
 644:	2075032e 	rsbscs	r0, r5, lr, lsr #6
 648:	2e10032f 	cdpcs	3, 1, cr0, cr0, cr15, {1}
 64c:	033c7103 	teqeq	ip, #-1073741824	; 0xc0000000
 650:	5a2f2e0f 	bpl	bcbe94 <__bss_end__+0xbb6e28>
 654:	01040200 	mrseq	r0, R12_usr
 658:	00a26922 	adceq	r6, r2, r2, lsr #18
 65c:	06010402 	streq	r0, [r1], -r2, lsl #8
 660:	0402002e 	streq	r0, [r2], #-46	; 0xffffffd2
 664:	36490604 	strbcc	r0, [r9], -r4, lsl #12
 668:	0030322b 	eorseq	r3, r0, fp, lsr #4
 66c:	3f010402 	svccc	0x00010402
 670:	3c67035b 	stclcc	3, cr0, [r7], #-364	; 0xfffffe94
 674:	032e1b03 			; <UNDEFINED> instruction: 0x032e1b03
 678:	15033c6d 	strne	r3, [r3, #-3181]	; 0xfffff393
 67c:	031f3d82 	tsteq	pc, #8320	; 0x2080
 680:	03242010 			; <UNDEFINED> instruction: 0x03242010
 684:	13032e6d 	movwne	r2, #15981	; 0x3e6d
 688:	70032a20 	andvc	r2, r3, r0, lsr #20
 68c:	031f2120 	tsteq	pc, #32, 2
 690:	7a032010 	bvc	c86d8 <__bss_end__+0xb366c>
 694:	207a0320 	rsbscs	r0, sl, r0, lsr #6
 698:	033c1203 	teqeq	ip, #805306368	; 0x30000000
 69c:	1303206d 	movwne	r2, #12397	; 0x306d
 6a0:	2e6f032e 	cdpcs	3, 6, cr0, cr15, cr14, {1}
 6a4:	2f2e1103 	svccs	0x002e1103
 6a8:	032e7103 			; <UNDEFINED> instruction: 0x032e7103
 6ac:	4c30200f 	ldcmi	0, cr2, [r0], #-60	; 0xffffffc4
 6b0:	01040200 	mrseq	r0, R12_usr
 6b4:	21066606 	tstcs	r6, r6, lsl #12
 6b8:	040200a2 	streq	r0, [r2], #-162	; 0xffffff5e
 6bc:	003c0601 	eorseq	r0, ip, r1, lsl #12
 6c0:	06040402 	streq	r0, [r4], -r2, lsl #8
 6c4:	312b3649 			; <UNDEFINED> instruction: 0x312b3649
 6c8:	3c730321 	ldclcc	3, cr0, [r3], #-132	; 0xffffff7c
 6cc:	5a661403 	bpl	19856e0 <__bss_end__+0x1970674>
 6d0:	0402001e 	streq	r0, [r2], #-30	; 0xffffffe2
 6d4:	06200601 	strteq	r0, [r0], -r1, lsl #12
 6d8:	3d692d22 	stclcc	13, cr2, [r9, #-136]!	; 0xffffff78
 6dc:	2e7a0326 	cdpcs	3, 7, cr0, cr10, cr6, {1}
 6e0:	4e4c3a3e 			; <UNDEFINED> instruction: 0x4e4c3a3e
 6e4:	20710332 	rsbscs	r0, r1, r2, lsr r3
 6e8:	03201303 			; <UNDEFINED> instruction: 0x03201303
 6ec:	1e4c206d 	cdpne	0, 4, cr2, cr12, cr13, {3}
 6f0:	762e1603 	strtvc	r1, [lr], -r3, lsl #12
 6f4:	0402001e 	streq	r0, [r2], #-30	; 0xffffffe2
 6f8:	06200601 	strteq	r0, [r0], -r1, lsl #12
 6fc:	21692d22 	cmncs	r9, r2, lsr #26
 700:	2e7a0326 	cdpcs	3, 7, cr0, cr10, cr6, {1}
 704:	4e4c3a3e 			; <UNDEFINED> instruction: 0x4e4c3a3e
 708:	20710332 	rsbscs	r0, r1, r2, lsr r3
 70c:	03201303 			; <UNDEFINED> instruction: 0x03201303
 710:	1e4c206d 	cdpne	0, 4, cr2, cr12, cr13, {3}
 714:	034a5403 	movteq	r5, #41987	; 0xa403
 718:	034a00c2 	movteq	r0, #41154	; 0xa0c2
 71c:	2b364a44 	blcs	d93034 <__bss_end__+0xd7dfc8>
 720:	71032331 	tstvc	r3, r1, lsr r3
 724:	00c2033c 	sbceq	r0, r2, ip, lsr r3
 728:	034f1382 	movteq	r1, #62338	; 0xf382
 72c:	77032011 	smladvc	r3, r1, r0, r2
 730:	20780320 	rsbscs	r0, r8, r0, lsr #6
 734:	79032721 	stmdbvc	r3, {r0, r5, r8, r9, sl, sp}
 738:	79032720 	stmdbvc	r3, {r5, r8, r9, sl, sp}
 73c:	09032720 	stmdbeq	r3, {r5, r8, r9, sl, sp}
 740:	d1033d20 	tstle	r3, r0, lsr #26
 744:	a0037477 	andge	r7, r3, r7, ror r4
 748:	032f2e08 			; <UNDEFINED> instruction: 0x032f2e08
 74c:	212077df 	ldrdcs	r7, [r0, -pc]!
 750:	3c08b003 	stccc	0, cr11, [r8], {3}
 754:	01040200 	mrseq	r0, R12_usr
 758:	ca035b4c 	bgt	d7490 <__bss_end__+0xc2424>
 75c:	b6033c77 			; <UNDEFINED> instruction: 0xb6033c77
 760:	ca034a08 	bgt	d2f88 <__bss_end__+0xbdf1c>
 764:	03212077 			; <UNDEFINED> instruction: 0x03212077
 768:	234a04b4 	movtcs	r0, #42164	; 0xa4b4
 76c:	033d311d 	teqeq	sp, #1073741831	; 0x40000007
 770:	e8580482 	ldmda	r8, {r1, r7, sl}^
 774:	f1035923 			; <UNDEFINED> instruction: 0xf1035923
 778:	9f033c78 	svcls	0x00033c78
 77c:	3e4fd607 	cdpcc	6, 4, cr13, cr15, cr7, {0}
 780:	bd1d851e 	cfldr32lt	mvfx8, [sp, #-120]	; 0xffffff88
 784:	03206903 			; <UNDEFINED> instruction: 0x03206903
 788:	03a12017 			; <UNDEFINED> instruction: 0x03a12017
 78c:	2a2078d6 	bcs	81eaec <__bss_end__+0x809a80>
 790:	03241c24 			; <UNDEFINED> instruction: 0x03241c24
 794:	037407b4 	cmneq	r4, #180, 14	; 0x2d00000
 798:	032e78cc 			; <UNDEFINED> instruction: 0x032e78cc
 79c:	175807b7 			; <UNDEFINED> instruction: 0x175807b7
 7a0:	6e301e22 	cdpvs	14, 3, cr1, cr0, cr2, {1}
 7a4:	7a032216 	bvc	c9004 <__bss_end__+0xb3f98>
 7a8:	201c2420 	andscs	r2, ip, r0, lsr #8
 7ac:	08412224 	stmdaeq	r1, {r2, r5, r9, sp}^
 7b0:	9123be59 			; <UNDEFINED> instruction: 0x9123be59
 7b4:	03412d21 	movteq	r2, #7457	; 0x1d21
 7b8:	75032e12 	strvc	r2, [r3, #-3602]	; 0xfffff1ee
 7bc:	20790320 	rsbscs	r0, r9, r0, lsr #6
 7c0:	032e1203 			; <UNDEFINED> instruction: 0x032e1203
 7c4:	03272075 			; <UNDEFINED> instruction: 0x03272075
 7c8:	2d302079 	ldccs	0, cr2, [r0, #-484]!	; 0xfffffe1c
 7cc:	3e2e0a03 	vmulcc.f32	s0, s28, s6
 7d0:	d7035a5a 	smlsdle	r3, sl, sl, r5
 7d4:	9f032077 	svcls	0x00032077
 7d8:	e1034a08 	tst	r3, r8, lsl #20
 7dc:	03352077 	teqeq	r5, #119	; 0x77
 7e0:	232e08a2 			; <UNDEFINED> instruction: 0x232e08a2
 7e4:	77d7032b 	ldrbvc	r0, [r7, fp, lsr #6]
 7e8:	08ab0390 	stmiaeq	fp!, {r4, r7, r8, r9}
 7ec:	77d5032e 	ldrbvc	r0, [r5, lr, lsr #6]
 7f0:	08b1032e 	ldmeq	r1!, {r1, r2, r3, r5, r8, r9}
 7f4:	005a5b66 	subseq	r5, sl, r6, ror #22
 7f8:	06010402 	streq	r0, [r1], -r2, lsl #8
 7fc:	0402004a 	streq	r0, [r2], #-74	; 0xffffffb6
 800:	005b0601 	subseq	r0, fp, r1, lsl #12
 804:	1d010402 	cfstrsne	mvf0, [r1, #-8]
 808:	2b1f2f23 	blcs	7cc49c <__bss_end__+0x7b7430>
 80c:	580c032c 	stmdapl	ip, {r2, r3, r5, r8, r9}
 810:	11032c4c 	tstne	r3, ip, asr #24
 814:	72035b20 	andvc	r5, r3, #32, 22	; 0x8000
 818:	282c4c3c 	stmdacs	ip!, {r2, r3, r4, r5, sl, fp, lr}
 81c:	19900a03 	ldmibne	r0, {r0, r1, r9, fp}
 820:	03200b03 			; <UNDEFINED> instruction: 0x03200b03
 824:	0335206e 	teqeq	r5, #110	; 0x6e
 828:	032077a1 			; <UNDEFINED> instruction: 0x032077a1
 82c:	272008d8 			; <UNDEFINED> instruction: 0x272008d8
 830:	032e7903 			; <UNDEFINED> instruction: 0x032e7903
 834:	032077a8 			; <UNDEFINED> instruction: 0x032077a8
 838:	032008d8 			; <UNDEFINED> instruction: 0x032008d8
 83c:	76032012 			; <UNDEFINED> instruction: 0x76032012
 840:	2e0a0320 	cdpcs	3, 0, cr0, cr10, cr0, {1}
 844:	03207703 			; <UNDEFINED> instruction: 0x03207703
 848:	96032e09 	strls	r2, [r3], -r9, lsl #28
 84c:	03512e77 	cmpeq	r1, #1904	; 0x770
 850:	0327ac5a 			; <UNDEFINED> instruction: 0x0327ac5a
 854:	92033c79 	andls	r3, r3, #30976	; 0x7900
 858:	034d7409 	movteq	r7, #54281	; 0xd409
 85c:	275876eb 	ldrbcs	r7, [r8, -fp, ror #13]
 860:	2e098e03 	cdpcs	14, 0, cr8, cr9, cr3, {0}
 864:	2e76f203 	cdpcs	2, 7, cr15, cr6, cr3, {0}
 868:	3c098e03 	stccc	14, cr8, [r9], {3}
 86c:	032b2d24 			; <UNDEFINED> instruction: 0x032b2d24
 870:	032076eb 			; <UNDEFINED> instruction: 0x032076eb
 874:	03580995 	cmpeq	r8, #2441216	; 0x254000
 878:	7b4a76eb 	blvc	129e42c <__bss_end__+0x12893c0>
 87c:	2e098b03 	vmlacs.f64	d8, d9, d3
 880:	032e0d03 			; <UNDEFINED> instruction: 0x032e0d03
 884:	6d2076e1 	stcvs	6, cr7, [r0, #-900]!	; 0xfffffc7c
 888:	2e099803 	cdpcs	8, 0, cr9, cr9, cr3, {0}
 88c:	2e76e803 	cdpcs	8, 7, cr14, cr6, cr3, {0}
 890:	2e099803 	cdpcs	8, 0, cr9, cr9, cr3, {0}
 894:	e1032b23 	tst	r3, r3, lsr #22
 898:	9f032076 	svcls	0x00032076
 89c:	e1036609 	tst	r3, r9, lsl #12
 8a0:	9f034a76 	svcls	0x00034a76
 8a4:	2b235809 	blcs	8d68d0 <__bss_end__+0x8c1864>
 8a8:	2076e803 	rsbscs	lr, r6, r3, lsl #16
 8ac:	2009a103 	andcs	sl, r9, r3, lsl #2
 8b0:	11032c4c 	tstne	r3, ip, asr #24
 8b4:	72035b20 	andvc	r5, r3, #32, 22	; 0x8000
 8b8:	032c4c82 			; <UNDEFINED> instruction: 0x032c4c82
 8bc:	99032058 	stmdbls	r3, {r3, r4, r6, sp}
 8c0:	e4039e77 	str	r9, [r3], #-3703	; 0xfffff189
 8c4:	24f2080a 	ldrbtcs	r0, [r2], #2058	; 0x80a
 8c8:	ca032d4b 	bgt	cbdfc <__bss_end__+0xb6d90>
 8cc:	38022e75 	stmdacc	r2, {r0, r2, r4, r5, r6, r9, sl, fp, sp}
 8d0:	2454240e 	ldrbcs	r2, [r4], #-1038	; 0xfffffbf2
 8d4:	24702454 	ldrbtcs	r2, [r0], #-1108	; 0xfffffbac
 8d8:	24702470 	ldrbtcs	r2, [r0], #-1136	; 0xfffffb90
 8dc:	740aca03 	strvc	ip, [sl], #-2563	; 0xfffff5fd
 8e0:	75215921 	strvc	r5, [r1, #-2337]!	; 0xfffff6df
 8e4:	660b0321 	strvs	r0, [fp], -r1, lsr #6
 8e8:	75217521 	strvc	r7, [r1, #-1313]!	; 0xfffffadf
 8ec:	75217521 	strvc	r7, [r1, #-1313]!	; 0xfffffadf
 8f0:	75217521 	strvc	r7, [r1, #-1313]!	; 0xfffffadf
 8f4:	76217521 	strtvc	r7, [r1], -r1, lsr #10
 8f8:	90034021 	andls	r4, r3, r1, lsr #32
 8fc:	242a2075 	strtcs	r2, [sl], #-117	; 0xffffff8b
 900:	2d02241c 	cfstrscs	mvf2, [r2, #-112]	; 0xffffff90
 904:	2454240e 	ldrbcs	r2, [r4], #-1038	; 0xfffffbf2
 908:	24622454 	strbtcs	r2, [r2], #-1108	; 0xfffffbac
 90c:	24622462 	strbtcs	r2, [r2], #-1122	; 0xfffffb9e
 910:	4a0b8003 	bmi	2e0924 <__bss_end__+0x2cb8b8>
 914:	2e758003 	cdpcs	0, 7, cr8, cr5, cr3, {0}
 918:	580b8603 	stmdapl	fp, {r0, r1, r9, sl, pc}
 91c:	0322332e 			; <UNDEFINED> instruction: 0x0322332e
 920:	1503660b 	strne	r6, [r3, #-1547]	; 0xfffff9f5
 924:	2e6b0366 	cdpcs	3, 6, cr0, cr11, cr6, {3}
 928:	592e0b03 	stmdbpl	lr!, {r0, r1, r8, r9, fp}
 92c:	2a4e4642 	bcs	139223c <__bss_end__+0x137d1d0>
 930:	032d2f26 			; <UNDEFINED> instruction: 0x032d2f26
 934:	10032e61 	andne	r2, r3, r1, ror #28
 938:	2e70032e 	cdpcs	3, 7, cr0, cr0, cr14, {1}
 93c:	032e0f03 			; <UNDEFINED> instruction: 0x032e0f03
 940:	342f2e75 	strtcc	r2, [pc], #-3701	; 948 <_start+0x2c>
 944:	194a1903 	stmdbne	sl, {r0, r1, r8, fp, ip}^
 948:	8a301e37 	bhi	c0822c <__bss_end__+0xbf31c0>
 94c:	0059835e 	subseq	r8, r9, lr, asr r3
 950:	4e010402 	cdpmi	4, 0, cr0, cr1, cr2, {0}
 954:	01040200 	mrseq	r0, R12_usr
 958:	2d2f313d 	stfcss	f3, [pc, #-244]!	; 86c <main+0x1c>
 95c:	032e7203 			; <UNDEFINED> instruction: 0x032e7203
 960:	031a7413 	tsteq	sl, #318767104	; 0x13000000
 964:	03282078 			; <UNDEFINED> instruction: 0x03282078
 968:	63033c18 	movwvs	r3, #15384	; 0x3c18
 96c:	835e7c2e 	cmphi	lr, #11776	; 0x2e00
 970:	01040200 	mrseq	r0, R12_usr
 974:	0402004e 	streq	r0, [r2], #-78	; 0xffffffb2
 978:	4d313d01 	ldcmi	13, cr3, [r1, #-4]!
 97c:	033f231d 	teqeq	pc, #1946157056	; 0x74000000
 980:	18032e6d 	stmdane	r3, {r0, r2, r3, r5, r6, r9, sl, fp, sp}
 984:	3b4b2574 	blcc	12c9f5c <__bss_end__+0x12b4ef0>
 988:	4c214c24 	stcmi	12, cr4, [r1], #-144	; 0xffffff70
 98c:	231d3f21 	tstcs	sp, #33, 30	; 0x84
 990:	85301f28 	ldrhi	r1, [r0, #-3880]!	; 0xfffff0d8
 994:	2f3c7603 	svccs	0x003c7603
 998:	033c0903 	teqeq	ip, #49152	; 0xc000
 99c:	6a6675dc 	bvs	199e114 <__bss_end__+0x19890a8>
 9a0:	3840201c 	stmdacc	r0, {r2, r3, r4, sp}^
 9a4:	03020440 	movweq	r0, #9280	; 0x2440
 9a8:	043c7cc2 	ldrteq	r7, [ip], #-3266	; 0xfffff33e
 9ac:	03db0301 	bicseq	r0, fp, #67108864	; 0x4000000
 9b0:	826d0374 	rsbhi	r0, sp, #116, 6	; 0xd0000001
 9b4:	9003444d 	andls	r4, r3, sp, asr #8
 9b8:	034c740a 	movteq	r7, #50186	; 0xc40a
 9bc:	2f7475e9 	svccs	0x007475e9
 9c0:	2f1e2f1f 	svccs	0x001e2f1f
 9c4:	2f262f21 	svccs	0x00262f21
 9c8:	2f1e2f1f 	svccs	0x001e2f1f
 9cc:	35034059 	strcc	r4, [r3, #-89]	; 0xffffffa7
 9d0:	50212e9e 	mlapl	r1, lr, lr, r2
 9d4:	e3034e1c 	movw	r4, #15900	; 0x3e1c
 9d8:	a503747c 	strge	r7, [r3, #-1148]	; 0xfffffb84
 9dc:	db032003 	blle	c89f0 <__bss_end__+0xb3984>
 9e0:	a5033c7c 	strge	r3, [r3, #-3196]	; 0xfffff384
 9e4:	db032003 	blle	c89f8 <__bss_end__+0xb398c>
 9e8:	a5033c7c 	strge	r3, [r3, #-3196]	; 0xfffff384
 9ec:	db032003 	blle	c8a00 <__bss_end__+0xb3994>
 9f0:	0327587c 			; <UNDEFINED> instruction: 0x0327587c
 9f4:	212e03a1 	smulwbcs	lr, r1, r3
 9f8:	2e7cfd03 	cdpcs	13, 7, cr15, cr12, cr3, {0}
 9fc:	2e039103 	mvfcss	f1, f3
 a00:	4b587903 	blmi	161ee14 <__bss_end__+0x1609da8>
 a04:	7ecd034b 	cdpvc	3, 12, cr0, cr13, cr11, {2}
 a08:	b303304a 	movwlt	r3, #12362	; 0x304a
 a0c:	2b312001 	blcs	c48a18 <__bss_end__+0xc339ac>
 a10:	032e6903 			; <UNDEFINED> instruction: 0x032e6903
 a14:	03827d82 	orreq	r7, r2, #8320	; 0x2080
 a18:	21200389 	smlawbcs	r0, r9, r3, r0
 a1c:	2e7cf603 	cdpcs	6, 7, cr15, cr12, cr3, {0}
 a20:	3c039803 	stccc	8, cr9, [r3], {3}
 a24:	032b3163 			; <UNDEFINED> instruction: 0x032b3163
 a28:	13827ed9 	orrne	r7, r2, #3472	; 0xd90
 a2c:	033e211f 	teqeq	lr, #-1073741817	; 0xc0000007
 a30:	78032009 	stmdavc	r3, {r0, r3, sp}
 a34:	7803283c 	stmdavc	r3, {r2, r3, r4, r5, fp, sp}
 a38:	1e30402e 	cdpne	0, 3, cr4, cr0, cr14, {1}
 a3c:	2222483e 	eorcs	r4, r2, #4063232	; 0x3e0000
 a40:	07ab032c 	streq	r0, [fp, ip, lsr #6]!
 a44:	79031990 	stmdbvc	r3, {r4, r7, r8, fp, ip}
 a48:	79033520 	stmdbvc	r3, {r5, r8, sl, ip, sp}
 a4c:	20110320 	andscs	r0, r1, r0, lsr #6
 a50:	03207603 			; <UNDEFINED> instruction: 0x03207603
 a54:	11032e79 	tstne	r3, r9, ror lr
 a58:	2078032e 	rsbscs	r0, r8, lr, lsr #6
 a5c:	2e0a032c 	cdpcs	3, 0, cr0, cr10, cr12, {1}
 a60:	03207703 			; <UNDEFINED> instruction: 0x03207703
 a64:	5a302e09 	bpl	c0c290 <__bss_end__+0xbf7224>
 a68:	5b4b594c 	blpl	12d6fa0 <__bss_end__+0x12c1f34>
 a6c:	1d5b4723 	ldclne	7, cr4, [fp, #-140]	; 0xffffff74
 a70:	68034b28 	stmdavs	r3, {r3, r5, r8, r9, fp, lr}
 a74:	2018033c 	andscs	r0, r8, ip, lsr r3
 a78:	005b8531 	subseq	r8, fp, r1, lsr r5
 a7c:	06010402 	streq	r0, [r1], -r2, lsl #8
 a80:	0402004a 	streq	r0, [r2], #-74	; 0xffffffb6
 a84:	005b0601 	subseq	r0, fp, r1, lsl #12
 a88:	1d010402 	cfstrsne	mvf0, [r1, #-8]
 a8c:	2d242b23 	fstmdbxcs	r4!, {d2-d18}	;@ Deprecated
 a90:	0d031d2b 	stceq	13, cr1, [r3, #-172]	; 0xffffff54
 a94:	232b4d58 			; <UNDEFINED> instruction: 0x232b4d58
 a98:	0402002b 	streq	r0, [r2], #-43	; 0xffffffd5
 a9c:	00200601 	eoreq	r0, r0, r1, lsl #12
 aa0:	06010402 	streq	r0, [r1], -r2, lsl #8
 aa4:	0402005b 	streq	r0, [r2], #-91	; 0xffffffa5
 aa8:	09031d01 	stmdbeq	r3, {r0, r8, sl, fp, ip}
 aac:	032c4c20 			; <UNDEFINED> instruction: 0x032c4c20
 ab0:	035b2011 	cmpeq	fp, #17
 ab4:	033c7fb8 	teqeq	ip, #184, 30	; 0x2e0
 ab8:	2c4c2e3a 	mcrrcs	14, 3, r2, ip, cr10
 abc:	900c0328 	andls	r0, ip, r8, lsr #6
 ac0:	20790343 	rsbscs	r0, r9, r3, asr #6
 ac4:	032e1203 			; <UNDEFINED> instruction: 0x032e1203
 ac8:	0b032075 	bleq	c8ca4 <__bss_end__+0xb3c38>
 acc:	206e0320 	rsbcs	r0, lr, r0, lsr #6
 ad0:	2e790327 	cdpcs	3, 7, cr0, cr9, cr7, {1}
 ad4:	2c200903 			; <UNDEFINED> instruction: 0x2c200903
 ad8:	032e0b03 			; <UNDEFINED> instruction: 0x032e0b03
 adc:	0b032075 	bleq	c8cb8 <__bss_end__+0xb3c4c>
 ae0:	035b312e 	cmpeq	fp, #-2147483637	; 0x8000000b
 ae4:	10032e70 	andne	r2, r3, r0, ror lr
 ae8:	e703312e 	str	r3, [r3, -lr, lsr #2]
 aec:	8c032075 	stchi	0, cr2, [r3], {117}	; 0x75
 af0:	f4034a0a 	vst1.8	{d4-d5}, [r3], sl
 af4:	03352075 	teqeq	r5, #117	; 0x75
 af8:	1d2e0a95 	vstmdbne	lr!, {s0-s148}
 afc:	7475e703 	ldrbtvc	lr, [r5], #-1795	; 0xfffff8fd
 b00:	2e0a9b03 	vmlacs.f64	d9, d10, d3
 b04:	2e75e503 	cdpcs	5, 7, cr14, cr5, cr3, {0}
 b08:	03666103 	cmneq	r6, #-1073741824	; 0xc0000000
 b0c:	03200ac0 			; <UNDEFINED> instruction: 0x03200ac0
 b10:	035875c0 	cmpeq	r8, #192, 10	; 0x30000000
 b14:	03200ac3 			; <UNDEFINED> instruction: 0x03200ac3
 b18:	032075c4 			; <UNDEFINED> instruction: 0x032075c4
 b1c:	2b2e0abf 	blcs	b83620 <__bss_end__+0xb6e5b4>
 b20:	5875bd03 	ldmdapl	r5!, {r0, r1, r8, sl, fp, ip, sp, pc}^
 b24:	660ac603 	strvs	ip, [sl], -r3, lsl #12
 b28:	2a2e0c03 	bcs	b83b3c <__bss_end__+0xb6ead0>
 b2c:	5b2f1c32 	blpl	bc7bfc <__bss_end__+0xbb2b90>
 b30:	3c75ae03 	ldclcc	14, cr10, [r5], #-12
 b34:	2e0ad203 	cdpcs	2, 0, cr13, cr10, cr3, {0}
 b38:	4a75ae03 	bmi	1d6c34c <__bss_end__+0x1d572e0>
 b3c:	200acb03 	andcs	ip, sl, r3, lsl #22
 b40:	2075b503 	rsbscs	fp, r5, r3, lsl #10
 b44:	0ace0343 	beq	ff381858 <__bss_end__+0xff36c7ec>
 b48:	af03312e 	svcge	0x0003312e
 b4c:	d1036675 	tstle	r3, r5, ror r6
 b50:	2d242e0a 	stccs	14, cr2, [r4, #-40]!	; 0xffffffd8
 b54:	0402002b 	streq	r0, [r2], #-43	; 0xffffffd5
 b58:	06200601 	strteq	r0, [r0], -r1, lsl #12
 b5c:	5875a803 	ldmdapl	r5!, {r0, r1, fp, sp, pc}^
 b60:	ac0ad503 	cfstr32ge	mvfx13, [sl], {3}
 b64:	692e0d03 	stmdbvs	lr!, {r0, r1, r8, sl, fp}
 b68:	002b232b 	eoreq	r2, fp, fp, lsr #6
 b6c:	06010402 	streq	r0, [r1], -r2, lsl #8
 b70:	04020020 	streq	r0, [r2], #-32	; 0xffffffe0
 b74:	005b0601 	subseq	r0, fp, r1, lsl #12
 b78:	1d010402 	cfstrsne	mvf0, [r1, #-8]
 b7c:	4c200903 			; <UNDEFINED> instruction: 0x4c200903
 b80:	2011032c 	andscs	r0, r1, ip, lsr #6
 b84:	4a4c035b 	bmi	13018f8 <__bss_end__+0x12ec88c>
 b88:	4c2e2603 	stcmi	6, cr2, [lr], #-12
 b8c:	ef03282c 	svc	0x0003282c
 b90:	0021f201 	eoreq	pc, r1, r1, lsl #4
 b94:	3e010402 	cdpcc	4, 0, cr0, cr1, cr2, {0}
 b98:	1f593368 	svcne	0x00593368
 b9c:	1f2f2d4b 	svcne	0x002f2d4b
 ba0:	c7032121 	strgt	r2, [r3, -r1, lsr #2]
 ba4:	031e3c75 	tsteq	lr, #29952	; 0x7500
 ba8:	03200ac1 			; <UNDEFINED> instruction: 0x03200ac1
 bac:	034a75bf 	movteq	r7, #42431	; 0xa5bf
 bb0:	03200ac1 			; <UNDEFINED> instruction: 0x03200ac1
 bb4:	2c2e75c1 	cfstr32cs	mvfx7, [lr], #-772	; 0xfffffcfc
 bb8:	2f579121 	svccs	0x00579121
 bbc:	2e0ac203 	cdpcs	2, 0, cr12, cr10, cr3, {0}
 bc0:	0875bb69 	ldmdaeq	r5!, {r0, r3, r5, r6, r8, r9, fp, ip, sp, pc}^
 bc4:	211f1315 	tstcs	pc, r5, lsl r3	; <UNPREDICTABLE>
 bc8:	225a4d4b 	subscs	r4, sl, #4800	; 0x12c0
 bcc:	03213121 			; <UNDEFINED> instruction: 0x03213121
 bd0:	032e738c 			; <UNDEFINED> instruction: 0x032e738c
 bd4:	03200d85 			; <UNDEFINED> instruction: 0x03200d85
 bd8:	032072fb 			; <UNDEFINED> instruction: 0x032072fb
 bdc:	03200d85 			; <UNDEFINED> instruction: 0x03200d85
 be0:	032072fb 			; <UNDEFINED> instruction: 0x032072fb
 be4:	03200d85 			; <UNDEFINED> instruction: 0x03200d85
 be8:	272072fb 			; <UNDEFINED> instruction: 0x272072fb
 bec:	200d8103 	andcs	r8, sp, r3, lsl #2
 bf0:	30207003 	eorcc	r7, r0, r3
 bf4:	03213121 			; <UNDEFINED> instruction: 0x03213121
 bf8:	312f3c73 			; <UNDEFINED> instruction: 0x312f3c73
 bfc:	03581203 	cmpeq	r8, #805306368	; 0x30000000
 c00:	03404a75 	movteq	r4, #2677	; 0xa75
 c04:	59139e0a 	ldmdbpl	r3, {r1, r3, r9, sl, fp, ip, pc}
 c08:	f003253a 			; <UNDEFINED> instruction: 0xf003253a
 c0c:	03512072 	cmpeq	r1, #114	; 0x72
 c10:	3a200d8d 	bcc	80424c <__bss_end__+0x7ef1e0>
 c14:	2e72ee03 	cdpcs	14, 7, cr14, cr2, cr3, {0}
 c18:	0d8d0351 	stceq	3, cr0, [sp, #324]	; 0x144
 c1c:	13150858 	tstne	r5, #88, 16	; 0x580000
 c20:	03253a59 			; <UNDEFINED> instruction: 0x03253a59
 c24:	512072e4 			; <UNDEFINED> instruction: 0x512072e4
 c28:	200d9903 	andcs	r9, sp, r3, lsl #18
 c2c:	72e2033a 	rscvc	r0, r2, #-402653184	; 0xe8000000
 c30:	9903512e 	stmdbls	r3, {r1, r2, r3, r5, r8, ip, lr}
 c34:	1608580d 	strne	r5, [r8], -sp, lsl #16
 c38:	65ca4c58 	strbvs	r4, [sl, #3160]	; 0xc58
 c3c:	1703301f 	smladne	r3, pc, r0, r3	; <UNPREDICTABLE>
 c40:	1b412e74 	blne	104c618 <__bss_end__+0x10375ac>
 c44:	30332925 	eorscc	r2, r3, r5, lsr #18
 c48:	222b213e 	eorcs	r2, fp, #-2147483633	; 0x8000000f
 c4c:	10032b2f 	andne	r2, r3, pc, lsr #22
 c50:	20720320 	rsbscs	r0, r2, r0, lsr #6
 c54:	2f211f22 	svccs	0x00211f22
 c58:	2d2f212d 	stfcss	f2, [pc, #-180]!	; bac <PCA9685Servo::CalcLeftCount()+0x20>
 c5c:	212d2f21 			; <UNDEFINED> instruction: 0x212d2f21
 c60:	2f212d2f 	svccs	0x00212d2f
 c64:	2d2f212d 	stfcss	f2, [pc, #-180]!	; bb8 <PCA9685Servo::CalcLeftCount()+0x2c>
 c68:	212d2f21 			; <UNDEFINED> instruction: 0x212d2f21
 c6c:	03221e30 			; <UNDEFINED> instruction: 0x03221e30
 c70:	033c0184 	teqeq	ip, #132, 2	; 0x21
 c74:	04747f85 	ldrbteq	r7, [r4], #-3973	; 0xfffff07b
 c78:	72c90302 	sbcvc	r0, r9, #134217728	; 0x8000000
 c7c:	03010482 	movweq	r0, #5250	; 0x1482
 c80:	03660dbc 	cmneq	r6, #188, 26	; 0x2f00
 c84:	0e03660c 	cfmadd32eq	mvax0, mvfx6, mvfx3, mvfx12
 c88:	5810033c 	ldmdapl	r0, {r2, r3, r4, r5, r8, r9}
 c8c:	043c0b03 	ldrteq	r0, [ip], #-2819	; 0xfffff4fd
 c90:	709e0303 	addsvc	r0, lr, r3, lsl #6
 c94:	0301042e 	movweq	r0, #5166	; 0x142e
 c98:	042e0fe2 	strteq	r0, [lr], #-4066	; 0xfffff01e
 c9c:	709e0303 	addsvc	r0, lr, r3, lsl #6
 ca0:	0301042e 	movweq	r0, #5166	; 0x142e
 ca4:	36660fe9 	strbtcc	r0, [r6], -r9, ror #31
 ca8:	2c031f83 	stccs	15, cr1, [r3], {131}	; 0x83
 cac:	20550320 	subscs	r0, r5, r0, lsr #6
 cb0:	2c200a03 			; <UNDEFINED> instruction: 0x2c200a03
 cb4:	242c2f31 	strtcs	r2, [ip], #-3889	; 0xfffff0cf
 cb8:	1d2d2329 	stcne	3, cr2, [sp, #-164]!	; 0xffffff5c
 cbc:	2e7a0334 	mrccs	3, 3, r0, cr10, cr4, {1}
 cc0:	03232b27 			; <UNDEFINED> instruction: 0x03232b27
 cc4:	502f2e77 	eorpl	r2, pc, r7, ror lr	; <UNPREDICTABLE>
 cc8:	03242a32 			; <UNDEFINED> instruction: 0x03242a32
 ccc:	0304201a 	movweq	r2, #16410	; 0x401a
 cd0:	4a6fe303 	bmi	1bf98e4 <__bss_end__+0x1be4878>
 cd4:	8c030104 	stfhis	f0, [r3], {4}
 cd8:	2f366610 	svccs	0x00366610
 cdc:	211f212d 	tstcs	pc, sp, lsr #2
 ce0:	03281f3d 			; <UNDEFINED> instruction: 0x03281f3d
 ce4:	26212079 			; <UNDEFINED> instruction: 0x26212079
 ce8:	03660b03 	cmneq	r6, #3072	; 0xc00
 cec:	2d3dac66 	ldccs	12, cr10, [sp, #-408]!	; 0xfffffe68
 cf0:	9e030204 	cdpls	2, 0, cr0, cr3, cr4, {0}
 cf4:	01043c70 	tsteq	r4, r0, ror ip
 cf8:	820fbf03 	andhi	fp, pc, #3, 30
 cfc:	02042d3d 	andeq	r2, r4, #3904	; 0xf40
 d00:	3c70c103 	ldfccp	f4, [r0], #-12
 d04:	90030104 	andls	r0, r3, r4, lsl #2
 d08:	0025900f 	eoreq	r9, r5, pc
 d0c:	34010402 	strcc	r0, [r1], #-1026	; 0xfffffbfe
 d10:	f45a5959 			; <UNDEFINED> instruction: 0xf45a5959
 d14:	212f2c22 			; <UNDEFINED> instruction: 0x212f2c22
 d18:	00d20330 	sbcseq	r0, r2, r0, lsr r3
 d1c:	16220258 			; <UNDEFINED> instruction: 0x16220258
 d20:	66120321 	ldrvs	r0, [r2], -r1, lsr #6
 d24:	01000502 	tsteq	r0, r2, lsl #10
 d28:	Address 0x00000d28 is out of bounds.


Disassembly of section .debug_frame:

00000000 <.debug_frame>:
   0:	0000000c 	andeq	r0, r0, ip
   4:	ffffffff 			; <UNDEFINED> instruction: 0xffffffff
   8:	7c020001 	stcvc	0, cr0, [r2], {1}
   c:	000d0c0e 	andeq	r0, sp, lr, lsl #24
  10:	00000014 	andeq	r0, r0, r4, lsl r0
  14:	00000000 	andeq	r0, r0, r0
  18:	00001f28 	andeq	r1, r0, r8, lsr #30
  1c:	00000018 	andeq	r0, r0, r8, lsl r0
  20:	83080e43 	movwhi	r0, #36419	; 0x8e43
  24:	00018e02 	andeq	r8, r1, r2, lsl #28
  28:	0000000c 	andeq	r0, r0, ip
  2c:	00000000 	andeq	r0, r0, r0
  30:	00001f40 	andeq	r1, r0, r0, asr #30
  34:	00000014 	andeq	r0, r0, r4, lsl r0
  38:	00000014 	andeq	r0, r0, r4, lsl r0
  3c:	00000000 	andeq	r0, r0, r0
  40:	00001f54 	andeq	r1, r0, r4, asr pc
  44:	0000003c 	andeq	r0, r0, ip, lsr r0
  48:	83080e41 	movwhi	r0, #36417	; 0x8e41
  4c:	00018e02 	andeq	r8, r1, r2, lsl #28
  50:	00000024 	andeq	r0, r0, r4, lsr #32
  54:	00000000 	andeq	r0, r0, r0
  58:	00001f90 	muleq	r0, r0, pc	; <UNPREDICTABLE>
  5c:	0000005c 	andeq	r0, r0, ip, asr r0
  60:	840c0e41 	strhi	r0, [ip], #-3649	; 0xfffff1bf
  64:	8e028503 	cfsh32hi	mvfx8, mvfx2, #3
  68:	180e4101 	stmdane	lr, {r0, r8, lr}
  6c:	0c0e0a4f 			; <UNDEFINED> instruction: 0x0c0e0a4f
  70:	0e530b41 	vnmlaeq.f64	d16, d3, d1
  74:	0000000c 	andeq	r0, r0, ip
  78:	0000000c 	andeq	r0, r0, ip
  7c:	00000000 	andeq	r0, r0, r0
  80:	00001fec 	andeq	r1, r0, ip, ror #31
  84:	00000094 	muleq	r0, r4, r0
  88:	0000000c 	andeq	r0, r0, ip
  8c:	00000000 	andeq	r0, r0, r0
  90:	00002080 	andeq	r2, r0, r0, lsl #1
  94:	0000000c 	andeq	r0, r0, ip
  98:	0000000c 	andeq	r0, r0, ip
  9c:	00000000 	andeq	r0, r0, r0
  a0:	0000208c 	andeq	r2, r0, ip, lsl #1
  a4:	00000006 	andeq	r0, r0, r6
  a8:	00000014 	andeq	r0, r0, r4, lsl r0
  ac:	00000000 	andeq	r0, r0, r0
  b0:	00002094 	muleq	r0, r4, r0
  b4:	00000030 	andeq	r0, r0, r0, lsr r0
  b8:	83080e41 	movwhi	r0, #36417	; 0x8e41
  bc:	00018e02 	andeq	r8, r1, r2, lsl #28
  c0:	0000000c 	andeq	r0, r0, ip
  c4:	00000000 	andeq	r0, r0, r0
  c8:	000020c4 	andeq	r2, r0, r4, asr #1
  cc:	00000014 	andeq	r0, r0, r4, lsl r0
  d0:	0000001c 	andeq	r0, r0, ip, lsl r0
  d4:	00000000 	andeq	r0, r0, r0
  d8:	000020d8 	ldrdeq	r2, [r0], -r8
  dc:	00000034 	andeq	r0, r0, r4, lsr r0
  e0:	84040e41 	strhi	r0, [r4], #-3649	; 0xfffff1bf
  e4:	c40a4b01 	strgt	r4, [sl], #-2817	; 0xfffff4ff
  e8:	0b41000e 	bleq	1040128 <__bss_end__+0x102b0bc>
  ec:	000ec445 	andeq	ip, lr, r5, asr #8
  f0:	0000000c 	andeq	r0, r0, ip
  f4:	00000000 	andeq	r0, r0, r0
  f8:	0000210c 	andeq	r2, r0, ip, lsl #2
  fc:	00000014 	andeq	r0, r0, r4, lsl r0
 100:	00000018 	andeq	r0, r0, r8, lsl r0
 104:	00000000 	andeq	r0, r0, r0
 108:	00002120 	andeq	r2, r0, r0, lsr #2
 10c:	0000001c 	andeq	r0, r0, ip, lsl r0
 110:	84040e45 	strhi	r0, [r4], #-3653	; 0xfffff1bb
 114:	0ec44401 	cdpeq	4, 12, cr4, cr4, cr1, {0}
 118:	00000000 	andeq	r0, r0, r0
 11c:	00000020 	andeq	r0, r0, r0, lsr #32
 120:	00000000 	andeq	r0, r0, r0
 124:	0000213c 	andeq	r2, r0, ip, lsr r1
 128:	0000001e 	andeq	r0, r0, lr, lsl r0
 12c:	84100e41 	ldrhi	r0, [r0], #-3649	; 0xfffff1bf
 130:	86038504 	strhi	r8, [r3], -r4, lsl #10
 134:	4c018e02 	stcmi	14, cr8, [r1], {2}
 138:	c4c5c6ce 	strbgt	ip, [r5], #1742	; 0x6ce
 13c:	0000000e 	andeq	r0, r0, lr
 140:	00000020 	andeq	r0, r0, r0, lsr #32
 144:	00000000 	andeq	r0, r0, r0
 148:	0000215c 	andeq	r2, r0, ip, asr r1
 14c:	00000040 	andeq	r0, r0, r0, asr #32
 150:	84100e42 	ldrhi	r0, [r0], #-3650	; 0xfffff1be
 154:	86038504 	strhi	r8, [r3], -r4, lsl #10
 158:	54018b02 	strpl	r8, [r1], #-2818	; 0xfffff4fe
 15c:	c4c5c6cb 	strbgt	ip, [r5], #1739	; 0x6cb
 160:	0000000e 	andeq	r0, r0, lr
 164:	00000018 	andeq	r0, r0, r8, lsl r0
 168:	00000000 	andeq	r0, r0, r0
 16c:	0000219c 	muleq	r0, ip, r1
 170:	00000028 	andeq	r0, r0, r8, lsr #32
 174:	84040e47 	strhi	r0, [r4], #-3655	; 0xfffff1b9
 178:	0ec44601 	cdpeq	6, 12, cr4, cr4, cr1, {0}
 17c:	00000000 	andeq	r0, r0, r0
 180:	00000018 	andeq	r0, r0, r8, lsl r0
 184:	00000000 	andeq	r0, r0, r0
 188:	000021c4 	andeq	r2, r0, r4, asr #3
 18c:	00000028 	andeq	r0, r0, r8, lsr #32
 190:	84040e47 	strhi	r0, [r4], #-3655	; 0xfffff1b9
 194:	0ec44601 	cdpeq	6, 12, cr4, cr4, cr1, {0}
 198:	00000000 	andeq	r0, r0, r0
 19c:	0000000c 	andeq	r0, r0, ip
 1a0:	00000000 	andeq	r0, r0, r0
 1a4:	000021ec 	andeq	r2, r0, ip, ror #3
 1a8:	00000014 	andeq	r0, r0, r4, lsl r0
 1ac:	0000000c 	andeq	r0, r0, ip
 1b0:	00000000 	andeq	r0, r0, r0
 1b4:	00002200 	andeq	r2, r0, r0, lsl #4
 1b8:	00000014 	andeq	r0, r0, r4, lsl r0
 1bc:	00000014 	andeq	r0, r0, r4, lsl r0
 1c0:	00000000 	andeq	r0, r0, r0
 1c4:	00002214 	andeq	r2, r0, r4, lsl r2
 1c8:	00000030 	andeq	r0, r0, r0, lsr r0
 1cc:	84080e43 	strhi	r0, [r8], #-3651	; 0xfffff1bd
 1d0:	00018e02 	andeq	r8, r1, r2, lsl #28
 1d4:	00000014 	andeq	r0, r0, r4, lsl r0
 1d8:	00000000 	andeq	r0, r0, r0
 1dc:	00002244 	andeq	r2, r0, r4, asr #4
 1e0:	00000030 	andeq	r0, r0, r0, lsr r0
 1e4:	84080e43 	strhi	r0, [r8], #-3651	; 0xfffff1bd
 1e8:	00018e02 	andeq	r8, r1, r2, lsl #28
 1ec:	00000014 	andeq	r0, r0, r4, lsl r0
 1f0:	00000000 	andeq	r0, r0, r0
 1f4:	00002274 	andeq	r2, r0, r4, ror r2
 1f8:	00000018 	andeq	r0, r0, r8, lsl r0
 1fc:	84080e42 	strhi	r0, [r8], #-3650	; 0xfffff1be
 200:	00018e02 	andeq	r8, r1, r2, lsl #28
 204:	00000018 	andeq	r0, r0, r8, lsl r0
 208:	00000000 	andeq	r0, r0, r0
 20c:	0000228c 	andeq	r2, r0, ip, lsl #5
 210:	00000028 	andeq	r0, r0, r8, lsr #32
 214:	84040e47 	strhi	r0, [r4], #-3655	; 0xfffff1b9
 218:	0ec44601 	cdpeq	6, 12, cr4, cr4, cr1, {0}
 21c:	00000000 	andeq	r0, r0, r0
 220:	0000000c 	andeq	r0, r0, ip
 224:	00000000 	andeq	r0, r0, r0
 228:	000022b4 			; <UNDEFINED> instruction: 0x000022b4
 22c:	00000014 	andeq	r0, r0, r4, lsl r0
 230:	00000018 	andeq	r0, r0, r8, lsl r0
 234:	00000000 	andeq	r0, r0, r0
 238:	000022c8 	andeq	r2, r0, r8, asr #5
 23c:	00000028 	andeq	r0, r0, r8, lsr #32
 240:	84040e41 	strhi	r0, [r4], #-3649	; 0xfffff1bf
 244:	0ec44c01 	cdpeq	12, 12, cr4, cr4, cr1, {0}
 248:	00000000 	andeq	r0, r0, r0
 24c:	00000018 	andeq	r0, r0, r8, lsl r0
 250:	00000000 	andeq	r0, r0, r0
 254:	000022f0 	strdeq	r2, [r0], -r0
 258:	00000028 	andeq	r0, r0, r8, lsr #32
 25c:	84040e47 	strhi	r0, [r4], #-3655	; 0xfffff1b9
 260:	0ec44701 	cdpeq	7, 12, cr4, cr4, cr1, {0}
 264:	00000000 	andeq	r0, r0, r0
 268:	00000018 	andeq	r0, r0, r8, lsl r0
 26c:	00000000 	andeq	r0, r0, r0
 270:	00002318 	andeq	r2, r0, r8, lsl r3
 274:	00000028 	andeq	r0, r0, r8, lsr #32
 278:	84040e41 	strhi	r0, [r4], #-3649	; 0xfffff1bf
 27c:	0ec44c01 	cdpeq	12, 12, cr4, cr4, cr1, {0}
 280:	00000000 	andeq	r0, r0, r0
 284:	00000018 	andeq	r0, r0, r8, lsl r0
 288:	00000000 	andeq	r0, r0, r0
 28c:	00002340 	andeq	r2, r0, r0, asr #6
 290:	00000028 	andeq	r0, r0, r8, lsr #32
 294:	84040e47 	strhi	r0, [r4], #-3655	; 0xfffff1b9
 298:	0ec44701 	cdpeq	7, 12, cr4, cr4, cr1, {0}
 29c:	00000000 	andeq	r0, r0, r0
 2a0:	00000018 	andeq	r0, r0, r8, lsl r0
 2a4:	00000000 	andeq	r0, r0, r0
 2a8:	00002368 	andeq	r2, r0, r8, ror #6
 2ac:	00000028 	andeq	r0, r0, r8, lsr #32
 2b0:	84040e41 	strhi	r0, [r4], #-3649	; 0xfffff1bf
 2b4:	0ec44c01 	cdpeq	12, 12, cr4, cr4, cr1, {0}
 2b8:	00000000 	andeq	r0, r0, r0
 2bc:	00000018 	andeq	r0, r0, r8, lsl r0
 2c0:	00000000 	andeq	r0, r0, r0
 2c4:	00002390 	muleq	r0, r0, r3
 2c8:	00000028 	andeq	r0, r0, r8, lsr #32
 2cc:	84040e47 	strhi	r0, [r4], #-3655	; 0xfffff1b9
 2d0:	0ec44701 	cdpeq	7, 12, cr4, cr4, cr1, {0}
 2d4:	00000000 	andeq	r0, r0, r0
 2d8:	00000018 	andeq	r0, r0, r8, lsl r0
 2dc:	00000000 	andeq	r0, r0, r0
 2e0:	000023b8 			; <UNDEFINED> instruction: 0x000023b8
 2e4:	00000028 	andeq	r0, r0, r8, lsr #32
 2e8:	84040e41 	strhi	r0, [r4], #-3649	; 0xfffff1bf
 2ec:	0ec44c01 	cdpeq	12, 12, cr4, cr4, cr1, {0}
 2f0:	00000000 	andeq	r0, r0, r0
 2f4:	00000018 	andeq	r0, r0, r8, lsl r0
 2f8:	00000000 	andeq	r0, r0, r0
 2fc:	000023e0 	andeq	r2, r0, r0, ror #7
 300:	00000028 	andeq	r0, r0, r8, lsr #32
 304:	84040e47 	strhi	r0, [r4], #-3655	; 0xfffff1b9
 308:	0ec44701 	cdpeq	7, 12, cr4, cr4, cr1, {0}
 30c:	00000000 	andeq	r0, r0, r0
 310:	00000018 	andeq	r0, r0, r8, lsl r0
 314:	00000000 	andeq	r0, r0, r0
 318:	00002408 	andeq	r2, r0, r8, lsl #8
 31c:	00000028 	andeq	r0, r0, r8, lsr #32
 320:	84040e41 	strhi	r0, [r4], #-3649	; 0xfffff1bf
 324:	0ec44c01 	cdpeq	12, 12, cr4, cr4, cr1, {0}
 328:	00000000 	andeq	r0, r0, r0
 32c:	00000018 	andeq	r0, r0, r8, lsl r0
 330:	00000000 	andeq	r0, r0, r0
 334:	00002430 	andeq	r2, r0, r0, lsr r4
 338:	00000028 	andeq	r0, r0, r8, lsr #32
 33c:	84040e47 	strhi	r0, [r4], #-3655	; 0xfffff1b9
 340:	0ec44701 	cdpeq	7, 12, cr4, cr4, cr1, {0}
 344:	00000000 	andeq	r0, r0, r0
 348:	00000018 	andeq	r0, r0, r8, lsl r0
 34c:	00000000 	andeq	r0, r0, r0
 350:	00002458 	andeq	r2, r0, r8, asr r4
 354:	00000028 	andeq	r0, r0, r8, lsr #32
 358:	84040e41 	strhi	r0, [r4], #-3649	; 0xfffff1bf
 35c:	0ec44c01 	cdpeq	12, 12, cr4, cr4, cr1, {0}
 360:	00000000 	andeq	r0, r0, r0
 364:	00000018 	andeq	r0, r0, r8, lsl r0
 368:	00000000 	andeq	r0, r0, r0
 36c:	00002480 	andeq	r2, r0, r0, lsl #9
 370:	00000028 	andeq	r0, r0, r8, lsr #32
 374:	84040e47 	strhi	r0, [r4], #-3655	; 0xfffff1b9
 378:	0ec44701 	cdpeq	7, 12, cr4, cr4, cr1, {0}
 37c:	00000000 	andeq	r0, r0, r0
 380:	0000000c 	andeq	r0, r0, ip
 384:	00000000 	andeq	r0, r0, r0
 388:	000024a8 	andeq	r2, r0, r8, lsr #9
 38c:	00000014 	andeq	r0, r0, r4, lsl r0
 390:	0000000c 	andeq	r0, r0, ip
 394:	00000000 	andeq	r0, r0, r0
 398:	000024bc 			; <UNDEFINED> instruction: 0x000024bc
 39c:	0000001c 	andeq	r0, r0, ip, lsl r0
 3a0:	0000000c 	andeq	r0, r0, ip
 3a4:	00000000 	andeq	r0, r0, r0
 3a8:	000024d8 	ldrdeq	r2, [r0], -r8
 3ac:	00000020 	andeq	r0, r0, r0, lsr #32
 3b0:	00000024 	andeq	r0, r0, r4, lsr #32
 3b4:	00000000 	andeq	r0, r0, r0
 3b8:	000024f8 	strdeq	r2, [r0], -r8
 3bc:	00000058 	andeq	r0, r0, r8, asr r0
 3c0:	84140e41 	ldrhi	r0, [r4], #-3649	; 0xfffff1bf
 3c4:	86048505 	strhi	r8, [r4], -r5, lsl #10
 3c8:	8e028703 	cdphi	7, 0, cr8, cr2, cr3, {0}
 3cc:	280e4701 	stmdacs	lr, {r0, r8, r9, sl, lr}
 3d0:	140e0a5c 	strne	r0, [lr], #-2652	; 0xfffff5a4
 3d4:	00000b41 	andeq	r0, r0, r1, asr #22
 3d8:	0000000c 	andeq	r0, r0, ip
 3dc:	00000000 	andeq	r0, r0, r0
 3e0:	00002550 	andeq	r2, r0, r0, asr r5
 3e4:	0000000a 	andeq	r0, r0, sl
 3e8:	0000000c 	andeq	r0, r0, ip
 3ec:	00000000 	andeq	r0, r0, r0
 3f0:	0000255c 	andeq	r2, r0, ip, asr r5
 3f4:	00000020 	andeq	r0, r0, r0, lsr #32
 3f8:	00000020 	andeq	r0, r0, r0, lsr #32
 3fc:	00000000 	andeq	r0, r0, r0
 400:	0000257c 	andeq	r2, r0, ip, ror r5
 404:	00000028 	andeq	r0, r0, r8, lsr #32
 408:	84100e41 	ldrhi	r0, [r0], #-3649	; 0xfffff1bf
 40c:	86038504 	strhi	r8, [r3], -r4, lsl #10
 410:	4f018e02 	svcmi	0x00018e02
 414:	c4c5c6ce 	strbgt	ip, [r5], #1742	; 0x6ce
 418:	0000000e 	andeq	r0, r0, lr
 41c:	00000018 	andeq	r0, r0, r8, lsl r0
 420:	00000000 	andeq	r0, r0, r0
 424:	000025a4 	andeq	r2, r0, r4, lsr #11
 428:	0000005c 	andeq	r0, r0, ip, asr r0
 42c:	84080e47 	strhi	r0, [r8], #-3655	; 0xfffff1b9
 430:	60018e02 	andvs	r8, r1, r2, lsl #28
 434:	cec4000e 	cdpgt	0, 12, cr0, cr4, cr14, {0}
 438:	00000014 	andeq	r0, r0, r4, lsl r0
 43c:	00000000 	andeq	r0, r0, r0
 440:	00002600 	andeq	r2, r0, r0, lsl #12
 444:	00000080 	andeq	r0, r0, r0, lsl #1
 448:	84080e41 	strhi	r0, [r8], #-3649	; 0xfffff1bf
 44c:	00018e02 	andeq	r8, r1, r2, lsl #28
 450:	00000018 	andeq	r0, r0, r8, lsl r0
 454:	00000000 	andeq	r0, r0, r0
 458:	00002680 	andeq	r2, r0, r0, lsl #13
 45c:	0000004c 	andeq	r0, r0, ip, asr #32
 460:	84080e41 	strhi	r0, [r8], #-3649	; 0xfffff1bf
 464:	60018e02 	andvs	r8, r1, r2, lsl #28
 468:	000ec4ce 	andeq	ip, lr, lr, asr #9
 46c:	0000000c 	andeq	r0, r0, ip
 470:	00000000 	andeq	r0, r0, r0
 474:	000026cc 	andeq	r2, r0, ip, asr #13
 478:	00000010 	andeq	r0, r0, r0, lsl r0
 47c:	0000000c 	andeq	r0, r0, ip
 480:	00000000 	andeq	r0, r0, r0
 484:	000026dc 	ldrdeq	r2, [r0], -ip
 488:	00000014 	andeq	r0, r0, r4, lsl r0
 48c:	00000018 	andeq	r0, r0, r8, lsl r0
 490:	00000000 	andeq	r0, r0, r0
 494:	000026f0 	strdeq	r2, [r0], -r0
 498:	0000002c 	andeq	r0, r0, ip, lsr #32
 49c:	83080e41 	movwhi	r0, #36417	; 0x8e41
 4a0:	51018e02 	tstpl	r1, r2, lsl #28
 4a4:	000ec3ce 	andeq	ip, lr, lr, asr #7
 4a8:	0000000c 	andeq	r0, r0, ip
 4ac:	00000000 	andeq	r0, r0, r0
 4b0:	0000271c 	andeq	r2, r0, ip, lsl r7
 4b4:	00000014 	andeq	r0, r0, r4, lsl r0
 4b8:	0000001c 	andeq	r0, r0, ip, lsl r0
 4bc:	00000000 	andeq	r0, r0, r0
 4c0:	00002730 	andeq	r2, r0, r0, lsr r7
 4c4:	000000b4 	strheq	r0, [r0], -r4
 4c8:	83180e41 	tsthi	r8, #1040	; 0x410
 4cc:	85058406 	strhi	r8, [r5, #-1030]	; 0xfffffbfa
 4d0:	87038604 	strhi	r8, [r3, -r4, lsl #12]
 4d4:	00018e02 	andeq	r8, r1, r2, lsl #28
 4d8:	00000034 	andeq	r0, r0, r4, lsr r0
 4dc:	00000000 	andeq	r0, r0, r0
 4e0:	000027e4 	andeq	r2, r0, r4, ror #15
 4e4:	00000138 	andeq	r0, r0, r8, lsr r1
 4e8:	84240e43 	strthi	r0, [r4], #-3651	; 0xfffff1bd
 4ec:	86088509 	strhi	r8, [r8], -r9, lsl #10
 4f0:	88068707 	stmdahi	r6, {r0, r1, r2, r8, r9, sl, pc}
 4f4:	8a048905 	bhi	122910 <__bss_end__+0x10d8a4>
 4f8:	8e028b03 	vmlahi.f64	d8, d2, d3
 4fc:	400e4201 	andmi	r4, lr, r1, lsl #4
 500:	240e8202 	strcs	r8, [lr], #-514	; 0xfffffdfe
 504:	cacbce42 	bgt	ff2f3e14 <__bss_end__+0xff2deda8>
 508:	c6c7c8c9 	strbgt	ip, [r7], r9, asr #17
 50c:	000ec4c5 	andeq	ip, lr, r5, asr #9
 510:	00000030 	andeq	r0, r0, r0, lsr r0
 514:	00000000 	andeq	r0, r0, r0
 518:	0000291c 	andeq	r2, r0, ip, lsl r9
 51c:	000000f8 	strdeq	r0, [r0], -r8
 520:	83200e42 			; <UNDEFINED> instruction: 0x83200e42
 524:	85078408 	strhi	r8, [r7, #-1032]	; 0xfffffbf8
 528:	87058606 	strhi	r8, [r5, -r6, lsl #12]
 52c:	89038804 	stmdbhi	r3, {r2, fp, pc}
 530:	02018e02 	andeq	r8, r1, #2, 28
 534:	c9ce0a67 	stmibgt	lr, {r0, r1, r2, r5, r6, r9, fp}^
 538:	c5c6c7c8 	strbgt	ip, [r6, #1992]	; 0x7c8
 53c:	000ec3c4 	andeq	ip, lr, r4, asr #7
 540:	00000b42 	andeq	r0, r0, r2, asr #22
 544:	0000000c 	andeq	r0, r0, ip
 548:	00000000 	andeq	r0, r0, r0
 54c:	00002a14 	andeq	r2, r0, r4, lsl sl
 550:	00000008 	andeq	r0, r0, r8
 554:	0000000c 	andeq	r0, r0, ip
 558:	00000000 	andeq	r0, r0, r0
 55c:	00002a1c 	andeq	r2, r0, ip, lsl sl
 560:	00000014 	andeq	r0, r0, r4, lsl r0
 564:	0000000c 	andeq	r0, r0, ip
 568:	00000000 	andeq	r0, r0, r0
 56c:	00002a30 	andeq	r2, r0, r0, lsr sl
 570:	00000018 	andeq	r0, r0, r8, lsl r0
 574:	00000028 	andeq	r0, r0, r8, lsr #32
 578:	00000000 	andeq	r0, r0, r0
 57c:	00002a48 	andeq	r2, r0, r8, asr #20
 580:	0000008c 	andeq	r0, r0, ip, lsl #1
 584:	83180e41 	tsthi	r8, #1040	; 0x410
 588:	85058406 	strhi	r8, [r5, #-1030]	; 0xfffffbfa
 58c:	87038604 	strhi	r8, [r3, -r4, lsl #12]
 590:	6f018e02 	svcvs	0x00018e02
 594:	c6c7ce0a 	strbgt	ip, [r7], sl, lsl #28
 598:	0ec3c4c5 	cdpeq	4, 12, cr12, cr3, cr5, {6}
 59c:	000b4200 	andeq	r4, fp, r0, lsl #4
 5a0:	00000018 	andeq	r0, r0, r8, lsl r0
 5a4:	00000000 	andeq	r0, r0, r0
 5a8:	00002ad4 	ldrdeq	r2, [r0], -r4
 5ac:	00000078 	andeq	r0, r0, r8, ror r0
 5b0:	84100e41 	ldrhi	r0, [r0], #-3649	; 0xfffff1bf
 5b4:	86038504 	strhi	r8, [r3], -r4, lsl #10
 5b8:	00018e02 	andeq	r8, r1, r2, lsl #28
 5bc:	00000018 	andeq	r0, r0, r8, lsl r0
 5c0:	00000000 	andeq	r0, r0, r0
 5c4:	00002b4c 	andeq	r2, r0, ip, asr #22
 5c8:	00000044 	andeq	r0, r0, r4, asr #32
 5cc:	84080e41 	strhi	r0, [r8], #-3649	; 0xfffff1bf
 5d0:	5c018e02 	stcpl	14, cr8, [r1], {2}
 5d4:	000ec4ce 	andeq	ip, lr, lr, asr #9
 5d8:	00000014 	andeq	r0, r0, r4, lsl r0
 5dc:	00000000 	andeq	r0, r0, r0
 5e0:	00002b90 	muleq	r0, r0, fp
 5e4:	00000046 	andeq	r0, r0, r6, asr #32
 5e8:	83080e41 	movwhi	r0, #36417	; 0x8e41
 5ec:	00018e02 	andeq	r8, r1, r2, lsl #28
 5f0:	0000000c 	andeq	r0, r0, ip
 5f4:	00000000 	andeq	r0, r0, r0
 5f8:	00002bd8 	ldrdeq	r2, [r0], -r8
 5fc:	0000000c 	andeq	r0, r0, ip
 600:	00000024 	andeq	r0, r0, r4, lsr #32
 604:	00000000 	andeq	r0, r0, r0
 608:	00002be4 	andeq	r2, r0, r4, ror #23
 60c:	00000050 	andeq	r0, r0, r0, asr r0
 610:	83180e41 	tsthi	r8, #1040	; 0x410
 614:	85058406 	strhi	r8, [r5, #-1030]	; 0xfffffbfa
 618:	87038604 	strhi	r8, [r3, -r4, lsl #12]
 61c:	61018e02 	tstvs	r1, r2, lsl #28
 620:	c5c6c7ce 	strbgt	ip, [r6, #1998]	; 0x7ce
 624:	000ec3c4 	andeq	ip, lr, r4, asr #7
 628:	00000020 	andeq	r0, r0, r0, lsr #32
 62c:	00000000 	andeq	r0, r0, r0
 630:	00002c34 	andeq	r2, r0, r4, lsr ip
 634:	000000ac 	andeq	r0, r0, ip, lsr #1
 638:	83200e42 			; <UNDEFINED> instruction: 0x83200e42
 63c:	85078408 	strhi	r8, [r7, #-1032]	; 0xfffffbf8
 640:	87058606 	strhi	r8, [r5, -r6, lsl #12]
 644:	89038804 	stmdbhi	r3, {r2, fp, pc}
 648:	00018e02 	andeq	r8, r1, r2, lsl #28
 64c:	0000002c 	andeq	r0, r0, ip, lsr #32
 650:	00000000 	andeq	r0, r0, r0
 654:	00002ce0 	andeq	r2, r0, r0, ror #25
 658:	00000194 	muleq	r0, r4, r1
 65c:	84240e42 	strthi	r0, [r4], #-3650	; 0xfffff1be
 660:	86088509 	strhi	r8, [r8], -r9, lsl #10
 664:	88068707 	stmdahi	r6, {r0, r1, r2, r8, r9, sl, pc}
 668:	8a048905 	bhi	122a84 <__bss_end__+0x10da18>
 66c:	8e028b03 	vmlahi.f64	d8, d2, d3
 670:	300e4301 	andcc	r4, lr, r1, lsl #6
 674:	0e0ab002 	cdpeq	0, 0, cr11, cr10, cr2, {0}
 678:	000b4224 	andeq	r4, fp, r4, lsr #4
 67c:	0000000c 	andeq	r0, r0, ip
 680:	00000000 	andeq	r0, r0, r0
 684:	00002e74 	andeq	r2, r0, r4, ror lr
 688:	00000008 	andeq	r0, r0, r8
 68c:	0000001c 	andeq	r0, r0, ip, lsl r0
 690:	00000000 	andeq	r0, r0, r0
 694:	00002e7c 	andeq	r2, r0, ip, ror lr
 698:	0000009c 	muleq	r0, ip, r0
 69c:	83180e41 	tsthi	r8, #1040	; 0x410
 6a0:	85058406 	strhi	r8, [r5, #-1030]	; 0xfffffbfa
 6a4:	87038604 	strhi	r8, [r3, -r4, lsl #12]
 6a8:	00018e02 	andeq	r8, r1, r2, lsl #28
 6ac:	00000018 	andeq	r0, r0, r8, lsl r0
 6b0:	00000000 	andeq	r0, r0, r0
 6b4:	00002f18 	andeq	r2, r0, r8, lsl pc
 6b8:	00000080 	andeq	r0, r0, r0, lsl #1
 6bc:	83100e41 	tsthi	r0, #1040	; 0x410
 6c0:	85038404 	strhi	r8, [r3, #-1028]	; 0xfffffbfc
 6c4:	00018e02 	andeq	r8, r1, r2, lsl #28
 6c8:	00000018 	andeq	r0, r0, r8, lsl r0
 6cc:	00000000 	andeq	r0, r0, r0
 6d0:	00002f98 	muleq	r0, r8, pc	; <UNPREDICTABLE>
 6d4:	00000028 	andeq	r0, r0, r8, lsr #32
 6d8:	84080e41 	strhi	r0, [r8], #-3649	; 0xfffff1bf
 6dc:	4e018e02 	cdpmi	14, 0, cr8, cr1, cr2, {0}
 6e0:	000ec4ce 	andeq	ip, lr, lr, asr #9
 6e4:	0000000c 	andeq	r0, r0, ip
 6e8:	00000000 	andeq	r0, r0, r0
 6ec:	00002fc0 	andeq	r2, r0, r0, asr #31
 6f0:	00000014 	andeq	r0, r0, r4, lsl r0
 6f4:	00000018 	andeq	r0, r0, r8, lsl r0
 6f8:	00000000 	andeq	r0, r0, r0
 6fc:	00002fd4 	ldrdeq	r2, [r0], -r4
 700:	00000058 	andeq	r0, r0, r8, asr r0
 704:	8e040e43 	cdphi	14, 0, cr0, cr4, cr3, {2}
 708:	100e4201 	andne	r4, lr, r1, lsl #4
 70c:	00040e5c 	andeq	r0, r4, ip, asr lr
 710:	00000018 	andeq	r0, r0, r8, lsl r0
 714:	00000000 	andeq	r0, r0, r0
 718:	0000302c 	andeq	r3, r0, ip, lsr #32
 71c:	0000001e 	andeq	r0, r0, lr, lsl r0
 720:	83080e41 	movwhi	r0, #36417	; 0x8e41
 724:	4c018e02 	stcmi	14, cr8, [r1], {2}
 728:	000ec3ce 	andeq	ip, lr, lr, asr #7
 72c:	00000024 	andeq	r0, r0, r4, lsr #32
 730:	00000000 	andeq	r0, r0, r0
 734:	0000304c 	andeq	r3, r0, ip, asr #32
 738:	000000f8 	strdeq	r0, [r0], -r8
 73c:	83280e42 			; <UNDEFINED> instruction: 0x83280e42
 740:	8509840a 	strhi	r8, [r9, #-1034]	; 0xfffffbf6
 744:	87078608 	strhi	r8, [r7, -r8, lsl #12]
 748:	89058806 	stmdbhi	r5, {r1, r2, fp, pc}
 74c:	8b038a04 	blhi	e2f64 <__bss_end__+0xcdef8>
 750:	00018e02 	andeq	r8, r1, r2, lsl #28
 754:	0000002c 	andeq	r0, r0, ip, lsr #32
 758:	00000000 	andeq	r0, r0, r0
 75c:	00003144 	andeq	r3, r0, r4, asr #2
 760:	00000188 	andeq	r0, r0, r8, lsl #3
 764:	84240e44 	strthi	r0, [r4], #-3652	; 0xfffff1bc
 768:	86088509 	strhi	r8, [r8], -r9, lsl #10
 76c:	88068707 	stmdahi	r6, {r0, r1, r2, r8, r9, sl, pc}
 770:	8a048905 	bhi	122b8c <__bss_end__+0x10db20>
 774:	8e028b03 	vmlahi.f64	d8, d2, d3
 778:	300e4301 	andcc	r4, lr, r1, lsl #6
 77c:	0e0a8502 	cfsh32eq	mvfx8, mvfx10, #2
 780:	000b4224 	andeq	r4, fp, r4, lsr #4
 784:	00000014 	andeq	r0, r0, r4, lsl r0
 788:	00000000 	andeq	r0, r0, r0
 78c:	000032cc 	andeq	r3, r0, ip, asr #5
 790:	0000018c 	andeq	r0, r0, ip, lsl #3
 794:	84080e41 	strhi	r0, [r8], #-3649	; 0xfffff1bf
 798:	00018e02 	andeq	r8, r1, r2, lsl #28
 79c:	0000001c 	andeq	r0, r0, ip, lsl r0
 7a0:	00000000 	andeq	r0, r0, r0
 7a4:	00003458 	andeq	r3, r0, r8, asr r4
 7a8:	000000c0 	andeq	r0, r0, r0, asr #1
 7ac:	84080e41 	strhi	r0, [r8], #-3649	; 0xfffff1bf
 7b0:	02018e02 	andeq	r8, r1, #2, 28
 7b4:	0ec4ce5a 	mcreq	14, 6, ip, cr4, cr10, {2}
 7b8:	00000000 	andeq	r0, r0, r0
 7bc:	00000028 	andeq	r0, r0, r8, lsr #32
 7c0:	00000000 	andeq	r0, r0, r0
 7c4:	00003518 	andeq	r3, r0, r8, lsl r5
 7c8:	0000007c 	andeq	r0, r0, ip, ror r0
 7cc:	84180e42 	ldrhi	r0, [r8], #-3650	; 0xfffff1be
 7d0:	86058506 	strhi	r8, [r5], -r6, lsl #10
 7d4:	88038704 	stmdahi	r3, {r2, r8, r9, sl, pc}
 7d8:	6a018e02 	bvs	63fe8 <__bss_end__+0x4ef7c>
 7dc:	c7c8ce0a 	strbgt	ip, [r8, sl, lsl #28]
 7e0:	0ec4c5c6 	cdpeq	5, 12, cr12, cr4, cr6, {6}
 7e4:	000b4200 	andeq	r4, fp, r0, lsl #4
 7e8:	00000028 	andeq	r0, r0, r8, lsr #32
 7ec:	00000000 	andeq	r0, r0, r0
 7f0:	00003594 	muleq	r0, r4, r5
 7f4:	0000006c 	andeq	r0, r0, ip, rrx
 7f8:	84180e46 	ldrhi	r0, [r8], #-3654	; 0xfffff1ba
 7fc:	86058506 	strhi	r8, [r5], -r6, lsl #10
 800:	88038704 	stmdahi	r3, {r2, r8, r9, sl, pc}
 804:	67018e02 	strvs	r8, [r1, -r2, lsl #28]
 808:	c7c8ce0a 	strbgt	ip, [r8, sl, lsl #28]
 80c:	0ec4c5c6 	cdpeq	5, 12, cr12, cr4, cr6, {6}
 810:	000b4200 	andeq	r4, fp, r0, lsl #4
 814:	0000001c 	andeq	r0, r0, ip, lsl r0
 818:	00000000 	andeq	r0, r0, r0
 81c:	00003600 	andeq	r3, r0, r0, lsl #12
 820:	0000006c 	andeq	r0, r0, ip, rrx
 824:	83180e42 	tsthi	r8, #1056	; 0x420
 828:	85058406 	strhi	r8, [r5, #-1030]	; 0xfffffbfa
 82c:	87038604 	strhi	r8, [r3, -r4, lsl #12]
 830:	00018e02 	andeq	r8, r1, r2, lsl #28
 834:	00000018 	andeq	r0, r0, r8, lsl r0
 838:	00000000 	andeq	r0, r0, r0
 83c:	0000366c 	andeq	r3, r0, ip, ror #12
 840:	00000064 	andeq	r0, r0, r4, rrx
 844:	84100e41 	ldrhi	r0, [r0], #-3649	; 0xfffff1bf
 848:	86038504 	strhi	r8, [r3], -r4, lsl #10
 84c:	00018e02 	andeq	r8, r1, r2, lsl #28
 850:	0000002c 	andeq	r0, r0, ip, lsr #32
 854:	00000000 	andeq	r0, r0, r0
 858:	000036d0 	ldrdeq	r3, [r0], -r0
 85c:	000000c4 	andeq	r0, r0, r4, asr #1
 860:	84240e43 	strthi	r0, [r4], #-3651	; 0xfffff1bd
 864:	86088509 	strhi	r8, [r8], -r9, lsl #10
 868:	88068707 	stmdahi	r6, {r0, r1, r2, r8, r9, sl, pc}
 86c:	8a048905 	bhi	122c88 <__bss_end__+0x10dc1c>
 870:	8e028b03 	vmlahi.f64	d8, d2, d3
 874:	380e4501 	stmdacc	lr, {r0, r8, sl, lr}
 878:	240e0a59 	strcs	r0, [lr], #-2649	; 0xfffff5a7
 87c:	00000b42 	andeq	r0, r0, r2, asr #22
 880:	00000048 	andeq	r0, r0, r8, asr #32
 884:	00000000 	andeq	r0, r0, r0
 888:	00003794 	muleq	r0, r4, r7
 88c:	000000c8 	andeq	r0, r0, r8, asr #1
 890:	83200e42 			; <UNDEFINED> instruction: 0x83200e42
 894:	85078408 	strhi	r8, [r7, #-1032]	; 0xfffffbf8
 898:	87058606 	strhi	r8, [r5, -r6, lsl #12]
 89c:	89038804 	stmdbhi	r3, {r2, fp, pc}
 8a0:	7f018e02 	svcvc	0x00018e02
 8a4:	c8c9ce0a 	stmiagt	r9, {r1, r3, r9, sl, fp, lr, pc}^
 8a8:	c4c5c6c7 	strbgt	ip, [r5], #1735	; 0x6c7
 8ac:	42000ec3 	andmi	r0, r0, #3120	; 0xc30
 8b0:	ce0a510b 	adfgte	f5, f2, #3.0
 8b4:	c6c7c8c9 	strbgt	ip, [r7], r9, asr #17
 8b8:	0ec3c4c5 	cdpeq	4, 12, cr12, cr3, cr5, {6}
 8bc:	460b4200 	strmi	r4, [fp], -r0, lsl #4
 8c0:	c7c8c9ce 	strbgt	ip, [r8, lr, asr #19]
 8c4:	c3c4c5c6 	bicgt	ip, r4, #830472192	; 0x31800000
 8c8:	0000000e 	andeq	r0, r0, lr
 8cc:	00000024 	andeq	r0, r0, r4, lsr #32
 8d0:	00000000 	andeq	r0, r0, r0
 8d4:	0000385c 	andeq	r3, r0, ip, asr r8
 8d8:	0000004c 	andeq	r0, r0, ip, asr #32
 8dc:	84040e42 	strhi	r0, [r4], #-3650	; 0xfffff1be
 8e0:	c40a4601 	strgt	r4, [sl], #-1537	; 0xfffff9ff
 8e4:	0b41000e 	bleq	1040924 <__bss_end__+0x102b8b8>
 8e8:	0ec40a43 			; <UNDEFINED> instruction: 0x0ec40a43
 8ec:	4f0b4200 	svcmi	0x000b4200
 8f0:	00000ec4 	andeq	r0, r0, r4, asr #29
 8f4:	00000020 	andeq	r0, r0, r0, lsr #32
 8f8:	00000000 	andeq	r0, r0, r0
 8fc:	000038a8 	andeq	r3, r0, r8, lsr #17
 900:	00000130 	andeq	r0, r0, r0, lsr r1
 904:	84200e43 	strthi	r0, [r0], #-3651	; 0xfffff1bd
 908:	86078508 	strhi	r8, [r7], -r8, lsl #10
 90c:	88058706 	stmdahi	r5, {r1, r2, r8, r9, sl, pc}
 910:	8a038904 	bhi	e2d28 <__bss_end__+0xcdcbc>
 914:	00018e02 	andeq	r8, r1, r2, lsl #28
 918:	0000002c 	andeq	r0, r0, ip, lsr #32
 91c:	00000000 	andeq	r0, r0, r0
 920:	000039d8 	ldrdeq	r3, [r0], -r8
 924:	000001a0 	andeq	r0, r0, r0, lsr #3
 928:	84240e42 	strthi	r0, [r4], #-3650	; 0xfffff1be
 92c:	86088509 	strhi	r8, [r8], -r9, lsl #10
 930:	88068707 	stmdahi	r6, {r0, r1, r2, r8, r9, sl, pc}
 934:	8a048905 	bhi	122d50 <__bss_end__+0x10dce4>
 938:	8e028b03 	vmlahi.f64	d8, d2, d3
 93c:	300e4101 	andcc	r4, lr, r1, lsl #2
 940:	0e0ab202 	cdpeq	2, 0, cr11, cr10, cr2, {0}
 944:	000b4224 	andeq	r4, fp, r4, lsr #4
 948:	00000018 	andeq	r0, r0, r8, lsl r0
 94c:	00000000 	andeq	r0, r0, r0
 950:	00003b78 	andeq	r3, r0, r8, ror fp
 954:	00000016 	andeq	r0, r0, r6, lsl r0
 958:	83100e41 	tsthi	r0, #1040	; 0x410
 95c:	85038404 	strhi	r8, [r3, #-1028]	; 0xfffffbfc
 960:	00018e02 	andeq	r8, r1, r2, lsl #28
 964:	00000028 	andeq	r0, r0, r8, lsr #32
 968:	00000000 	andeq	r0, r0, r0
 96c:	00003b90 	muleq	r0, r0, fp
 970:	000000b8 	strheq	r0, [r0], -r8
 974:	841c0e44 	ldrhi	r0, [ip], #-3652	; 0xfffff1bc
 978:	86068507 	strhi	r8, [r6], -r7, lsl #10
 97c:	88048705 	stmdahi	r4, {r0, r2, r8, r9, sl, pc}
 980:	8e028903 	vmlahi.f16	s16, s4, s6	; <UNPREDICTABLE>
 984:	300e4601 	andcc	r4, lr, r1, lsl #12
 988:	0e0a4702 	cdpeq	7, 0, cr4, cr10, cr2, {0}
 98c:	000b421c 	andeq	r4, fp, ip, lsl r2
 990:	00000024 	andeq	r0, r0, r4, lsr #32
 994:	00000000 	andeq	r0, r0, r0
 998:	00003c48 	andeq	r3, r0, r8, asr #24
 99c:	00000084 	andeq	r0, r0, r4, lsl #1
 9a0:	84100e42 	ldrhi	r0, [r0], #-3650	; 0xfffff1be
 9a4:	86038504 	strhi	r8, [r3], -r4, lsl #10
 9a8:	71018e02 	tstvc	r1, r2, lsl #28
 9ac:	c5c6ce0a 	strbgt	ip, [r6, #3594]	; 0xe0a
 9b0:	42000ec4 	andmi	r0, r0, #196, 28	; 0xc40
 9b4:	0000000b 	andeq	r0, r0, fp
 9b8:	0000002c 	andeq	r0, r0, ip, lsr #32
 9bc:	00000000 	andeq	r0, r0, r0
 9c0:	00003ccc 	andeq	r3, r0, ip, asr #25
 9c4:	0000005c 	andeq	r0, r0, ip, asr r0
 9c8:	84040e49 	strhi	r0, [r4], #-3657	; 0xfffff1b7
 9cc:	c40a4801 	strgt	r4, [sl], #-2049	; 0xfffff7ff
 9d0:	0b41000e 	bleq	1040a10 <__bss_end__+0x102b9a4>
 9d4:	c4000e48 	strgt	r0, [r0], #-3656	; 0xfffff1b8
 9d8:	84040e41 	strhi	r0, [r4], #-3649	; 0xfffff1bf
 9dc:	c40a4401 	strgt	r4, [sl], #-1025	; 0xfffffbff
 9e0:	0b42000e 	bleq	1080a20 <__bss_end__+0x106b9b4>
 9e4:	000ec444 	andeq	ip, lr, r4, asr #8
 9e8:	0000002c 	andeq	r0, r0, ip, lsr #32
 9ec:	00000000 	andeq	r0, r0, r0
 9f0:	00003d28 	andeq	r3, r0, r8, lsr #26
 9f4:	0000005c 	andeq	r0, r0, ip, asr r0
 9f8:	84040e49 	strhi	r0, [r4], #-3657	; 0xfffff1b7
 9fc:	c40a4801 	strgt	r4, [sl], #-2049	; 0xfffff7ff
 a00:	0b41000e 	bleq	1040a40 <__bss_end__+0x102b9d4>
 a04:	c4000e48 	strgt	r0, [r0], #-3656	; 0xfffff1b8
 a08:	84040e41 	strhi	r0, [r4], #-3649	; 0xfffff1bf
 a0c:	c40a4401 	strgt	r4, [sl], #-1025	; 0xfffffbff
 a10:	0b42000e 	bleq	1080a50 <__bss_end__+0x106b9e4>
 a14:	000ec444 	andeq	ip, lr, r4, asr #8
 a18:	00000020 	andeq	r0, r0, r0, lsr #32
 a1c:	00000000 	andeq	r0, r0, r0
 a20:	00003d84 	andeq	r3, r0, r4, lsl #27
 a24:	0000004c 	andeq	r0, r0, ip, asr #32
 a28:	84100e44 	ldrhi	r0, [r0], #-3652	; 0xfffff1bc
 a2c:	86038504 	strhi	r8, [r3], -r4, lsl #10
 a30:	41018e02 	tstmi	r1, r2, lsl #28
 a34:	0a56180e 	beq	1586a74 <__bss_end__+0x1571a08>
 a38:	0b41100e 	bleq	1044a78 <__bss_end__+0x102fa0c>
 a3c:	00000024 	andeq	r0, r0, r4, lsr #32
 a40:	00000000 	andeq	r0, r0, r0
 a44:	00003dd0 	ldrdeq	r3, [r0], -r0
 a48:	00000294 	muleq	r0, r4, r2
 a4c:	84140e41 	ldrhi	r0, [r4], #-3649	; 0xfffff1bf
 a50:	86048505 	strhi	r8, [r4], -r5, lsl #10
 a54:	8e028703 	cdphi	7, 0, cr8, cr2, cr3, {0}
 a58:	300e4101 	andcc	r4, lr, r1, lsl #2
 a5c:	0e0a4b02 	vmlaeq.f64	d4, d10, d2
 a60:	000b4114 	andeq	r4, fp, r4, lsl r1
 a64:	00000014 	andeq	r0, r0, r4, lsl r0
 a68:	00000000 	andeq	r0, r0, r0
 a6c:	00004064 	andeq	r4, r0, r4, rrx
 a70:	00000018 	andeq	r0, r0, r8, lsl r0
 a74:	83080e41 	movwhi	r0, #36417	; 0x8e41
 a78:	00018e02 	andeq	r8, r1, r2, lsl #28

Disassembly of section .debug_str:

00000000 <.debug_str>:
       0:	74735f5f 	ldrbtvc	r5, [r3], #-3935	; 0xfffff0a1
       4:	6d616572 	cfstr64vs	mvdx6, [r1, #-456]!	; 0xfffffe38
       8:	49505200 	ldmdbmi	r0, {r9, ip, lr}^
       c:	5f32565f 	svcpl	0x0032565f
      10:	4f495047 	svcmi	0x00495047
      14:	5f31505f 	svcpl	0x0031505f
      18:	73003833 	movwvc	r3, #2099	; 0x833
      1c:	5f657a69 	svcpl	0x00657a69
      20:	74730074 	ldrbtvc	r0, [r3], #-116	; 0xffffff8c
      24:	00747261 	rsbseq	r7, r4, r1, ror #4
      28:	6d6e756d 	cfstr64vs	mvdx7, [lr, #-436]!	; 0xfffffe4c
      2c:	52007061 	andpl	r7, r0, #97	; 0x61
      30:	664f6765 	strbvs	r6, [pc], -r5, ror #14
      34:	74657366 	strbtvc	r7, [r5], #-870	; 0xfffffc9a
      38:	665f5f00 	ldrbvs	r5, [pc], -r0, lsl #30
      3c:	7000746d 	andvc	r7, r0, sp, ror #8
      40:	74696d73 	strbtvc	r6, [r9], #-3443	; 0xfffff28d
      44:	6e696d69 	cdpvs	13, 6, cr6, cr9, cr9, {3}
      48:	65520067 	ldrbvs	r0, [r2, #-103]	; 0xffffff99
      4c:	6c615667 	stclvs	6, cr5, [r1], #-412	; 0xfffffe64
      50:	5f006575 	svcpl	0x00006575
      54:	325f4f49 	subscc	r4, pc, #292	; 0x124
      58:	735f315f 	cmpvc	pc, #-1073741801	; 0xc0000017
      5c:	72656474 	rsbvc	r6, r5, #116, 8	; 0x74000000
      60:	52005f72 	andpl	r5, r0, #456	; 0x1c8
      64:	425f4950 	subsmi	r4, pc, #80, 18	; 0x140000
      68:	53554c50 	cmppl	r5, #80, 24	; 0x5000
      6c:	4950475f 	ldmdbmi	r0, {r0, r1, r2, r3, r4, r6, r8, r9, sl, lr}^
      70:	384a5f4f 	stmdacc	sl, {r0, r1, r2, r3, r6, r8, r9, sl, fp, ip, lr}^
      74:	0033305f 	eorseq	r3, r3, pc, asr r0
      78:	5f495052 	svcpl	0x00495052
      7c:	554c5042 	strbpl	r5, [ip, #-66]	; 0xffffffbe
      80:	50475f53 	subpl	r5, r7, r3, asr pc
      84:	4a5f4f49 	bmi	17d3db0 <__bss_end__+0x17bed44>
      88:	35305f38 	ldrcc	r5, [r0, #-3896]!	; 0xfffff0c8
      8c:	49505200 	ldmdbmi	r0, {r9, ip, lr}^
      90:	4c50425f 	lfmmi	f4, 2, [r0], {95}	; 0x5f
      94:	475f5355 			; <UNDEFINED> instruction: 0x475f5355
      98:	5f4f4950 	svcpl	0x004f4950
      9c:	305f384a 	subscc	r3, pc, sl, asr #16
      a0:	50520037 	subspl	r0, r2, r7, lsr r0
      a4:	50425f49 	subpl	r5, r2, r9, asr #30
      a8:	5f53554c 	svcpl	0x0053554c
      ac:	4f495047 	svcmi	0x00495047
      b0:	5f384a5f 	svcpl	0x00384a5f
      b4:	5f003830 	svcpl	0x00003830
      b8:	6c746e63 	ldclvs	14, cr6, [r4], #-396	; 0xfffffe74
      bc:	635f0030 	cmpvs	pc, #48	; 0x30
      c0:	316c746e 	cmncc	ip, lr, ror #8
      c4:	4f495f00 	svcmi	0x00495f00
      c8:	7661735f 			; <UNDEFINED> instruction: 0x7661735f
      cc:	6e655f65 	cdpvs	15, 6, cr5, cr5, cr5, {3}
      d0:	616d0064 	cmnvs	sp, r4, rrx
      d4:	636f6c6c 	cmnvs	pc, #108, 24	; 0x6c00
      d8:	696c615f 	stmdbvs	ip!, {r0, r1, r2, r3, r4, r6, r8, sp, lr}^
      dc:	64656e67 	strbtvs	r6, [r5], #-3687	; 0xfffff199
      e0:	69687300 	stmdbvs	r8!, {r8, r9, ip, sp, lr}^
      e4:	69627466 	stmdbvs	r2!, {r1, r2, r5, r6, sl, ip, sp, lr}^
      e8:	42007374 	andmi	r7, r0, #116, 6	; 0xd0000001
      ec:	38324d43 	ldmdacc	r2!, {r0, r1, r6, r8, sl, fp, lr}
      f0:	525f3533 	subspl	r3, pc, #213909504	; 0xcc00000
      f4:	41424745 	cmpmi	r2, r5, asr #14
      f8:	535f4553 	cmppl	pc, #348127232	; 0x14c00000
      fc:	6d00494d 	vstrvs.16	s8, [r0, #-154]	; 0xffffff66	; <UNPREDICTABLE>
     100:	64666d65 	strbtvs	r6, [r6], #-3429	; 0xfffff29b
     104:	6d636200 	sfmvs	f6, 2, [r3, #-0]
     108:	35333832 	ldrcc	r3, [r3, #-2098]!	; 0xfffff7ce
     10c:	6332695f 	teqvs	r2, #1556480	; 0x17c000
     110:	6972775f 	ldmdbvs	r2!, {r0, r1, r2, r3, r4, r6, r8, r9, sl, ip, sp, lr}^
     114:	52006574 	andpl	r6, r0, #116, 10	; 0x1d000000
     118:	425f4950 	subsmi	r4, pc, #80, 18	; 0x140000
     11c:	53554c50 	cmppl	r5, #80, 24	; 0x5000
     120:	4950475f 	ldmdbmi	r0, {r0, r1, r2, r3, r4, r6, r8, r9, sl, lr}^
     124:	384a5f4f 	stmdacc	sl, {r0, r1, r2, r3, r6, r8, r9, sl, fp, ip, lr}^
     128:	0030315f 	eorseq	r3, r0, pc, asr r1
     12c:	5f4f495f 	svcpl	0x004f495f
     130:	74697277 	strbtvc	r7, [r9], #-631	; 0xfffffd89
     134:	61625f65 	cmnvs	r2, r5, ror #30
     138:	52006573 	andpl	r6, r0, #482344960	; 0x1cc00000
     13c:	425f4950 	subsmi	r4, pc, #80, 18	; 0x140000
     140:	53554c50 	cmppl	r5, #80, 24	; 0x5000
     144:	4950475f 	ldmdbmi	r0, {r0, r1, r2, r3, r4, r6, r8, r9, sl, lr}^
     148:	384a5f4f 	stmdacc	sl, {r0, r1, r2, r3, r6, r8, r9, sl, fp, ip, lr}^
     14c:	0032315f 	eorseq	r3, r2, pc, asr r1
     150:	5f495052 	svcpl	0x00495052
     154:	554c5042 	strbpl	r5, [ip, #-66]	; 0xffffffbe
     158:	50475f53 	subpl	r5, r7, r3, asr pc
     15c:	4a5f4f49 	bmi	17d3e88 <__bss_end__+0x17bee1c>
     160:	33315f38 	teqcc	r1, #56, 30	; 0xe0
     164:	49505200 	ldmdbmi	r0, {r9, ip, lr}^
     168:	4c50425f 	lfmmi	f4, 2, [r0], {95}	; 0x5f
     16c:	475f5355 			; <UNDEFINED> instruction: 0x475f5355
     170:	5f4f4950 	svcpl	0x004f4950
     174:	315f384a 	cmpcc	pc, sl, asr #16
     178:	50520035 	subspl	r0, r2, r5, lsr r0
     17c:	50425f49 	subpl	r5, r2, r9, asr #30
     180:	5f53554c 	svcpl	0x0053554c
     184:	4f495047 	svcmi	0x00495047
     188:	5f384a5f 	svcpl	0x00384a5f
     18c:	52003631 	andpl	r3, r0, #51380224	; 0x3100000
     190:	425f4950 	subsmi	r4, pc, #80, 18	; 0x140000
     194:	53554c50 	cmppl	r5, #80, 24	; 0x5000
     198:	4950475f 	ldmdbmi	r0, {r0, r1, r2, r3, r4, r6, r8, r9, sl, lr}^
     19c:	384a5f4f 	stmdacc	sl, {r0, r1, r2, r3, r6, r8, r9, sl, fp, ip, lr}^
     1a0:	0038315f 	eorseq	r3, r8, pc, asr r1
     1a4:	5f495052 	svcpl	0x00495052
     1a8:	554c5042 	strbpl	r5, [ip, #-66]	; 0xffffffbe
     1ac:	50475f53 	subpl	r5, r7, r3, asr pc
     1b0:	4a5f4f49 	bmi	17d3edc <__bss_end__+0x17bee70>
     1b4:	39315f38 	ldmdbcc	r1!, {r3, r4, r5, r8, r9, sl, fp, ip, lr}
     1b8:	6d636200 	sfmvs	f6, 2, [r3, #-0]
     1bc:	35333832 	ldrcc	r3, [r3, #-2098]!	; 0xfffff7ce
     1c0:	6970675f 	ldmdbvs	r0!, {r0, r1, r2, r3, r4, r6, r8, r9, sl, sp, lr}^
     1c4:	65665f6f 	strbvs	r5, [r6, #-3951]!	; 0xfffff091
     1c8:	6362006e 	cmnvs	r2, #110	; 0x6e
     1cc:	3338326d 	teqcc	r8, #-805306362	; 0xd0000006
     1d0:	70675f35 	rsbvc	r5, r7, r5, lsr pc
     1d4:	735f6f69 	cmpvc	pc, #420	; 0x1a4
     1d8:	705f7465 	subsvc	r7, pc, r5, ror #8
     1dc:	5f006461 	svcpl	0x00006461
     1e0:	6b636f6c 	blvs	18dbf98 <__bss_end__+0x18c6f2c>
     1e4:	6d636200 	sfmvs	f6, 2, [r3, #-0]
     1e8:	35333832 	ldrcc	r3, [r3, #-2098]!	; 0xfffff7ce
     1ec:	6970735f 	ldmdbvs	r0!, {r0, r1, r2, r3, r4, r6, r8, r9, ip, sp, lr}^
     1f0:	6172745f 	cmnvs	r2, pc, asr r4
     1f4:	6566736e 	strbvs	r7, [r6, #-878]!	; 0xfffffc92
     1f8:	65670072 	strbvs	r0, [r7, #-114]!	; 0xffffff8e
     1fc:	69756574 	ldmdbvs	r5!, {r2, r4, r5, r6, r8, sl, sp, lr}^
     200:	63620064 	cmnvs	r2, #100	; 0x64
     204:	3338326d 	teqcc	r8, #-805306362	; 0xd0000006
     208:	65705f35 	ldrbvs	r5, [r0, #-3893]!	; 0xfffff0cb
     20c:	735f6972 	cmpvc	pc, #1867776	; 0x1c8000
     210:	625f7465 	subsvs	r7, pc, #1694498816	; 0x65000000
     214:	00737469 	rsbseq	r7, r3, r9, ror #8
     218:	74617473 	strbtvc	r7, [r1], #-1139	; 0xfffffb8d
     21c:	745f5f00 	ldrbvc	r5, [pc], #-3840	; 224 <_init-0x4f4>
     220:	6d616e7a 	stclvs	14, cr6, [r1, #-488]!	; 0xfffffe18
     224:	495f0065 	ldmdbmi	pc, {r0, r2, r5, r6}^	; <UNPREDICTABLE>
     228:	61735f4f 	cmnvs	r3, pc, asr #30
     22c:	625f6576 	subsvs	r6, pc, #494927872	; 0x1d800000
     230:	00657361 	rsbeq	r7, r5, r1, ror #6
     234:	5f495052 	svcpl	0x00495052
     238:	554c5042 	strbpl	r5, [ip, #-66]	; 0xffffffbe
     23c:	50475f53 	subpl	r5, r7, r3, asr pc
     240:	4a5f4f49 	bmi	17d3f6c <__bss_end__+0x17bef00>
     244:	31325f38 	teqcc	r2, r8, lsr pc
     248:	49505200 	ldmdbmi	r0, {r9, ip, lr}^
     24c:	4c50425f 	lfmmi	f4, 2, [r0], {95}	; 0x5f
     250:	475f5355 			; <UNDEFINED> instruction: 0x475f5355
     254:	5f4f4950 	svcpl	0x004f4950
     258:	325f384a 	subscc	r3, pc, #4849664	; 0x4a0000
     25c:	50520032 	subspl	r0, r2, r2, lsr r0
     260:	50425f49 	subpl	r5, r2, r9, asr #30
     264:	5f53554c 	svcpl	0x0053554c
     268:	4f495047 	svcmi	0x00495047
     26c:	5f384a5f 	svcpl	0x00384a5f
     270:	52003332 	andpl	r3, r0, #-939524096	; 0xc8000000
     274:	425f4950 	subsmi	r4, pc, #80, 18	; 0x140000
     278:	53554c50 	cmppl	r5, #80, 24	; 0x5000
     27c:	4950475f 	ldmdbmi	r0, {r0, r1, r2, r3, r4, r6, r8, r9, sl, lr}^
     280:	384a5f4f 	stmdacc	sl, {r0, r1, r2, r3, r6, r8, r9, sl, fp, ip, lr}^
     284:	0034325f 	eorseq	r3, r4, pc, asr r2
     288:	5f495052 	svcpl	0x00495052
     28c:	554c5042 	strbpl	r5, [ip, #-66]	; 0xffffffbe
     290:	50475f53 	subpl	r5, r7, r3, asr pc
     294:	4a5f4f49 	bmi	17d3fc0 <__bss_end__+0x17bef54>
     298:	36325f38 	shasxcc	r5, r2, r8
     29c:	49505200 	ldmdbmi	r0, {r9, ip, lr}^
     2a0:	4c50425f 	lfmmi	f4, 2, [r0], {95}	; 0x5f
     2a4:	475f5355 			; <UNDEFINED> instruction: 0x475f5355
     2a8:	5f4f4950 	svcpl	0x004f4950
     2ac:	325f384a 	subscc	r3, pc, #4849664	; 0x4a0000
     2b0:	635f0039 	cmpvs	pc, #57	; 0x39
     2b4:	6e696168 	powvsez	f6, f1, #0.0
     2b8:	6d636200 	sfmvs	f6, 2, [r3, #-0]
     2bc:	35333832 	ldrcc	r3, [r3, #-2098]!	; 0xfffff7ce
     2c0:	6f6c635f 	svcvs	0x006c635f
     2c4:	6d006573 	cfstr32vs	mvfx6, [r0, #-460]	; 0xfffffe34
     2c8:	696c6c69 	stmdbvs	ip!, {r0, r3, r5, r6, sl, fp, sp, lr}^
     2cc:	63620073 	cmnvs	r2, #115	; 0x73
     2d0:	3338326d 	teqcc	r8, #-805306362	; 0xd0000006
     2d4:	65735f35 	ldrbvs	r5, [r3, #-3893]!	; 0xfffff0cb
     2d8:	65645f74 	strbvs	r5, [r4, #-3956]!	; 0xfffff08c
     2dc:	00677562 	rsbeq	r7, r7, r2, ror #10
     2e0:	7275635f 	rsbsvc	r6, r5, #2080374785	; 0x7c000001
     2e4:	6c6f635f 	stclvs	3, cr6, [pc], #-380	; 170 <_init-0x5a8>
     2e8:	006e6d75 	rsbeq	r6, lr, r5, ror sp
     2ec:	326d6362 	rsbcc	r6, sp, #-2013265919	; 0x88000001
     2f0:	5f353338 	svcpl	0x00353338
     2f4:	5f787561 	svcpl	0x00787561
     2f8:	5f697073 	svcpl	0x00697073
     2fc:	00646e65 	rsbeq	r6, r4, r5, ror #28
     300:	326d6362 	rsbcc	r6, sp, #-2013265919	; 0x88000001
     304:	5f353338 	svcpl	0x00353338
     308:	5f787561 	svcpl	0x00787561
     30c:	5f697073 	svcpl	0x00697073
     310:	43746573 	cmnmi	r4, #482344960	; 0x1cc00000
     314:	6b636f6c 	blvs	18dc0cc <__bss_end__+0x18c7060>
     318:	69766944 	ldmdbvs	r6!, {r2, r6, r8, fp, sp, lr}^
     31c:	00726564 	rsbseq	r6, r2, r4, ror #10
     320:	72705f5f 	rsbsvc	r5, r0, #380	; 0x17c
     324:	66746e69 	ldrbtvs	r6, [r4], -r9, ror #28
     328:	6b68635f 	blvs	1a190ac <__bss_end__+0x1a04040>
     32c:	755f5f00 	ldrbvc	r5, [pc, #-3840]	; fffff434 <__bss_end__+0xfffea3c8>
     330:	38746e69 	ldmdacc	r4!, {r0, r3, r5, r6, r9, sl, fp, sp, lr}^
     334:	6200745f 	andvs	r7, r0, #1593835520	; 0x5f000000
     338:	38326d63 	ldmdacc	r2!, {r0, r1, r5, r6, r8, sl, fp, sp, lr}
     33c:	695f3533 	ldmdbvs	pc, {r0, r1, r4, r5, r8, sl, ip, sp}^	; <UNPREDICTABLE>
     340:	725f6332 	subsvc	r6, pc, #-939524096	; 0xc8000000
     344:	5f646165 	svcpl	0x00646165
     348:	69676572 	stmdbvs	r7!, {r1, r4, r5, r6, r8, sl, sp, lr}^
     34c:	72657473 	rsbvc	r7, r5, #1929379840	; 0x73000000
     350:	0073725f 	rsbseq	r7, r3, pc, asr r2
     354:	61705f5f 	cmnvs	r0, pc, asr pc
     358:	52006874 	andpl	r6, r0, #116, 16	; 0x740000
     35c:	425f4950 	subsmi	r4, pc, #80, 18	; 0x140000
     360:	53554c50 	cmppl	r5, #80, 24	; 0x5000
     364:	4950475f 	ldmdbmi	r0, {r0, r1, r2, r3, r4, r6, r8, r9, sl, lr}^
     368:	384a5f4f 	stmdacc	sl, {r0, r1, r2, r3, r6, r8, r9, sl, fp, ip, lr}^
     36c:	0031335f 	eorseq	r3, r1, pc, asr r3
     370:	5f495052 	svcpl	0x00495052
     374:	554c5042 	strbpl	r5, [ip, #-66]	; 0xffffffbe
     378:	50475f53 	subpl	r5, r7, r3, asr pc
     37c:	4a5f4f49 	bmi	17d40a8 <__bss_end__+0x17bf03c>
     380:	32335f38 	eorscc	r5, r3, #56, 30	; 0xe0
     384:	49505200 	ldmdbmi	r0, {r9, ip, lr}^
     388:	4c50425f 	lfmmi	f4, 2, [r0], {95}	; 0x5f
     38c:	475f5355 			; <UNDEFINED> instruction: 0x475f5355
     390:	5f4f4950 	svcpl	0x004f4950
     394:	335f384a 	cmpcc	pc, #4849664	; 0x4a0000
     398:	50520033 	subspl	r0, r2, r3, lsr r0
     39c:	50425f49 	subpl	r5, r2, r9, asr #30
     3a0:	5f53554c 	svcpl	0x0053554c
     3a4:	4f495047 	svcmi	0x00495047
     3a8:	5f384a5f 	svcpl	0x00384a5f
     3ac:	52003533 	andpl	r3, r0, #213909504	; 0xcc00000
     3b0:	425f4950 	subsmi	r4, pc, #80, 18	; 0x140000
     3b4:	53554c50 	cmppl	r5, #80, 24	; 0x5000
     3b8:	4950475f 	ldmdbmi	r0, {r0, r1, r2, r3, r4, r6, r8, r9, sl, lr}^
     3bc:	384a5f4f 	stmdacc	sl, {r0, r1, r2, r3, r6, r8, r9, sl, fp, ip, lr}^
     3c0:	0036335f 	eorseq	r3, r6, pc, asr r3
     3c4:	5f495052 	svcpl	0x00495052
     3c8:	554c5042 	strbpl	r5, [ip, #-66]	; 0xffffffbe
     3cc:	50475f53 	subpl	r5, r7, r3, asr pc
     3d0:	4a5f4f49 	bmi	17d40fc <__bss_end__+0x17bf090>
     3d4:	37335f38 			; <UNDEFINED> instruction: 0x37335f38
     3d8:	49505200 	ldmdbmi	r0, {r9, ip, lr}^
     3dc:	4c50425f 	lfmmi	f4, 2, [r0], {95}	; 0x5f
     3e0:	475f5355 			; <UNDEFINED> instruction: 0x475f5355
     3e4:	5f4f4950 	svcpl	0x004f4950
     3e8:	335f384a 	cmpcc	pc, #4849664	; 0x4a0000
     3ec:	63620038 	cmnvs	r2, #56	; 0x38
     3f0:	3338326d 	teqcc	r8, #-805306362	; 0xd0000006
     3f4:	6e695f35 	mcrvs	15, 3, r5, cr9, cr5, {1}
     3f8:	5f007469 	svcpl	0x00007469
     3fc:	6572665f 	ldrbvs	r6, [r2, #-1631]!	; 0xfffff9a1
     400:	615f6461 	cmpvs	pc, r1, ror #8
     404:	7361696c 	cmnvc	r1, #108, 18	; 0x1b0000
     408:	646d6300 	strbtvs	r6, [sp], #-768	; 0xfffffd00
     40c:	656c5f73 	strbvs	r5, [ip, #-3955]!	; 0xfffff08d
     410:	6362006e 	cmnvs	r2, #110	; 0x6e
     414:	3338326d 	teqcc	r8, #-805306362	; 0xd0000006
     418:	70675f35 	rsbvc	r5, r7, r5, lsr pc
     41c:	775f6f69 	ldrbvc	r6, [pc, -r9, ror #30]
     420:	65746972 	ldrbvs	r6, [r4, #-2418]!	; 0xfffff68e
     424:	6c756d5f 	ldclvs	13, cr6, [r5], #-380	; 0xfffffe84
     428:	5f006974 	svcpl	0x00006974
     42c:	766e655f 			; <UNDEFINED> instruction: 0x766e655f
     430:	6e6f7269 	cdpvs	2, 6, cr7, cr15, cr9, {3}
     434:	6d636200 	sfmvs	f6, 2, [r3, #-0]
     438:	35333832 	ldrcc	r3, [r3, #-2098]!	; 0xfffff7ce
     43c:	6d77705f 	ldclvs	0, cr7, [r7, #-380]!	; 0xfffffe84
     440:	7465735f 	strbtvc	r7, [r5], #-863	; 0xfffffca1
     444:	7461645f 	strbtvc	r6, [r1], #-1119	; 0xfffffba1
     448:	69660061 	stmdbvs	r6!, {r0, r5, r6}^
     44c:	42006f66 	andmi	r6, r0, #408	; 0x198
     450:	38324d43 	ldmdacc	r2!, {r0, r1, r6, r8, sl, fp, lr}
     454:	475f3533 	smmlarmi	pc, r3, r5, r3	; <UNPREDICTABLE>
     458:	5f4f4950 	svcpl	0x004f4950
     45c:	5f445550 	svcpl	0x00445550
     460:	0046464f 	subeq	r4, r6, pc, asr #12
     464:	324d4342 	subcc	r4, sp, #134217729	; 0x8000001
     468:	5f353338 	svcpl	0x00353338
     46c:	42474552 	submi	r4, r7, #343932928	; 0x14800000
     470:	5f455341 	svcpl	0x00455341
     474:	30435342 	subcc	r5, r3, r2, asr #6
     478:	4d434200 	sfmmi	f4, 2, [r3, #-0]
     47c:	35333832 	ldrcc	r3, [r3, #-2098]!	; 0xfffff7ce
     480:	4745525f 	smlsldmi	r5, r5, pc, r2	; <UNPREDICTABLE>
     484:	45534142 	ldrbmi	r4, [r3, #-322]	; 0xfffffebe
     488:	4353425f 	cmpmi	r3, #-268435451	; 0xf0000005
     48c:	616e0031 	cmnvs	lr, r1, lsr r0
     490:	6c736f6e 	ldclvs	15, cr6, [r3], #-440	; 0xfffffe48
     494:	00706565 	rsbseq	r6, r0, r5, ror #10
     498:	326d6362 	rsbcc	r6, sp, #-2013265919	; 0x88000001
     49c:	5f353338 	svcpl	0x00353338
     4a0:	6f697067 	svcvs	0x00697067
     4a4:	6572615f 	ldrbvs	r6, [r2, #-351]!	; 0xfffffea1
     4a8:	5052006e 	subspl	r0, r2, lr, rrx
     4ac:	50425f49 	subpl	r5, r2, r9, asr #30
     4b0:	5f53554c 	svcpl	0x0053554c
     4b4:	4f495047 	svcmi	0x00495047
     4b8:	5f384a5f 	svcpl	0x00384a5f
     4bc:	5f003034 	svcpl	0x00003034
     4c0:	6d5f4f49 	ldclvs	15, cr4, [pc, #-292]	; 3a4 <_init-0x374>
     4c4:	656b7261 	strbvs	r7, [fp, #-609]!	; 0xfffffd9f
     4c8:	43420072 	movtmi	r0, #8306	; 0x2072
     4cc:	3338324d 	teqcc	r8, #-805306364	; 0xd0000004
     4d0:	50475f35 	subpl	r5, r7, r5, lsr pc
     4d4:	465f4f49 	ldrbmi	r4, [pc], -r9, asr #30
     4d8:	5f4c4553 	svcpl	0x004c4553
     4dc:	54504e49 	ldrbpl	r4, [r0], #-3657	; 0xfffff1b7
     4e0:	69687300 	stmdbvs	r8!, {r8, r9, ip, sp, lr}^
     4e4:	54007466 	strpl	r7, [r0], #-1126	; 0xfffffb9a
     4e8:	746e4358 	strbtvc	r4, [lr], #-856	; 0xfffffca8
     4ec:	6d636200 	sfmvs	f6, 2, [r3, #-0]
     4f0:	35333832 	ldrcc	r3, [r3, #-2098]!	; 0xfffff7ce
     4f4:	6970675f 	ldmdbvs	r0!, {r0, r1, r2, r3, r4, r6, r8, r9, sl, sp, lr}^
     4f8:	65735f6f 	ldrbvs	r5, [r3, #-3951]!	; 0xfffff091
     4fc:	64655f74 	strbtvs	r5, [r5], #-3956	; 0xfffff08c
     500:	756d5f73 	strbvc	r5, [sp, #-3955]!	; 0xfffff08d
     504:	0069746c 	rsbeq	r7, r9, ip, ror #8
     508:	326d6362 	rsbcc	r6, sp, #-2013265919	; 0x88000001
     50c:	5f353338 	svcpl	0x00353338
     510:	73646170 	cmnvc	r4, #112, 2
     514:	72747300 	rsbsvc	r7, r4, #0, 6
     518:	6f727265 	svcvs	0x00727265
     51c:	43420072 	movtmi	r0, #8306	; 0x2072
     520:	3338324d 	teqcc	r8, #-805306364	; 0xd0000004
     524:	50475f35 	subpl	r5, r7, r5, lsr pc
     528:	505f4f49 	subspl	r4, pc, r9, asr #30
     52c:	555f4455 	ldrbpl	r4, [pc, #-1109]	; df <_init-0x639>
     530:	495f0050 	ldmdbmi	pc, {r4, r6}^	; <UNPREDICTABLE>
     534:	49465f4f 	stmdbmi	r6, {r0, r1, r2, r3, r6, r8, r9, sl, fp, ip, lr}^
     538:	5f00454c 	svcpl	0x0000454c
     53c:	6d69745f 	cfstrdvs	mvd7, [r9, #-380]!	; 0xfffffe84
     540:	6e6f7a65 	vnmulvs.f32	s15, s30, s11
     544:	6e750065 	cdpvs	0, 7, cr0, cr5, cr5, {3}
     548:	6e676973 			; <UNDEFINED> instruction: 0x6e676973
     54c:	63206465 			; <UNDEFINED> instruction: 0x63206465
     550:	00726168 	rsbseq	r6, r2, r8, ror #2
     554:	326d6362 	rsbcc	r6, sp, #-2013265919	; 0x88000001
     558:	5f353338 	svcpl	0x00353338
     55c:	5f787561 	svcpl	0x00787561
     560:	5f697073 	svcpl	0x00697073
     564:	6e617274 	mcrvs	2, 3, r7, cr1, cr4, {3}
     568:	72656673 	rsbvc	r6, r5, #120586240	; 0x7300000
     56c:	4342006e 	movtmi	r0, #8302	; 0x206e
     570:	3338324d 	teqcc	r8, #-805306364	; 0xd0000004
     574:	50535f35 	subspl	r5, r3, r5, lsr pc
     578:	49425f49 	stmdbmi	r2, {r0, r3, r6, r8, r9, sl, fp, ip, lr}^
     57c:	524f5f54 	subpl	r5, pc, #84, 30	; 0x150
     580:	5f524544 	svcpl	0x00524544
     584:	4642534c 	strbmi	r5, [r2], -ip, asr #6
     588:	54535249 	ldrbpl	r5, [r3], #-585	; 0xfffffdb7
     58c:	6d636200 	sfmvs	f6, 2, [r3, #-0]
     590:	35333832 	ldrcc	r3, [r3, #-2098]!	; 0xfffff7ce
     594:	6c65645f 	cfstrdvs	mvd6, [r5], #-380	; 0xfffffe84
     598:	66007961 	strvs	r7, [r0], -r1, ror #18
     59c:	736f6c63 	cmnvc	pc, #25344	; 0x6300
     5a0:	50520065 	subspl	r0, r2, r5, rrx
     5a4:	32565f49 	subscc	r5, r6, #292	; 0x124
     5a8:	4950475f 	ldmdbmi	r0, {r0, r1, r2, r3, r4, r6, r8, r9, sl, lr}^
     5ac:	31505f4f 	cmpcc	r0, pc, asr #30
     5b0:	0032315f 	eorseq	r3, r2, pc, asr r1
     5b4:	43666564 	cmnmi	r6, #100, 10	; 0x19000000
     5b8:	69666e6f 	stmdbvs	r6!, {r0, r1, r2, r3, r5, r6, r9, sl, fp, sp, lr}^
     5bc:	63620067 	cmnvs	r2, #103	; 0x67
     5c0:	3338326d 	teqcc	r8, #-805306362	; 0xd0000006
     5c4:	74735f35 	ldrbtvc	r5, [r3], #-3893	; 0xfffff0cb
     5c8:	6c65645f 	cfstrdvs	mvd6, [r5], #-380	; 0xfffffe84
     5cc:	5f007961 	svcpl	0x00007961
     5d0:	7379735f 	cmnvc	r9, #2080374785	; 0x7c000001
     5d4:	6c6c6163 	stfvse	f6, [ip], #-396	; 0xfffffe74
     5d8:	6f6c735f 	svcvs	0x006c735f
     5dc:	745f676e 	ldrbvc	r6, [pc], #-1902	; 5e4 <_init-0x134>
     5e0:	4f495f00 	svcmi	0x00495f00
     5e4:	4c49465f 	mcrrmi	6, 5, r4, r9, cr15
     5e8:	6c705f45 	ldclvs	15, cr5, [r0], #-276	; 0xfffffeec
     5ec:	76007375 			; <UNDEFINED> instruction: 0x76007375
     5f0:	65756c61 	ldrbvs	r6, [r5, #-3169]!	; 0xfffff39f
     5f4:	6d636200 	sfmvs	f6, 2, [r3, #-0]
     5f8:	35333832 	ldrcc	r3, [r3, #-2098]!	; 0xfffff7ce
     5fc:	6970675f 	ldmdbvs	r0!, {r0, r1, r2, r3, r4, r6, r8, r9, sl, sp, lr}^
     600:	72775f6f 	rsbsvc	r5, r7, #444	; 0x1bc
     604:	00657469 	rsbeq	r7, r5, r9, ror #8
     608:	326d6362 	rsbcc	r6, sp, #-2013265919	; 0x88000001
     60c:	5f353338 	svcpl	0x00353338
     610:	5f633269 	svcpl	0x00633269
     614:	69676562 	stmdbvs	r7!, {r1, r5, r6, r8, sl, sp, lr}^
     618:	6362006e 	cmnvs	r2, #110	; 0x6e
     61c:	3338326d 	teqcc	r8, #-805306362	; 0xd0000006
     620:	75615f35 	strbvc	r5, [r1, #-3893]!	; 0xfffff0cb
     624:	70735f78 	rsbsvc	r5, r3, r8, ror pc
     628:	61435f69 	cmpvs	r3, r9, ror #30
     62c:	6c43636c 	mcrrvs	3, 6, r6, r3, cr12
     630:	446b636f 	strbtmi	r6, [fp], #-879	; 0xfffffc91
     634:	64697669 	strbtvs	r7, [r9], #-1641	; 0xfffff997
     638:	74007265 	strvc	r7, [r0], #-613	; 0xfffffd9b
     63c:	656c5f78 	strbvs	r5, [ip, #-3960]!	; 0xfffff088
     640:	5f5f006e 	svcpl	0x005f006e
     644:	00727470 	rsbseq	r7, r2, r0, ror r4
     648:	616d6572 	smcvs	54866	; 0xd652
     64c:	6e696e69 	cdpvs	14, 6, cr6, cr9, cr9, {3}
     650:	43420067 	movtmi	r0, #8295	; 0x2067
     654:	3338324d 	teqcc	r8, #-805306364	; 0xd0000004
     658:	32495f35 	subcc	r5, r9, #53, 30	; 0xd4
     65c:	45525f43 	ldrbmi	r5, [r2, #-3907]	; 0xfffff0bd
     660:	4e4f5341 	cdpmi	3, 4, cr5, cr15, cr1, {2}
     664:	5252455f 	subspl	r4, r2, #398458880	; 0x17c00000
     668:	445f524f 	ldrbmi	r5, [pc], #-591	; 670 <_init-0xa8>
     66c:	00415441 	subeq	r5, r1, r1, asr #8
     670:	326d6362 	rsbcc	r6, sp, #-2013265919	; 0x88000001
     674:	5f353338 	svcpl	0x00353338
     678:	6f697067 	svcvs	0x00697067
     67c:	6e656c5f 	mcrvs	12, 3, r6, cr5, cr15, {2}
     680:	6d636200 	sfmvs	f6, 2, [r3, #-0]
     684:	35333832 	ldrcc	r3, [r3, #-2098]!	; 0xfffff7ce
     688:	6332695f 	teqvs	r2, #1556480	; 0x17c000
     68c:	6972775f 	ldmdbvs	r2!, {r0, r1, r2, r3, r4, r6, r8, r9, sl, ip, sp, lr}^
     690:	725f6574 	subsvc	r6, pc, #116, 10	; 0x1d000000
     694:	5f646165 	svcpl	0x00646165
     698:	62007372 	andvs	r7, r0, #-939524095	; 0xc8000001
     69c:	38326d63 	ldmdacc	r2!, {r0, r1, r5, r6, r8, sl, fp, sp, lr}
     6a0:	675f3533 	smmlarvs	pc, r3, r5, r3	; <UNPREDICTABLE>
     6a4:	5f6f6970 	svcpl	0x006f6970
     6a8:	0076656c 	rsbseq	r6, r6, ip, ror #10
     6ac:	5f4f495f 	svcpl	0x004f495f
     6b0:	6b636f6c 	blvs	18dc468 <__bss_end__+0x18c73fc>
     6b4:	5f00745f 	svcpl	0x0000745f
     6b8:	6e69755f 	mcrvs	5, 3, r7, cr9, cr15, {2}
     6bc:	5f363174 	svcpl	0x00363174
     6c0:	43420074 	movtmi	r0, #8308	; 0x2074
     6c4:	3338324d 	teqcc	r8, #-805306364	; 0xd0000004
     6c8:	45525f35 	ldrbmi	r5, [r2, #-3893]	; 0xfffff0cb
     6cc:	53414247 	movtpl	r4, #4679	; 0x1247
     6d0:	50475f45 	subpl	r5, r7, r5, asr #30
     6d4:	5f004f49 	svcpl	0x00004f49
     6d8:	7272655f 	rsbsvc	r6, r2, #398458880	; 0x17c00000
     6dc:	6c5f6f6e 	mrrcvs	15, 6, r6, pc, cr14	; <UNPREDICTABLE>
     6e0:	7461636f 	strbtvc	r6, [r1], #-879	; 0xfffffc91
     6e4:	006e6f69 	rsbeq	r6, lr, r9, ror #30
     6e8:	69766964 	ldmdbvs	r6!, {r2, r5, r6, r8, fp, sp, lr}^
     6ec:	00726564 	rsbseq	r6, r2, r4, ror #10
     6f0:	326d6362 	rsbcc	r6, sp, #-2013265919	; 0x88000001
     6f4:	5f353338 	svcpl	0x00353338
     6f8:	69726570 	ldmdbvs	r2!, {r4, r5, r6, r8, sl, sp, lr}^
     6fc:	72656870 	rsbvc	r6, r5, #112, 16	; 0x700000
     700:	00736c61 	rsbseq	r6, r3, r1, ror #24
     704:	5f495052 	svcpl	0x00495052
     708:	475f3256 			; <UNDEFINED> instruction: 0x475f3256
     70c:	5f4f4950 	svcpl	0x004f4950
     710:	325f3150 	subscc	r3, pc, #80, 2
     714:	495f0032 	ldmdbmi	pc, {r1, r4, r5}^	; <UNPREDICTABLE>
     718:	65725f4f 	ldrbvs	r5, [r2, #-3919]!	; 0xfffff0b1
     71c:	705f6461 	subsvc	r6, pc, r1, ror #8
     720:	62007274 	andvs	r7, r0, #116, 4	; 0x40000007
     724:	38326d63 	ldmdacc	r2!, {r0, r1, r5, r6, r8, sl, fp, sp, lr}
     728:	735f3533 	cmpvc	pc, #213909504	; 0xcc00000
     72c:	635f6970 	cmpvs	pc, #112, 18	; 0x1c0000
     730:	53706968 	cmnpl	r0, #104, 18	; 0x1a0000
     734:	63656c65 	cmnvs	r5, #25856	; 0x6500
     738:	705f0074 	subsvc	r0, pc, r4, ror r0	; <UNPREDICTABLE>
     73c:	7300736f 	movwvc	r7, #879	; 0x36f
     740:	6e696474 	mcrvs	4, 3, r6, cr9, cr4, {3}
     744:	6d636200 	sfmvs	f6, 2, [r3, #-0]
     748:	35333832 	ldrcc	r3, [r3, #-2098]!	; 0xfffff7ce
     74c:	6332695f 	teqvs	r2, #1556480	; 0x17c000
     750:	7465735f 	strbtvc	r7, [r5], #-863	; 0xfffffca1
     754:	76616c53 			; <UNDEFINED> instruction: 0x76616c53
     758:	64644165 	strbtvs	r4, [r4], #-357	; 0xfffffe9b
     75c:	73736572 	cmnvc	r3, #478150656	; 0x1c800000
     760:	616d6d00 	cmnvs	sp, r0, lsl #26
     764:	43420070 	movtmi	r0, #8304	; 0x2070
     768:	3338324d 	teqcc	r8, #-805306364	; 0xd0000004
     76c:	45525f35 	ldrbmi	r5, [r2, #-3893]	; 0xfffff0cb
     770:	53414247 	movtpl	r4, #4679	; 0x1247
     774:	50535f45 	subspl	r5, r3, r5, asr #30
     778:	42003049 	andmi	r3, r0, #73	; 0x49
     77c:	38324d43 	ldmdacc	r2!, {r0, r1, r6, r8, sl, fp, lr}
     780:	525f3533 	subspl	r3, pc, #213909504	; 0xcc00000
     784:	41424745 	cmpmi	r2, r5, asr #14
     788:	535f4553 	cmppl	pc, #348127232	; 0x14c00000
     78c:	00314950 	eorseq	r4, r1, r0, asr r9
     790:	326d6362 	rsbcc	r6, sp, #-2013265919	; 0x88000001
     794:	5f353338 	svcpl	0x00353338
     798:	69726570 	ldmdbvs	r2!, {r4, r5, r6, r8, sl, sp, lr}^
     79c:	72656870 	rsbvc	r6, r5, #112, 16	; 0x700000
     7a0:	5f736c61 	svcpl	0x00736c61
     7a4:	657a6973 	ldrbvs	r6, [sl, #-2419]!	; 0xfffff68d
     7a8:	616d5f00 	cmnvs	sp, r0, lsl #30
     7ac:	72656b72 	rsbvc	r6, r5, #116736	; 0x1c800
     7b0:	75700073 	ldrbvc	r0, [r0, #-115]!	; 0xffffff8d
     7b4:	79745f64 	ldmdbvc	r4!, {r2, r5, r6, r8, r9, sl, fp, ip, lr}^
     7b8:	725f6570 	subsvc	r6, pc, #112, 10	; 0x1c000000
     7bc:	00346970 	eorseq	r6, r4, r0, ror r9
     7c0:	706d6f63 	rsbvc	r6, sp, r3, ror #30
     7c4:	00657261 	rsbeq	r7, r5, r1, ror #4
     7c8:	326d6362 	rsbcc	r6, sp, #-2013265919	; 0x88000001
     7cc:	5f353338 	svcpl	0x00353338
     7d0:	6f697067 	svcvs	0x00697067
     7d4:	726c635f 	rsbvc	r6, ip, #2080374785	; 0x7c000001
     7d8:	6e65665f 	mcrvs	6, 3, r6, cr5, cr15, {2}
     7dc:	6d636200 	sfmvs	f6, 2, [r3, #-0]
     7e0:	35333832 	ldrcc	r3, [r3, #-2098]!	; 0xfffff7ce
     7e4:	6332695f 	teqvs	r2, #1556480	; 0x17c000
     7e8:	7465735f 	strbtvc	r7, [r5], #-863	; 0xfffffca1
     7ec:	636f6c43 	cmnvs	pc, #17152	; 0x4300
     7f0:	7669446b 	strbtvc	r4, [r9], -fp, ror #8
     7f4:	72656469 	rsbvc	r6, r5, #1761607680	; 0x69000000
     7f8:	74636100 	strbtvc	r6, [r3], #-256	; 0xffffff00
     7fc:	00657669 	rsbeq	r7, r5, r9, ror #12
     800:	326d6362 	rsbcc	r6, sp, #-2013265919	; 0x88000001
     804:	5f353338 	svcpl	0x00353338
     808:	6f697067 	svcvs	0x00697067
     80c:	726c635f 	rsbvc	r6, ip, #2080374785	; 0x7c000001
     810:	6572615f 	ldrbvs	r6, [r2, #-351]!	; 0xfffffea1
     814:	6d63006e 	stclvs	0, cr0, [r3, #-440]!	; 0xfffffe48
     818:	52007364 	andpl	r7, r0, #100, 6	; 0x90000001
     81c:	565f4950 			; <UNDEFINED> instruction: 0x565f4950
     820:	50475f32 	subpl	r5, r7, r2, lsr pc
     824:	505f4f49 	subspl	r4, pc, r9, asr #30
     828:	36335f31 	shasxcc	r5, r3, r1
     82c:	6d636200 	sfmvs	f6, 2, [r3, #-0]
     830:	35333832 	ldrcc	r3, [r3, #-2098]!	; 0xfffff7ce
     834:	6373625f 	cmnvs	r3, #-268435451	; 0xf0000005
     838:	63620030 	cmnvs	r2, #48	; 0x30
     83c:	3338326d 	teqcc	r8, #-805306362	; 0xd0000006
     840:	73625f35 	cmnvc	r2, #53, 30	; 0xd4
     844:	47003163 	strmi	r3, [r0, -r3, ror #2]
     848:	4320554e 			; <UNDEFINED> instruction: 0x4320554e
     84c:	37203131 			; <UNDEFINED> instruction: 0x37203131
     850:	302e352e 	eorcc	r3, lr, lr, lsr #10
     854:	616d2d20 	cmnvs	sp, r0, lsr #26
     858:	3d686372 	stclcc	3, cr6, [r8, #-456]!	; 0xfffffe38
     85c:	766d7261 	strbtvc	r7, [sp], -r1, ror #4
     860:	20612d37 	rsbcs	r2, r1, r7, lsr sp
     864:	6c666d2d 	stclvs	13, cr6, [r6], #-180	; 0xffffff4c
     868:	2d74616f 	ldfcse	f6, [r4, #-444]!	; 0xfffffe44
     86c:	3d696261 	sfmcc	f6, 2, [r9, #-388]!	; 0xfffffe7c
     870:	64726168 	ldrbtvs	r6, [r2], #-360	; 0xfffffe98
     874:	666d2d20 	strbtvs	r2, [sp], -r0, lsr #26
     878:	763d7570 			; <UNDEFINED> instruction: 0x763d7570
     87c:	33767066 	cmncc	r6, #102	; 0x66
     880:	3631642d 	ldrtcc	r6, [r1], -sp, lsr #8
     884:	746d2d20 	strbtvc	r2, [sp], #-3360	; 0xfffff2e0
     888:	626d7568 	rsbvs	r7, sp, #104, 10	; 0x1a000000
     88c:	746d2d20 	strbtvc	r2, [sp], #-3360	; 0xfffff2e0
     890:	642d736c 	strtvs	r7, [sp], #-876	; 0xfffffc94
     894:	656c6169 	strbvs	r6, [ip, #-361]!	; 0xfffffe97
     898:	673d7463 	ldrvs	r7, [sp, -r3, ror #8]!
     89c:	2d20756e 	cfstr32cs	mvfx7, [r0, #-440]!	; 0xfffffe48
     8a0:	4f2d2067 	svcmi	0x002d2067
     8a4:	662d2032 			; <UNDEFINED> instruction: 0x662d2032
     8a8:	63617473 	cmnvs	r1, #1929379840	; 0x73000000
     8ac:	72702d6b 	rsbsvc	r2, r0, #6848	; 0x1ac0
     8b0:	6365746f 	cmnvs	r5, #1862270976	; 0x6f000000
     8b4:	2d726f74 	ldclcs	15, cr6, [r2, #-464]!	; 0xfffffe30
     8b8:	6f727473 	svcvs	0x00727473
     8bc:	6200676e 	andvs	r6, r0, #28835840	; 0x1b80000
     8c0:	38326d63 	ldmdacc	r2!, {r0, r1, r5, r6, r8, sl, fp, sp, lr}
     8c4:	645f3533 	ldrbvs	r3, [pc], #-1331	; 8cc <main+0x7c>
     8c8:	79616c65 	stmdbvc	r1!, {r0, r2, r5, r6, sl, fp, sp, lr}^
     8cc:	7263694d 	rsbvc	r6, r3, #1261568	; 0x134000
     8d0:	6365736f 	cmnvs	r5, #-1140850687	; 0xbc000001
     8d4:	73646e6f 	cmnvc	r4, #1776	; 0x6f0
     8d8:	6d636200 	sfmvs	f6, 2, [r3, #-0]
     8dc:	35333832 	ldrcc	r3, [r3, #-2098]!	; 0xfffff7ce
     8e0:	6970735f 	ldmdbvs	r0!, {r0, r1, r2, r3, r4, r6, r8, r9, ip, sp, lr}^
     8e4:	7465735f 	strbtvc	r7, [r5], #-863	; 0xfffffca1
     8e8:	4f746942 	svcmi	0x00746942
     8ec:	72656472 	rsbvc	r6, r5, #1912602624	; 0x72000000
     8f0:	74706f00 	ldrbtvc	r6, [r0], #-3840	; 0xfffff100
     8f4:	00646e69 	rsbeq	r6, r4, r9, ror #28
     8f8:	62616e65 	rsbvs	r6, r1, #1616	; 0x650
     8fc:	0064656c 	rsbeq	r6, r4, ip, ror #10
     900:	326d6362 	rsbcc	r6, sp, #-2013265919	; 0x88000001
     904:	5f353338 	svcpl	0x00353338
     908:	6f697067 	svcvs	0x00697067
     90c:	726c635f 	rsbvc	r6, ip, #2080374785	; 0x7c000001
     910:	6e65725f 	mcrvs	2, 3, r7, cr5, cr15, {2}
     914:	6d636200 	sfmvs	f6, 2, [r3, #-0]
     918:	35333832 	ldrcc	r3, [r3, #-2098]!	; 0xfffff7ce
     91c:	7875615f 	ldmdavc	r5!, {r0, r1, r2, r3, r4, r6, r8, sp, lr}^
     920:	6970735f 	ldmdbvs	r0!, {r0, r1, r2, r3, r4, r6, r8, r9, ip, sp, lr}^
     924:	7365725f 	cmnvc	r5, #-268435451	; 0xf0000005
     928:	5f007465 	svcpl	0x00007465
     92c:	6e69755f 	mcrvs	5, 3, r7, cr9, cr15, {2}
     930:	5f343674 	svcpl	0x00343674
     934:	495f0074 	ldmdbmi	pc, {r2, r4, r5, r6}^	; <UNPREDICTABLE>
     938:	5f325f4f 	svcpl	0x00325f4f
     93c:	74735f31 	ldrbtvc	r5, [r3], #-3889	; 0xfffff0cf
     940:	5f6e6964 	svcpl	0x006e6964
     944:	49505200 	ldmdbmi	r0, {r9, ip, lr}^
     948:	4c50425f 	lfmmi	f4, 2, [r0], {95}	; 0x5f
     94c:	475f5355 			; <UNDEFINED> instruction: 0x475f5355
     950:	5f4f4950 	svcpl	0x004f4950
     954:	315f384a 	cmpcc	pc, sl, asr #16
     958:	74730031 	ldrbtvc	r0, [r3], #-49	; 0xffffffcf
     95c:	73757461 	cmnvc	r5, #1627389952	; 0x61000000
     960:	6c665f00 	stclvs	15, cr5, [r6], #-0
     964:	32736761 	rsbscc	r6, r3, #25427968	; 0x1840000
     968:	6d636200 	sfmvs	f6, 2, [r3, #-0]
     96c:	35333832 	ldrcc	r3, [r3, #-2098]!	; 0xfffff7ce
     970:	5f74735f 	svcpl	0x0074735f
     974:	64616572 	strbtvs	r6, [r1], #-1394	; 0xfffffa8e
     978:	4f495f00 	svcmi	0x00495f00
     97c:	6165725f 	cmnvs	r5, pc, asr r2
     980:	61625f64 	cmnvs	r2, r4, ror #30
     984:	42006573 	andmi	r6, r0, #482344960	; 0x1cc00000
     988:	38324d43 	ldmdacc	r2!, {r0, r1, r6, r8, sl, fp, lr}
     98c:	495f3533 	ldmdbmi	pc, {r0, r1, r4, r5, r8, sl, ip, sp}^	; <UNPREDICTABLE>
     990:	525f4332 	subspl	r4, pc, #-939524096	; 0xc8000000
     994:	4f534145 	svcmi	0x00534145
     998:	4b4f5f4e 	blmi	13d86d8 <__bss_end__+0x13c366c>
     99c:	72747300 	rsbsvc	r7, r4, #0, 6
     9a0:	6365626f 	cmnvs	r5, #-268435450	; 0xf0000006
     9a4:	656c6379 	strbvs	r6, [ip, #-889]!	; 0xfffffc87
     9a8:	755f0073 	ldrbvc	r0, [pc, #-115]	; 93d <_start+0x21>
     9ac:	6573756e 	ldrbvs	r7, [r3, #-1390]!	; 0xfffffa92
     9b0:	5f003264 	svcpl	0x00003264
     9b4:	65706f5f 	ldrbvs	r6, [r0, #-3935]!	; 0xfffff0a1
     9b8:	6c615f6e 	stclvs	15, cr5, [r1], #-440	; 0xfffffe48
     9bc:	00736169 	rsbseq	r6, r3, r9, ror #2
     9c0:	75715f5f 	ldrbvc	r5, [r1, #-3935]!	; 0xfffff0a1
     9c4:	745f6461 	ldrbvc	r6, [pc], #-1121	; 9cc <register_tm_clones+0x18>
     9c8:	6d636200 	sfmvs	f6, 2, [r3, #-0]
     9cc:	35333832 	ldrcc	r3, [r3, #-2098]!	; 0xfffff7ce
     9d0:	0074735f 	rsbseq	r7, r4, pc, asr r3
     9d4:	69726570 	ldmdbvs	r2!, {r4, r5, r6, r8, sl, sp, lr}^
     9d8:	7a69735f 	bvc	1a5d75c <__bss_end__+0x1a486f0>
     9dc:	63620065 	cmnvs	r2, #101	; 0x65
     9e0:	3338326d 	teqcc	r8, #-805306362	; 0xd0000006
     9e4:	75615f35 	strbvc	r5, [r1, #-3893]!	; 0xfffff0cb
     9e8:	70735f78 	rsbsvc	r5, r3, r8, ror pc
     9ec:	72745f69 	rsbsvc	r5, r4, #420	; 0x1a4
     9f0:	66736e61 	ldrbtvs	r6, [r3], -r1, ror #28
     9f4:	5f007265 	svcpl	0x00007265
     9f8:	7a69735f 	bvc	1a5d77c <__bss_end__+0x1a48710>
     9fc:	32690065 	rsbcc	r0, r9, #101	; 0x65
     a00:	79625f63 	stmdbvc	r2!, {r0, r1, r5, r6, r8, r9, sl, fp, ip, lr}^
     a04:	775f6574 			; <UNDEFINED> instruction: 0x775f6574
     a08:	5f746961 	svcpl	0x00746961
     a0c:	5f007375 	svcpl	0x00007375
     a10:	7270665f 	rsbsvc	r6, r0, #99614720	; 0x5f00000
     a14:	66746e69 	ldrbtvs	r6, [r4], -r9, ror #28
     a18:	6b68635f 	blvs	1a1979c <__bss_end__+0x1a04730>
     a1c:	6f726700 	svcvs	0x00726700
     a20:	70007075 	andvc	r7, r0, r5, ror r0
     a24:	61696d73 	smcvs	38611	; 0x96d3
     a28:	00726464 	rsbseq	r6, r2, r4, ror #8
     a2c:	646c6f5f 	strbtvs	r6, [ip], #-3935	; 0xfffff0a1
     a30:	66666f5f 	uqsaxvs	r6, r6, pc	; <UNPREDICTABLE>
     a34:	00746573 	rsbseq	r6, r4, r3, ror r5
     a38:	326d6362 	rsbcc	r6, sp, #-2013265919	; 0x88000001
     a3c:	5f353338 	svcpl	0x00353338
     a40:	6f697067 	svcvs	0x00697067
     a44:	6e65685f 	mcrvs	8, 3, r6, cr5, cr15, {2}
     a48:	43585200 	cmpmi	r8, #0, 4
     a4c:	6d00746e 	cfstrsvs	mvf7, [r0, #-440]	; 0xfffffe48
     a50:	736b7261 	cmnvc	fp, #268435462	; 0x10000006
     a54:	65636170 	strbvs	r6, [r3, #-368]!	; 0xfffffe90
     a58:	6d636200 	sfmvs	f6, 2, [r3, #-0]
     a5c:	35333832 	ldrcc	r3, [r3, #-2098]!	; 0xfffff7ce
     a60:	6970675f 	ldmdbvs	r0!, {r0, r1, r2, r3, r4, r6, r8, r9, sl, sp, lr}^
     a64:	65725f6f 	ldrbvs	r5, [r2, #-3951]!	; 0xfffff091
     a68:	5f5f006e 	svcpl	0x005f006e
     a6c:	746e6975 	strbtvc	r6, [lr], #-2421	; 0xfffff68b
     a70:	745f3233 	ldrbvc	r3, [pc], #-563	; a78 <PCA9685Servo::PCA9685Servo(unsigned char)+0x4c>
     a74:	735f5f00 	cmpvc	pc, #0, 30
     a78:	6b636174 	blvs	18d9050 <__bss_end__+0x18c3fe4>
     a7c:	6b68635f 	blvs	1a19800 <__bss_end__+0x1a04794>
     a80:	6961665f 	stmdbvs	r1!, {r0, r1, r2, r3, r4, r6, r9, sl, sp, lr}^
     a84:	6f6c006c 	svcvs	0x006c006c
     a88:	6c20676e 	stcvs	7, cr6, [r0], #-440	; 0xfffffe48
     a8c:	20676e6f 	rsbcs	r6, r7, pc, ror #28
     a90:	00746e69 	rsbseq	r6, r4, r9, ror #28
     a94:	6c5f7872 	mrrcvs	8, 7, r7, pc, cr2	; <UNPREDICTABLE>
     a98:	65006e65 	strvs	r6, [r0, #-3685]	; 0xfffff19b
     a9c:	6c62616e 	stfvse	f6, [r2], #-440	; 0xfffffe48
     aa0:	61620065 	cmnvs	r2, r5, rrx
     aa4:	615f6573 	cmpvs	pc, r3, ror r5	; <UNPREDICTABLE>
     aa8:	65726464 	ldrbvs	r6, [r2, #-1124]!	; 0xfffffb9c
     aac:	52007373 	andpl	r7, r0, #-872415231	; 0xcc000001
     ab0:	475f4950 			; <UNDEFINED> instruction: 0x475f4950
     ab4:	5f4f4950 	svcpl	0x004f4950
     ab8:	305f3150 	subscc	r3, pc, r0, asr r1	; <UNPREDICTABLE>
     abc:	50520033 	subspl	r0, r2, r3, lsr r0
     ac0:	50475f49 	subpl	r5, r7, r9, asr #30
     ac4:	505f4f49 	subspl	r4, pc, r9, asr #30
     ac8:	35305f31 	ldrcc	r5, [r0, #-3889]!	; 0xfffff0cf
     acc:	49505200 	ldmdbmi	r0, {r9, ip, lr}^
     ad0:	4950475f 	ldmdbmi	r0, {r0, r1, r2, r3, r4, r6, r8, r9, sl, lr}^
     ad4:	31505f4f 	cmpcc	r0, pc, asr #30
     ad8:	0037305f 	eorseq	r3, r7, pc, asr r0
     adc:	5f495052 	svcpl	0x00495052
     ae0:	4f495047 	svcmi	0x00495047
     ae4:	5f31505f 	svcpl	0x0031505f
     ae8:	2f003830 	svccs	0x00003830
     aec:	656d6f68 	strbvs	r6, [sp, #-3944]!	; 0xfffff098
     af0:	2f69702f 	svccs	0x0069702f
     af4:	326d6362 	rsbcc	r6, sp, #-2013265919	; 0x88000001
     af8:	2d353338 	ldccs	3, cr3, [r5, #-224]!	; 0xffffff20
     afc:	31372e31 	teqcc	r7, r1, lsr lr
     b00:	6372732f 	cmnvs	r2, #-1140850688	; 0xbc000000
     b04:	4f495f00 	svcmi	0x00495f00
     b08:	6972775f 	ldmdbvs	r2!, {r0, r1, r2, r3, r4, r6, r8, r9, sl, ip, sp, lr}^
     b0c:	655f6574 	ldrbvs	r6, [pc, #-1396]	; 5a0 <_init-0x178>
     b10:	6200646e 	andvs	r6, r0, #1845493760	; 0x6e000000
     b14:	38326d63 	ldmdacc	r2!, {r0, r1, r5, r6, r8, sl, fp, sp, lr}
     b18:	675f3533 	smmlarvs	pc, r3, r5, r3	; <UNPREDICTABLE>
     b1c:	006f6970 	rsbeq	r6, pc, r0, ror r9	; <UNPREDICTABLE>
     b20:	65636170 	strbvs	r6, [r3, #-368]!	; 0xfffffe90
     b24:	6c637963 			; <UNDEFINED> instruction: 0x6c637963
     b28:	63007365 	movwvs	r7, #869	; 0x365
     b2c:	72746e6f 	rsbsvc	r6, r4, #1776	; 0x6f0
     b30:	52006c6f 	andpl	r6, r0, #28416	; 0x6f00
     b34:	475f4950 			; <UNDEFINED> instruction: 0x475f4950
     b38:	5f4f4950 	svcpl	0x004f4950
     b3c:	315f3150 	cmpcc	pc, r0, asr r1	; <UNPREDICTABLE>
     b40:	50520030 	subspl	r0, r2, r0, lsr r0
     b44:	50475f49 	subpl	r5, r7, r9, asr #30
     b48:	505f4f49 	subspl	r4, pc, r9, asr #30
     b4c:	31315f31 	teqcc	r1, r1, lsr pc
     b50:	49505200 	ldmdbmi	r0, {r9, ip, lr}^
     b54:	4950475f 	ldmdbmi	r0, {r0, r1, r2, r3, r4, r6, r8, r9, sl, lr}^
     b58:	31505f4f 	cmpcc	r0, pc, asr #30
     b5c:	0032315f 	eorseq	r3, r2, pc, asr r1
     b60:	5f495052 	svcpl	0x00495052
     b64:	4f495047 	svcmi	0x00495047
     b68:	5f31505f 	svcpl	0x0031505f
     b6c:	52003331 	andpl	r3, r0, #-1006632960	; 0xc4000000
     b70:	475f4950 			; <UNDEFINED> instruction: 0x475f4950
     b74:	5f4f4950 	svcpl	0x004f4950
     b78:	315f3150 	cmpcc	pc, r0, asr r1	; <UNPREDICTABLE>
     b7c:	50520035 	subspl	r0, r2, r5, lsr r0
     b80:	50475f49 	subpl	r5, r7, r9, asr #30
     b84:	505f4f49 	subspl	r4, pc, r9, asr #30
     b88:	36315f31 	shasxcc	r5, r1, r1
     b8c:	49505200 	ldmdbmi	r0, {r9, ip, lr}^
     b90:	4950475f 	ldmdbmi	r0, {r0, r1, r2, r3, r4, r6, r8, r9, sl, lr}^
     b94:	31505f4f 	cmpcc	r0, pc, asr #30
     b98:	0038315f 	eorseq	r3, r8, pc, asr r1
     b9c:	5f495052 	svcpl	0x00495052
     ba0:	4f495047 	svcmi	0x00495047
     ba4:	5f31505f 	svcpl	0x0031505f
     ba8:	63003931 	movwvs	r3, #2353	; 0x931
     bac:	746e756f 	strbtvc	r7, [lr], #-1391	; 0xfffffa91
     bb0:	6d636200 	sfmvs	f6, 2, [r3, #-0]
     bb4:	35333832 	ldrcc	r3, [r3, #-2098]!	; 0xfffff7ce
     bb8:	6970675f 	ldmdbvs	r0!, {r0, r1, r2, r3, r4, r6, r8, r9, sl, sp, lr}^
     bbc:	6c635f6f 	stclvs	15, cr5, [r3], #-444	; 0xfffffe44
     bc0:	656c5f72 	strbvs	r5, [ip, #-3954]!	; 0xfffff08e
     bc4:	6362006e 	cmnvs	r2, #110	; 0x6e
     bc8:	3338326d 	teqcc	r8, #-805306362	; 0xd0000006
     bcc:	70675f35 	rsbvc	r5, r7, r5, lsr pc
     bd0:	775f6f69 	ldrbvc	r6, [pc, -r9, ror #30]
     bd4:	65746972 	ldrbvs	r6, [r4, #-2418]!	; 0xfffff68e
     bd8:	73616d5f 	cmnvc	r1, #6080	; 0x17c0
     bdc:	495f006b 	ldmdbmi	pc, {r0, r1, r3, r5, r6}^	; <UNPREDICTABLE>
     be0:	75625f4f 	strbvc	r5, [r2, #-3919]!	; 0xfffff0b1
     be4:	61625f66 	cmnvs	r2, r6, ror #30
     be8:	62006573 	andvs	r6, r0, #482344960	; 0x1cc00000
     bec:	38326d63 	ldmdacc	r2!, {r0, r1, r5, r6, r8, sl, fp, sp, lr}
     bf0:	735f3533 	cmpvc	pc, #213909504	; 0xcc00000
     bf4:	00306970 	eorseq	r6, r0, r0, ror r9
     bf8:	326d6362 	rsbcc	r6, sp, #-2013265919	; 0x88000001
     bfc:	5f353338 	svcpl	0x00353338
     c00:	31697073 	smccc	38659	; 0x9703
     c04:	6d636200 	sfmvs	f6, 2, [r3, #-0]
     c08:	35333832 	ldrcc	r3, [r3, #-2098]!	; 0xfffff7ce
     c0c:	726f635f 	rsbvc	r6, pc, #2080374785	; 0x7c000001
     c10:	74636572 	strbtvc	r6, [r3], #-1394	; 0xfffffa8e
     c14:	64726f5f 	ldrbtvs	r6, [r2], #-3935	; 0xfffff0a1
     c18:	52007265 	andpl	r7, r0, #1342177286	; 0x50000006
     c1c:	475f4950 			; <UNDEFINED> instruction: 0x475f4950
     c20:	5f4f4950 	svcpl	0x004f4950
     c24:	325f3150 	subscc	r3, pc, #80, 2
     c28:	50520031 	subspl	r0, r2, r1, lsr r0
     c2c:	50475f49 	subpl	r5, r7, r9, asr #30
     c30:	505f4f49 	subspl	r4, pc, r9, asr #30
     c34:	32325f31 	eorscc	r5, r2, #49, 30	; 0xc4
     c38:	49505200 	ldmdbmi	r0, {r9, ip, lr}^
     c3c:	4950475f 	ldmdbmi	r0, {r0, r1, r2, r3, r4, r6, r8, r9, sl, lr}^
     c40:	31505f4f 	cmpcc	r0, pc, asr #30
     c44:	0033325f 	eorseq	r3, r3, pc, asr r2
     c48:	5f495052 	svcpl	0x00495052
     c4c:	4f495047 	svcmi	0x00495047
     c50:	5f31505f 	svcpl	0x0031505f
     c54:	52003432 	andpl	r3, r0, #838860800	; 0x32000000
     c58:	475f4950 			; <UNDEFINED> instruction: 0x475f4950
     c5c:	5f4f4950 	svcpl	0x004f4950
     c60:	325f3150 	subscc	r3, pc, #80, 2
     c64:	5f5f0036 	svcpl	0x005f0036
     c68:	31646170 	smccc	17936	; 0x4610
     c6c:	705f5f00 	subsvc	r5, pc, r0, lsl #30
     c70:	00326461 	eorseq	r6, r2, r1, ror #8
     c74:	61705f5f 	cmnvs	r0, pc, asr pc
     c78:	5f003364 	svcpl	0x00003364
     c7c:	6461705f 	strbtvs	r7, [r1], #-95	; 0xffffffa1
     c80:	5f5f0034 	svcpl	0x005f0034
     c84:	35646170 	strbcc	r6, [r4, #-368]!	; 0xfffffe90
     c88:	62735f00 	rsbsvs	r5, r3, #0, 30
     c8c:	62006675 	andvs	r6, r0, #122683392	; 0x7500000
     c90:	38326d63 	ldmdacc	r2!, {r0, r1, r5, r6, r8, sl, fp, sp, lr}
     c94:	695f3533 	ldmdbvs	pc, {r0, r1, r4, r5, r8, sl, ip, sp}^	; <UNPREDICTABLE>
     c98:	655f6332 	ldrbvs	r6, [pc, #-818]	; 96e <call_weak_fn+0xa>
     c9c:	6200646e 	andvs	r6, r0, #1845493760	; 0x6e000000
     ca0:	38326d63 	ldmdacc	r2!, {r0, r1, r5, r6, r8, sl, fp, sp, lr}
     ca4:	735f3533 	cmpvc	pc, #213909504	; 0xcc00000
     ca8:	735f6970 	cmpvc	pc, #112, 18	; 0x1c0000
     cac:	6c437465 	cfstrdvs	mvd7, [r3], {101}	; 0x65
     cb0:	446b636f 	strbtmi	r6, [fp], #-879	; 0xfffffc91
     cb4:	64697669 	strbtvs	r7, [r9], #-1641	; 0xfffff997
     cb8:	62007265 	andvs	r7, r0, #1342177286	; 0x50000006
     cbc:	38326d63 	ldmdacc	r2!, {r0, r1, r5, r6, r8, sl, fp, sp, lr}
     cc0:	615f3533 	cmpvs	pc, r3, lsr r5	; <UNPREDICTABLE>
     cc4:	735f7875 	cmpvc	pc, #7667712	; 0x750000
     cc8:	625f6970 	subsvs	r6, pc, #112, 18	; 0x1c0000
     ccc:	6e696765 	cdpvs	7, 6, cr6, cr9, cr5, {3}
     cd0:	6c665f00 	stclvs	15, cr5, [r6], #-0
     cd4:	00736761 	rsbseq	r6, r3, r1, ror #14
     cd8:	5f647570 	svcpl	0x00647570
     cdc:	706d6f63 	rsbvc	r6, sp, r3, ror #30
     ce0:	735f7461 	cmpvc	pc, #1627389952	; 0x61000000
     ce4:	69747465 	ldmdbvs	r4!, {r0, r2, r5, r6, sl, ip, sp, lr}^
     ce8:	7200676e 	andvc	r6, r0, #28835840	; 0x1b80000
     cec:	00667562 	rsbeq	r7, r6, r2, ror #10
     cf0:	326d6362 	rsbcc	r6, sp, #-2013265919	; 0x88000001
     cf4:	5f353338 	svcpl	0x00353338
     cf8:	6f697067 	svcvs	0x00697067
     cfc:	6475705f 	ldrbtvs	r7, [r5], #-95	; 0xffffffa1
     d00:	6d636200 	sfmvs	f6, 2, [r3, #-0]
     d04:	35333832 	ldrcc	r3, [r3, #-2098]!	; 0xfffff7ce
     d08:	6970735f 	ldmdbvs	r0!, {r0, r1, r2, r3, r4, r6, r8, r9, ip, sp, lr}^
     d0c:	7465735f 	strbtvc	r7, [r5], #-863	; 0xfffffca1
     d10:	6570735f 	ldrbvs	r7, [r0, #-863]!	; 0xfffffca1
     d14:	685f6465 	ldmdavs	pc, {r0, r2, r5, r6, sl, sp, lr}^	; <UNPREDICTABLE>
     d18:	6362007a 	cmnvs	r2, #122	; 0x7a
     d1c:	3338326d 	teqcc	r8, #-805306362	; 0xd0000006
     d20:	6d735f35 	ldclvs	15, cr5, [r3, #-212]!	; 0xffffff2c
     d24:	65735f69 	ldrbvs	r5, [r3, #-3945]!	; 0xfffff097
     d28:	69745f74 	ldmdbvs	r4!, {r2, r4, r5, r6, r8, r9, sl, fp, ip, lr}^
     d2c:	676e696d 	strbvs	r6, [lr, -sp, ror #18]!
     d30:	6d636200 	sfmvs	f6, 2, [r3, #-0]
     d34:	35333832 	ldrcc	r3, [r3, #-2098]!	; 0xfffff7ce
     d38:	696d735f 	stmdbvs	sp!, {r0, r1, r2, r3, r4, r6, r8, r9, ip, sp, lr}^
     d3c:	6165725f 	cmnvs	r5, pc, asr r2
     d40:	63620064 	cmnvs	r2, #100	; 0x64
     d44:	3338326d 	teqcc	r8, #-805306362	; 0xd0000006
     d48:	77705f35 			; <UNDEFINED> instruction: 0x77705f35
     d4c:	65735f6d 	ldrbvs	r5, [r3, #-3949]!	; 0xfffff093
     d50:	6c635f74 	stclvs	15, cr5, [r3], #-464	; 0xfffffe30
     d54:	006b636f 	rsbeq	r6, fp, pc, ror #6
     d58:	326d6362 	rsbcc	r6, sp, #-2013265919	; 0x88000001
     d5c:	5f353338 	svcpl	0x00353338
     d60:	5f697073 	svcpl	0x00697073
     d64:	6e617274 	mcrvs	2, 3, r7, cr1, cr4, {3}
     d68:	72656673 	rsbvc	r6, r5, #120586240	; 0x7300000
     d6c:	6362006e 	cmnvs	r2, #110	; 0x6e
     d70:	3338326d 	teqcc	r8, #-805306362	; 0xd0000006
     d74:	75615f35 	strbvc	r5, [r1, #-3893]!	; 0xfffff0cb
     d78:	63620078 	cmnvs	r2, #120	; 0x78
     d7c:	3338326d 	teqcc	r8, #-805306362	; 0xd0000006
     d80:	65705f35 	ldrbvs	r5, [r0, #-3893]!	; 0xfffff0cb
     d84:	775f6972 			; <UNDEFINED> instruction: 0x775f6972
     d88:	65746972 	ldrbvs	r6, [r4, #-2418]!	; 0xfffff68e
     d8c:	6d636200 	sfmvs	f6, 2, [r3, #-0]
     d90:	35333832 	ldrcc	r3, [r3, #-2098]!	; 0xfffff7ce
     d94:	6970735f 	ldmdbvs	r0!, {r0, r1, r2, r3, r4, r6, r8, r9, ip, sp, lr}^
     d98:	6972775f 	ldmdbvs	r2!, {r0, r1, r2, r3, r4, r6, r8, r9, sl, ip, sp, lr}^
     d9c:	626e6574 	rsbvs	r6, lr, #116, 10	; 0x1d000000
     da0:	6d636200 	sfmvs	f6, 2, [r3, #-0]
     da4:	35333832 	ldrcc	r3, [r3, #-2098]!	; 0xfffff7ce
     da8:	6970735f 	ldmdbvs	r0!, {r0, r1, r2, r3, r4, r6, r8, r9, ip, sp, lr}^
     dac:	7465735f 	strbtvc	r7, [r5], #-863	; 0xfffffca1
     db0:	61746144 	cmnvs	r4, r4, asr #2
     db4:	65646f4d 	strbvs	r6, [r4, #-3917]!	; 0xfffff0b3
     db8:	68787400 	ldmdavs	r8!, {sl, ip, sp, lr}^
     dbc:	00646c6f 	rsbeq	r6, r4, pc, ror #24
     dc0:	324d4342 	subcc	r4, sp, #134217729	; 0x8000001
     dc4:	5f353338 	svcpl	0x00353338
     dc8:	42474552 	submi	r4, r7, #343932928	; 0x14800000
     dcc:	5f455341 	svcpl	0x00455341
     dd0:	53444150 	movtpl	r4, #16720	; 0x4150
     dd4:	6d636200 	sfmvs	f6, 2, [r3, #-0]
     dd8:	35333832 	ldrcc	r3, [r3, #-2098]!	; 0xfffff7ce
     ddc:	7875615f 	ldmdavc	r5!, {r0, r1, r2, r3, r4, r6, r8, sp, lr}^
     de0:	6970735f 	ldmdbvs	r0!, {r0, r1, r2, r3, r4, r6, r8, r9, ip, sp, lr}^
     de4:	6172745f 	cmnvs	r2, pc, asr r4
     de8:	6566736e 	strbvs	r7, [r6, #-878]!	; 0xfffffc92
     dec:	00626e72 	rsbeq	r6, r2, r2, ror lr
     df0:	5f495052 	svcpl	0x00495052
     df4:	475f3256 			; <UNDEFINED> instruction: 0x475f3256
     df8:	5f4f4950 	svcpl	0x004f4950
     dfc:	305f3150 	subscc	r3, pc, r0, asr r1	; <UNPREDICTABLE>
     e00:	50520033 	subspl	r0, r2, r3, lsr r0
     e04:	32565f49 	subscc	r5, r6, #292	; 0x124
     e08:	4950475f 	ldmdbmi	r0, {r0, r1, r2, r3, r4, r6, r8, r9, sl, lr}^
     e0c:	31505f4f 	cmpcc	r0, pc, asr #30
     e10:	0035305f 	eorseq	r3, r5, pc, asr r0
     e14:	5f495052 	svcpl	0x00495052
     e18:	475f3256 			; <UNDEFINED> instruction: 0x475f3256
     e1c:	5f4f4950 	svcpl	0x004f4950
     e20:	305f3150 	subscc	r3, pc, r0, asr r1	; <UNPREDICTABLE>
     e24:	50520037 	subspl	r0, r2, r7, lsr r0
     e28:	32565f49 	subscc	r5, r6, #292	; 0x124
     e2c:	4950475f 	ldmdbmi	r0, {r0, r1, r2, r3, r4, r6, r8, r9, sl, lr}^
     e30:	31505f4f 	cmpcc	r0, pc, asr #30
     e34:	0038305f 	eorseq	r3, r8, pc, asr r0
     e38:	69766964 	ldmdbvs	r6!, {r2, r5, r6, r8, fp, sp, lr}^
     e3c:	00726f73 	rsbseq	r6, r2, r3, ror pc
     e40:	696d7370 	stmdbvs	sp!, {r4, r5, r6, r8, r9, ip, sp, lr}^
     e44:	75007363 	strvc	r7, [r0, #-867]	; 0xfffffc9d
     e48:	70616d6e 	rsbvc	r6, r1, lr, ror #26
     e4c:	006d656d 	rsbeq	r6, sp, sp, ror #10
     e50:	324d4342 	subcc	r4, sp, #134217729	; 0x8000001
     e54:	5f353338 	svcpl	0x00353338
     e58:	4f495047 	svcmi	0x00495047
     e5c:	4553465f 	ldrbmi	r4, [r3, #-1631]	; 0xfffff9a1
     e60:	414d5f4c 	cmpmi	sp, ip, asr #30
     e64:	62004b53 	andvs	r4, r0, #84992	; 0x14c00
     e68:	38326d63 	ldmdacc	r2!, {r0, r1, r5, r6, r8, sl, fp, sp, lr}
     e6c:	705f3533 	subsvc	r3, pc, r3, lsr r5	; <UNPREDICTABLE>
     e70:	735f6d77 	cmpvc	pc, #7616	; 0x1dc0
     e74:	725f7465 	subsvc	r7, pc, #1694498816	; 0x65000000
     e78:	65676e61 	strbvs	r6, [r7, #-3681]!	; 0xfffff19f
     e7c:	6d697400 	cfstrdvs	mvd7, [r9, #-0]
     e80:	65707365 	ldrbvs	r7, [r0, #-869]!	; 0xfffffc9b
     e84:	63620063 	cmnvs	r2, #99	; 0x63
     e88:	3338326d 	teqcc	r8, #-805306362	; 0xd0000006
     e8c:	75615f35 	strbvc	r5, [r1, #-3893]!	; 0xfffff0cb
     e90:	70735f78 	rsbsvc	r5, r3, r8, ror pc
     e94:	72775f69 	rsbsvc	r5, r7, #420	; 0x1a4
     e98:	00657469 	rsbeq	r7, r5, r9, ror #8
     e9c:	5f495052 	svcpl	0x00495052
     ea0:	475f3256 			; <UNDEFINED> instruction: 0x475f3256
     ea4:	5f4f4950 	svcpl	0x004f4950
     ea8:	305f3550 	subscc	r3, pc, r0, asr r5	; <UNPREDICTABLE>
     eac:	50520033 	subspl	r0, r2, r3, lsr r0
     eb0:	32565f49 	subscc	r5, r6, #292	; 0x124
     eb4:	4950475f 	ldmdbmi	r0, {r0, r1, r2, r3, r4, r6, r8, r9, sl, lr}^
     eb8:	35505f4f 	ldrbcc	r5, [r0, #-3919]	; 0xfffff0b1
     ebc:	0034305f 	eorseq	r3, r4, pc, asr r0
     ec0:	5f495052 	svcpl	0x00495052
     ec4:	475f3256 			; <UNDEFINED> instruction: 0x475f3256
     ec8:	5f4f4950 	svcpl	0x004f4950
     ecc:	305f3550 	subscc	r3, pc, r0, asr r5	; <UNPREDICTABLE>
     ed0:	50520035 	subspl	r0, r2, r5, lsr r0
     ed4:	32565f49 	subscc	r5, r6, #292	; 0x124
     ed8:	4950475f 	ldmdbmi	r0, {r0, r1, r2, r3, r4, r6, r8, r9, sl, lr}^
     edc:	35505f4f 	ldrbcc	r5, [r0, #-3919]	; 0xfffff0b1
     ee0:	0036305f 	eorseq	r3, r6, pc, asr r0
     ee4:	326d6362 	rsbcc	r6, sp, #-2013265919	; 0x88000001
     ee8:	5f353338 	svcpl	0x00353338
     eec:	5f633269 	svcpl	0x00633269
     ef0:	64616572 	strbtvs	r6, [r1], #-1394	; 0xfffffa8e
     ef4:	49505200 	ldmdbmi	r0, {r9, ip, lr}^
     ef8:	5f32565f 	svcpl	0x0032565f
     efc:	4f495047 	svcmi	0x00495047
     f00:	5f31505f 	svcpl	0x0031505f
     f04:	52003031 	andpl	r3, r0, #49	; 0x31
     f08:	565f4950 			; <UNDEFINED> instruction: 0x565f4950
     f0c:	50475f32 	subpl	r5, r7, r2, lsr pc
     f10:	505f4f49 	subspl	r4, pc, r9, asr #30
     f14:	31315f31 	teqcc	r1, r1, lsr pc
     f18:	74706f00 	ldrbtvc	r6, [r0], #-3840	; 0xfffff100
     f1c:	0074706f 	rsbseq	r7, r4, pc, rrx
     f20:	5f495052 	svcpl	0x00495052
     f24:	475f3256 			; <UNDEFINED> instruction: 0x475f3256
     f28:	5f4f4950 	svcpl	0x004f4950
     f2c:	315f3150 	cmpcc	pc, r0, asr r1	; <UNPREDICTABLE>
     f30:	50520033 	subspl	r0, r2, r3, lsr r0
     f34:	32565f49 	subscc	r5, r6, #292	; 0x124
     f38:	4950475f 	ldmdbmi	r0, {r0, r1, r2, r3, r4, r6, r8, r9, sl, lr}^
     f3c:	31505f4f 	cmpcc	r0, pc, asr #30
     f40:	0035315f 	eorseq	r3, r5, pc, asr r1
     f44:	5f495052 	svcpl	0x00495052
     f48:	475f3256 			; <UNDEFINED> instruction: 0x475f3256
     f4c:	5f4f4950 	svcpl	0x004f4950
     f50:	315f3150 	cmpcc	pc, r0, asr r1	; <UNPREDICTABLE>
     f54:	50520036 	subspl	r0, r2, r6, lsr r0
     f58:	32565f49 	subscc	r5, r6, #292	; 0x124
     f5c:	4950475f 	ldmdbmi	r0, {r0, r1, r2, r3, r4, r6, r8, r9, sl, lr}^
     f60:	31505f4f 	cmpcc	r0, pc, asr #30
     f64:	0038315f 	eorseq	r3, r8, pc, asr r1
     f68:	5f495052 	svcpl	0x00495052
     f6c:	475f3256 			; <UNDEFINED> instruction: 0x475f3256
     f70:	5f4f4950 	svcpl	0x004f4950
     f74:	315f3150 	cmpcc	pc, r0, asr r1	; <UNPREDICTABLE>
     f78:	6f6c0039 	svcvs	0x006c0039
     f7c:	6c20676e 	stcvs	7, cr6, [r0], #-440	; 0xfffffe48
     f80:	20676e6f 	rsbcs	r6, r7, pc, ror #28
     f84:	69736e75 	ldmdbvs	r3!, {r0, r2, r4, r5, r6, r9, sl, fp, sp, lr}^
     f88:	64656e67 	strbtvs	r6, [r5], #-3687	; 0xfffff199
     f8c:	746e6920 	strbtvc	r6, [lr], #-2336	; 0xfffff6e0
     f90:	6d636200 	sfmvs	f6, 2, [r3, #-0]
     f94:	35333832 	ldrcc	r3, [r3, #-2098]!	; 0xfffff7ce
     f98:	6970675f 	ldmdbvs	r0!, {r0, r1, r2, r3, r4, r6, r8, r9, sl, sp, lr}^
     f9c:	65735f6f 	ldrbvs	r5, [r3, #-3951]!	; 0xfffff091
     fa0:	63620074 	cmnvs	r2, #116	; 0x74
     fa4:	3338326d 	teqcc	r8, #-805306362	; 0xd0000006
     fa8:	70675f35 	rsbvc	r5, r7, r5, lsr pc
     fac:	635f6f69 	cmpvs	pc, #420	; 0x1a4
     fb0:	4200726c 	andmi	r7, r0, #108, 4	; 0xc0000006
     fb4:	38324d43 	ldmdacc	r2!, {r0, r1, r6, r8, sl, fp, lr}
     fb8:	525f3533 	subspl	r3, pc, #213909504	; 0xcc00000
     fbc:	41424745 	cmpmi	r2, r5, asr #14
     fc0:	415f4553 	cmpmi	pc, r3, asr r5	; <UNPREDICTABLE>
     fc4:	62005855 	andvs	r5, r0, #5570560	; 0x550000
     fc8:	38326d63 	ldmdacc	r2!, {r0, r1, r5, r6, r8, sl, fp, sp, lr}
     fcc:	735f3533 	cmpvc	pc, #213909504	; 0xcc00000
     fd0:	625f6970 	subsvs	r6, pc, #112, 18	; 0x1c0000
     fd4:	6f5f7469 	svcvs	0x005f7469
     fd8:	72656472 	rsbvc	r6, r5, #1912602624	; 0x72000000
     fdc:	6f5f5f00 	svcvs	0x005f5f00
     fe0:	745f6666 	ldrbvc	r6, [pc], #-1638	; fe8 <PCA9685::SetPreScaller(unsigned char)+0xa8>
     fe4:	64617000 	strbtvs	r7, [r1], #-0
     fe8:	42007264 	andmi	r7, r0, #100, 4	; 0x40000006
     fec:	38324d43 	ldmdacc	r2!, {r0, r1, r6, r8, sl, fp, lr}
     ff0:	495f3533 	ldmdbmi	pc, {r0, r1, r4, r5, r8, sl, ip, sp}^	; <UNPREDICTABLE>
     ff4:	525f4332 	subspl	r4, pc, #-939524096	; 0xc8000000
     ff8:	4f534145 	svcmi	0x00534145
     ffc:	52455f4e 	subpl	r5, r5, #312	; 0x138
    1000:	5f524f52 	svcpl	0x00524f52
    1004:	544b4c43 	strbpl	r4, [fp], #-3139	; 0xfffff3bd
    1008:	656c6400 	strbvs	r6, [ip, #-1024]!	; 0xfffffc00
    100c:	5052006e 	subspl	r0, r2, lr, rrx
    1010:	32565f49 	subscc	r5, r6, #292	; 0x124
    1014:	4950475f 	ldmdbmi	r0, {r0, r1, r2, r3, r4, r6, r8, r9, sl, lr}^
    1018:	31505f4f 	cmpcc	r0, pc, asr #30
    101c:	0031325f 	eorseq	r3, r1, pc, asr r2
    1020:	326d6362 	rsbcc	r6, sp, #-2013265919	; 0x88000001
    1024:	5f353338 	svcpl	0x00353338
    1028:	006d7770 	rsbeq	r7, sp, r0, ror r7
    102c:	5f495052 	svcpl	0x00495052
    1030:	475f3256 			; <UNDEFINED> instruction: 0x475f3256
    1034:	5f4f4950 	svcpl	0x004f4950
    1038:	325f3150 	subscc	r3, pc, #80, 2
    103c:	50520033 	subspl	r0, r2, r3, lsr r0
    1040:	32565f49 	subscc	r5, r6, #292	; 0x124
    1044:	4950475f 	ldmdbmi	r0, {r0, r1, r2, r3, r4, r6, r8, r9, sl, lr}^
    1048:	31505f4f 	cmpcc	r0, pc, asr #30
    104c:	0034325f 	eorseq	r3, r4, pc, asr r2
    1050:	326d6362 	rsbcc	r6, sp, #-2013265919	; 0x88000001
    1054:	5f353338 	svcpl	0x00353338
    1058:	69726570 	ldmdbvs	r2!, {r4, r5, r6, r8, sl, sp, lr}^
    105c:	6165725f 	cmnvs	r5, pc, asr r2
    1060:	626e5f64 	rsbvs	r5, lr, #100, 30	; 0x190
    1064:	49505200 	ldmdbmi	r0, {r9, ip, lr}^
    1068:	5f32565f 	svcpl	0x0032565f
    106c:	4f495047 	svcmi	0x00495047
    1070:	5f31505f 	svcpl	0x0031505f
    1074:	52003632 	andpl	r3, r0, #52428800	; 0x3200000
    1078:	565f4950 			; <UNDEFINED> instruction: 0x565f4950
    107c:	50475f32 	subpl	r5, r7, r2, lsr pc
    1080:	505f4f49 	subspl	r4, pc, r9, asr #30
    1084:	39325f31 	ldmdbcc	r2!, {r0, r4, r5, r8, r9, sl, fp, ip, lr}
    1088:	6c6f6800 	stclvs	8, cr6, [pc], #-0	; 1090 <PCA9685::GetPreScaller()+0x28>
    108c:	63796364 	cmnvs	r9, #100, 6	; 0x90000001
    1090:	0073656c 	rsbseq	r6, r3, ip, ror #10
    1094:	76696463 	strbtvc	r6, [r9], -r3, ror #8
    1098:	61657200 	cmnvs	r5, r0, lsl #4
    109c:	006e6f73 	rsbeq	r6, lr, r3, ror pc
    10a0:	6574706f 	ldrbvs	r7, [r4, #-111]!	; 0xffffff91
    10a4:	62007272 	andvs	r7, r0, #536870919	; 0x20000007
    10a8:	38326d63 	ldmdacc	r2!, {r0, r1, r5, r6, r8, sl, fp, sp, lr}
    10ac:	635f3533 	cmpvs	pc, #213909504	; 0xcc00000
    10b0:	62006b6c 	andvs	r6, r0, #108, 22	; 0x1b000
    10b4:	38326d63 	ldmdacc	r2!, {r0, r1, r5, r6, r8, sl, fp, sp, lr}
    10b8:	675f3533 	smmlarvs	pc, r3, r5, r3	; <UNPREDICTABLE>
    10bc:	5f6f6970 	svcpl	0x006f6970
    10c0:	5f746573 	svcpl	0x00746573
    10c4:	00647570 	rsbeq	r7, r4, r0, ror r5
    10c8:	69745f5f 	ldmdbvs	r4!, {r0, r1, r2, r3, r4, r6, r8, r9, sl, fp, ip, lr}^
    10cc:	745f656d 	ldrbvc	r6, [pc], #-1389	; 10d4 <PCA9685::SetFrequency(unsigned short)+0x14>
    10d0:	4d434200 	sfmmi	f4, 2, [r3, #-0]
    10d4:	35333832 	ldrcc	r3, [r3, #-2098]!	; 0xfffff7ce
    10d8:	4950475f 	ldmdbmi	r0, {r0, r1, r2, r3, r4, r6, r8, r9, sl, lr}^
    10dc:	53465f4f 	movtpl	r5, #28495	; 0x6f4f
    10e0:	4f5f4c45 	svcmi	0x005f4c45
    10e4:	00505455 	subseq	r5, r0, r5, asr r4
    10e8:	326d6362 	rsbcc	r6, sp, #-2013265919	; 0x88000001
    10ec:	5f353338 	svcpl	0x00353338
    10f0:	6f697067 	svcvs	0x00697067
    10f4:	726c635f 	rsbvc	r6, ip, #2080374785	; 0x7c000001
    10f8:	6e65685f 	mcrvs	8, 3, r6, cr5, cr15, {2}
    10fc:	6d636200 	sfmvs	f6, 2, [r3, #-0]
    1100:	35333832 	ldrcc	r3, [r3, #-2098]!	; 0xfffff7ce
    1104:	696d735f 	stmdbvs	sp!, {r0, r1, r2, r3, r4, r6, r8, r9, ip, sp, lr}^
    1108:	646e655f 	strbtvs	r6, [lr], #-1375	; 0xfffffaa1
    110c:	49505200 	ldmdbmi	r0, {r9, ip, lr}^
    1110:	5f32565f 	svcpl	0x0032565f
    1114:	4f495047 	svcmi	0x00495047
    1118:	5f31505f 	svcpl	0x0031505f
    111c:	52003133 	andpl	r3, r0, #-1073741812	; 0xc000000c
    1120:	565f4950 			; <UNDEFINED> instruction: 0x565f4950
    1124:	50475f32 	subpl	r5, r7, r2, lsr pc
    1128:	505f4f49 	subspl	r4, pc, r9, asr #30
    112c:	32335f31 	eorscc	r5, r3, #49, 30	; 0xc4
    1130:	49505200 	ldmdbmi	r0, {r9, ip, lr}^
    1134:	5f32565f 	svcpl	0x0032565f
    1138:	4f495047 	svcmi	0x00495047
    113c:	5f31505f 	svcpl	0x0031505f
    1140:	52003333 	andpl	r3, r0, #-872415232	; 0xcc000000
    1144:	565f4950 			; <UNDEFINED> instruction: 0x565f4950
    1148:	50475f32 	subpl	r5, r7, r2, lsr pc
    114c:	505f4f49 	subspl	r4, pc, r9, asr #30
    1150:	35335f31 	ldrcc	r5, [r3, #-3889]!	; 0xfffff0cf
    1154:	4f495f00 	svcmi	0x00495f00
    1158:	6361625f 	cmnvs	r1, #-268435451	; 0xf0000005
    115c:	5f70756b 	svcpl	0x0070756b
    1160:	65736162 	ldrbvs	r6, [r3, #-354]!	; 0xfffffe9e
    1164:	49505200 	ldmdbmi	r0, {r9, ip, lr}^
    1168:	5f32565f 	svcpl	0x0032565f
    116c:	4f495047 	svcmi	0x00495047
    1170:	5f31505f 	svcpl	0x0031505f
    1174:	5f003733 	svcpl	0x00003733
    1178:	726f6873 	rsbvc	r6, pc, #7536640	; 0x730000
    117c:	66756274 			; <UNDEFINED> instruction: 0x66756274
    1180:	4f495f00 	svcmi	0x00495f00
    1184:	315f325f 	cmpcc	pc, pc, asr r2	; <UNPREDICTABLE>
    1188:	6474735f 	ldrbtvs	r7, [r4], #-863	; 0xfffffca1
    118c:	5f74756f 	svcpl	0x0074756f
    1190:	6d636200 	sfmvs	f6, 2, [r3, #-0]
    1194:	35333832 	ldrcc	r3, [r3, #-2098]!	; 0xfffff7ce
    1198:	6970675f 	ldmdbvs	r0!, {r0, r1, r2, r3, r4, r6, r8, r9, sl, sp, lr}^
    119c:	65735f6f 	ldrbvs	r5, [r3, #-3951]!	; 0xfffff091
    11a0:	756d5f74 	strbvc	r5, [sp, #-3956]!	; 0xfffff08c
    11a4:	0069746c 	rsbeq	r7, r9, ip, ror #8
    11a8:	64616572 	strbtvs	r6, [r1], #-1394	; 0xfffffa8e
    11ac:	6e616863 	cdpvs	8, 6, cr6, cr1, cr3, {3}
    11b0:	006c656e 	rsbeq	r6, ip, lr, ror #10
    11b4:	324d4342 	subcc	r4, sp, #134217729	; 0x8000001
    11b8:	5f353338 	svcpl	0x00353338
    11bc:	5f495053 	svcpl	0x00495053
    11c0:	5f544942 	svcpl	0x00544942
    11c4:	4544524f 	strbmi	r5, [r4, #-591]	; 0xfffffdb1
    11c8:	534d5f52 	movtpl	r5, #57170	; 0xdf52
    11cc:	52494642 	subpl	r4, r9, #69206016	; 0x4200000
    11d0:	5f005453 	svcpl	0x00005453
    11d4:	7478656e 	ldrbtvc	r6, [r8], #-1390	; 0xfffffa92
    11d8:	6d636200 	sfmvs	f6, 2, [r3, #-0]
    11dc:	35333832 	ldrcc	r3, [r3, #-2098]!	; 0xfffff7ce
    11e0:	7265705f 	rsbvc	r7, r5, #95	; 0x5f
    11e4:	65725f69 	ldrbvs	r5, [r2, #-3945]!	; 0xfffff097
    11e8:	5f006461 	svcpl	0x00006461
    11ec:	66666f5f 	uqsaxvs	r6, r6, pc	; <UNPREDICTABLE>
    11f0:	745f3436 	ldrbvc	r3, [pc], #-1078	; 11f8 <PCA9685::SetFrequency(unsigned short)+0x138>
    11f4:	6d636200 	sfmvs	f6, 2, [r3, #-0]
    11f8:	35333832 	ldrcc	r3, [r3, #-2098]!	; 0xfffff7ce
    11fc:	7875615f 	ldmdavc	r5!, {r0, r1, r2, r3, r4, r6, r8, sp, lr}^
    1200:	6970735f 	ldmdbvs	r0!, {r0, r1, r2, r3, r4, r6, r8, r9, ip, sp, lr}^
    1204:	6972775f 	ldmdbvs	r2!, {r0, r1, r2, r3, r4, r6, r8, r9, sl, ip, sp, lr}^
    1208:	626e6574 	rsbvs	r6, lr, #116, 10	; 0x1d000000
    120c:	696d7300 	stmdbvs	sp!, {r8, r9, ip, sp, lr}^
    1210:	6e616863 	cdpvs	8, 6, cr6, cr1, cr3, {3}
    1214:	006c656e 	rsbeq	r6, ip, lr, ror #10
    1218:	65706f66 	ldrbvs	r6, [r0, #-3942]!	; 0xfffff09a
    121c:	4342006e 	movtmi	r0, #8302	; 0x206e
    1220:	3338324d 	teqcc	r8, #-805306364	; 0xd0000004
    1224:	32495f35 	subcc	r5, r9, #53, 30	; 0xd4
    1228:	45525f43 	ldrbmi	r5, [r2, #-3907]	; 0xfffff0bd
    122c:	4e4f5341 	cdpmi	3, 4, cr5, cr15, cr1, {2}
    1230:	5252455f 	subspl	r4, r2, #398458880	; 0x17c00000
    1234:	4e5f524f 	cdpmi	2, 5, cr5, cr15, cr15, {2}
    1238:	004b4341 	subeq	r4, fp, r1, asr #6
    123c:	5f495052 	svcpl	0x00495052
    1240:	475f3256 			; <UNDEFINED> instruction: 0x475f3256
    1244:	5f4f4950 	svcpl	0x004f4950
    1248:	345f3150 	ldrbcc	r3, [pc], #-336	; 1250 <PCA9685::GetFrequency()+0x28>
    124c:	43420030 	movtmi	r0, #8240	; 0x2030
    1250:	3338324d 	teqcc	r8, #-805306364	; 0xd0000004
    1254:	45525f35 	ldrbmi	r5, [r2, #-3893]	; 0xfffff0cb
    1258:	53414247 	movtpl	r4, #4679	; 0x1247
    125c:	57505f45 	ldrbpl	r5, [r0, -r5, asr #30]
    1260:	6572004d 	ldrbvs	r0, [r2, #-77]!	; 0xffffffb3
    1264:	64646167 	strbtvs	r6, [r4], #-359	; 0xfffffe99
    1268:	495f0072 	ldmdbmi	pc, {r1, r4, r5, r6}^	; <UNPREDICTABLE>
    126c:	75625f4f 	strbvc	r5, [r2, #-3919]!	; 0xfffff0b1
    1270:	6e655f66 	cdpvs	15, 6, cr5, cr5, cr6, {3}
    1274:	43420064 	movtmi	r0, #8292	; 0x2064
    1278:	3338324d 	teqcc	r8, #-805306364	; 0xd0000004
    127c:	45525f35 	ldrbmi	r5, [r2, #-3893]	; 0xfffff0cb
    1280:	53414247 	movtpl	r4, #4679	; 0x1247
    1284:	4c435f45 	mcrrmi	15, 4, r5, r3, cr5
    1288:	7066004b 	rsbvc	r0, r6, fp, asr #32
    128c:	746e6972 	strbtvc	r6, [lr], #-2418	; 0xfffff68e
    1290:	79620066 	stmdbvc	r2!, {r1, r2, r5, r6}^
    1294:	62006574 	andvs	r6, r0, #116, 10	; 0x1d000000
    1298:	38326d63 	ldmdacc	r2!, {r0, r1, r5, r6, r8, sl, fp, sp, lr}
    129c:	675f3533 	smmlarvs	pc, r3, r5, r3	; <UNPREDICTABLE>
    12a0:	5f6f6970 	svcpl	0x006f6970
    12a4:	5f746567 	svcpl	0x00746567
    12a8:	00647570 	rsbeq	r7, r4, r0, ror r5
    12ac:	6c6c7570 	cfstr64vs	mvdx7, [ip], #-448	; 0xfffffe40
    12b0:	6d636200 	sfmvs	f6, 2, [r3, #-0]
    12b4:	35333832 	ldrcc	r3, [r3, #-2098]!	; 0xfffff7ce
    12b8:	6970735f 	ldmdbvs	r0!, {r0, r1, r2, r3, r4, r6, r8, r9, ip, sp, lr}^
    12bc:	6765625f 			; <UNDEFINED> instruction: 0x6765625f
    12c0:	73006e69 	movwvc	r6, #3689	; 0xe69
    12c4:	72656474 	rsbvc	r6, r5, #116, 8	; 0x74000000
    12c8:	68730072 	ldmdavs	r3!, {r1, r4, r5, r6}^
    12cc:	2074726f 	rsbscs	r7, r4, pc, ror #4
    12d0:	00746e69 	rsbseq	r6, r4, r9, ror #28
    12d4:	6e5f7674 	mrcvs	6, 2, r7, cr15, cr4, {3}
    12d8:	00636573 	rsbeq	r6, r3, r3, ror r5
    12dc:	324d4342 	subcc	r4, sp, #134217729	; 0x8000001
    12e0:	5f353338 	svcpl	0x00353338
    12e4:	4f495047 	svcmi	0x00495047
    12e8:	4553465f 	ldrbmi	r4, [r3, #-1631]	; 0xfffff9a1
    12ec:	4c415f4c 	mcrrmi	15, 4, r5, r1, cr12
    12f0:	42003354 	andmi	r3, r0, #84, 6	; 0x50000001
    12f4:	38324d43 	ldmdacc	r2!, {r0, r1, r6, r8, sl, fp, lr}
    12f8:	475f3533 	smmlarmi	pc, r3, r5, r3	; <UNPREDICTABLE>
    12fc:	5f4f4950 	svcpl	0x004f4950
    1300:	4c455346 	mcrrmi	3, 4, r5, r5, cr6
    1304:	544c415f 	strbpl	r4, [ip], #-351	; 0xfffffea1
    1308:	43420030 	movtmi	r0, #8240	; 0x2030
    130c:	3338324d 	teqcc	r8, #-805306364	; 0xd0000004
    1310:	50475f35 	subpl	r5, r7, r5, lsr pc
    1314:	465f4f49 	ldrbmi	r4, [pc], -r9, asr #30
    1318:	5f4c4553 	svcpl	0x004c4553
    131c:	31544c41 	cmpcc	r4, r1, asr #24
    1320:	4d434200 	sfmmi	f4, 2, [r3, #-0]
    1324:	35333832 	ldrcc	r3, [r3, #-2098]!	; 0xfffff7ce
    1328:	4950475f 	ldmdbmi	r0, {r0, r1, r2, r3, r4, r6, r8, r9, sl, lr}^
    132c:	53465f4f 	movtpl	r5, #28495	; 0x6f4f
    1330:	415f4c45 	cmpmi	pc, r5, asr #24
    1334:	0032544c 	eorseq	r5, r2, ip, asr #8
    1338:	6174765f 	cmnvs	r4, pc, asr r6
    133c:	5f656c62 	svcpl	0x00656c62
    1340:	7366666f 	cmnvc	r6, #116391936	; 0x6f00000
    1344:	42007465 	andmi	r7, r0, #1694498816	; 0x65000000
    1348:	38324d43 	ldmdacc	r2!, {r0, r1, r6, r8, sl, fp, lr}
    134c:	475f3533 	smmlarmi	pc, r3, r5, r3	; <UNPREDICTABLE>
    1350:	5f4f4950 	svcpl	0x004f4950
    1354:	4c455346 	mcrrmi	3, 4, r5, r5, cr6
    1358:	544c415f 	strbpl	r4, [ip], #-351	; 0xfffffea1
    135c:	43420034 	movtmi	r0, #8244	; 0x2034
    1360:	3338324d 	teqcc	r8, #-805306364	; 0xd0000004
    1364:	50475f35 	subpl	r5, r7, r5, lsr pc
    1368:	465f4f49 	ldrbmi	r4, [pc], -r9, asr #30
    136c:	5f4c4553 	svcpl	0x004c4553
    1370:	35544c41 	ldrbcc	r4, [r4, #-3137]	; 0xfffff3bf
    1374:	4d434200 	sfmmi	f4, 2, [r3, #-0]
    1378:	35333832 	ldrcc	r3, [r3, #-2098]!	; 0xfffff7ce
    137c:	4950475f 	ldmdbmi	r0, {r0, r1, r2, r3, r4, r6, r8, r9, sl, lr}^
    1380:	55505f4f 	ldrbpl	r5, [r0, #-3919]	; 0xfffff0b1
    1384:	4f445f44 	svcmi	0x00445f44
    1388:	62004e57 	andvs	r4, r0, #1392	; 0x570
    138c:	38326d63 	ldmdacc	r2!, {r0, r1, r5, r6, r8, sl, fp, sp, lr}
    1390:	735f3533 	cmpvc	pc, #213909504	; 0xcc00000
    1394:	745f6970 	ldrbvc	r6, [pc], #-2416	; 139c <PCA9685::GetFrequency()+0x174>
    1398:	736e6172 	cmnvc	lr, #-2147483620	; 0x8000001c
    139c:	6e726566 	cdpvs	5, 7, cr6, cr2, cr6, {3}
    13a0:	666f0062 	strbtvs	r0, [pc], -r2, rrx
    13a4:	74657366 	strbtvc	r7, [r5], #-870	; 0xfffffc9a
    13a8:	63696d5f 	cmnvs	r9, #6080	; 0x17c0
    13ac:	00736f72 	rsbseq	r6, r3, r2, ror pc
    13b0:	31697073 	smccc	38659	; 0x9703
    13b4:	6570735f 	ldrbvs	r7, [r0, #-863]!	; 0xfffffca1
    13b8:	62006465 	andvs	r6, r0, #1694498816	; 0x65000000
    13bc:	38326d63 	ldmdacc	r2!, {r0, r1, r5, r6, r8, sl, fp, sp, lr}
    13c0:	675f3533 	smmlarvs	pc, r3, r5, r3	; <UNPREDICTABLE>
    13c4:	5f6f6970 	svcpl	0x006f6970
    13c8:	00736465 	rsbseq	r6, r3, r5, ror #8
    13cc:	326d6362 	rsbcc	r6, sp, #-2013265919	; 0x88000001
    13d0:	5f353338 	svcpl	0x00353338
    13d4:	65747962 	ldrbvs	r7, [r4, #-2402]!	; 0xfffff69e
    13d8:	7665725f 			; <UNDEFINED> instruction: 0x7665725f
    13dc:	65737265 	ldrbvs	r7, [r3, #-613]!	; 0xfffffd9b
    13e0:	6261745f 	rsbvs	r7, r1, #1593835520	; 0x5f000000
    13e4:	5f00656c 	svcpl	0x0000656c
    13e8:	7961645f 	stmdbvc	r1!, {r0, r1, r2, r3, r4, r6, sl, sp, lr}^
    13ec:	6867696c 	stmdavs	r7!, {r2, r3, r5, r6, r8, fp, sp, lr}^
    13f0:	63620074 	cmnvs	r2, #116	; 0x74
    13f4:	3338326d 	teqcc	r8, #-805306362	; 0xd0000006
    13f8:	65765f35 	ldrbvs	r5, [r6, #-3893]!	; 0xfffff0cb
    13fc:	6f697372 	svcvs	0x00697372
    1400:	6362006e 	cmnvs	r2, #110	; 0x6e
    1404:	3338326d 	teqcc	r8, #-805306362	; 0xd0000006
    1408:	00632e35 	rsbeq	r2, r3, r5, lsr lr
    140c:	326d6362 	rsbcc	r6, sp, #-2013265919	; 0x88000001
    1410:	5f353338 	svcpl	0x00353338
    1414:	6f697067 	svcvs	0x00697067
    1418:	6573665f 	ldrbvs	r6, [r3, #-1631]!	; 0xfffff9a1
    141c:	6362006c 	cmnvs	r2, #108	; 0x6c
    1420:	3338326d 	teqcc	r8, #-805306362	; 0xd0000006
    1424:	70735f35 	rsbsvc	r5, r3, r5, lsr pc
    1428:	72775f69 	rsbsvc	r5, r7, #420	; 0x1a4
    142c:	00657469 	rsbeq	r7, r5, r9, ror #8
    1430:	5f4f495f 	svcpl	0x004f495f
    1434:	64616572 	strbtvs	r6, [r1], #-1394	; 0xfffffa8e
    1438:	646e655f 	strbtvs	r6, [lr], #-1375	; 0xfffffaa1
    143c:	6d737000 	ldclvs	0, cr7, [r3, #-0]
    1440:	74616469 	strbtvc	r6, [r1], #-1129	; 0xfffffb97
    1444:	63620061 	cmnvs	r2, #97	; 0x61
    1448:	3338326d 	teqcc	r8, #-805306362	; 0xd0000006
    144c:	70675f35 	rsbvc	r5, r7, r5, lsr pc
    1450:	635f6f69 	cmpvs	pc, #420	; 0x1a4
    1454:	6d5f726c 	lfmvs	f7, 2, [pc, #-432]	; 12ac <PCA9685::GetFrequency()+0x84>
    1458:	69746c75 	ldmdbvs	r4!, {r0, r2, r4, r5, r6, sl, fp, sp, lr}^
    145c:	6d636200 	sfmvs	f6, 2, [r3, #-0]
    1460:	35333832 	ldrcc	r3, [r3, #-2098]!	; 0xfffff7ce
    1464:	7265705f 	rsbvc	r7, r5, #95	; 0x5f
    1468:	72775f69 	rsbsvc	r5, r7, #420	; 0x1a4
    146c:	5f657469 	svcpl	0x00657469
    1470:	6200626e 	andvs	r6, r0, #-536870906	; 0xe0000006
    1474:	38326d63 	ldmdacc	r2!, {r0, r1, r5, r6, r8, sl, fp, sp, lr}
    1478:	735f3533 	cmpvc	pc, #213909504	; 0xcc00000
    147c:	625f696d 	subsvs	r6, pc, #1785856	; 0x1b4000
    1480:	6e696765 	cdpvs	7, 6, cr6, cr9, cr5, {3}
    1484:	6d636200 	sfmvs	f6, 2, [r3, #-0]
    1488:	35333832 	ldrcc	r3, [r3, #-2098]!	; 0xfffff7ce
    148c:	7265705f 	rsbvc	r7, r5, #95	; 0x5f
    1490:	65687069 	strbvs	r7, [r8, #-105]!	; 0xffffff97
    1494:	736c6172 	cmnvc	ip, #-2147483620	; 0x8000001c
    1498:	7361625f 	cmnvc	r1, #-268435451	; 0xf0000005
    149c:	665f0065 	ldrbvs	r0, [pc], -r5, rrx
    14a0:	6e656c69 	cdpvs	12, 6, cr6, cr5, cr9, {3}
    14a4:	6362006f 	cmnvs	r2, #111	; 0x6f
    14a8:	3338326d 	teqcc	r8, #-805306362	; 0xd0000006
    14ac:	32695f35 	rsbcc	r5, r9, #53, 30	; 0xd4
    14b0:	65735f63 	ldrbvs	r5, [r3, #-3939]!	; 0xfffff09d
    14b4:	61625f74 	smcvs	9716	; 0x25f4
    14b8:	61726475 	cmnvs	r2, r5, ror r4
    14bc:	62006574 	andvs	r6, r0, #116, 10	; 0x1d000000
    14c0:	38326d63 	ldmdacc	r2!, {r0, r1, r5, r6, r8, sl, fp, sp, lr}
    14c4:	735f3533 	cmpvc	pc, #213909504	; 0xcc00000
    14c8:	655f6970 	ldrbvs	r6, [pc, #-2416]	; b60 <PCA9685Servo::SetCenterUs(unsigned short)+0x10>
    14cc:	6f00646e 	svcvs	0x0000646e
    14d0:	72617470 	rsbvc	r7, r1, #112, 8	; 0x70000000
    14d4:	5f5f0067 	svcpl	0x005f0067
    14d8:	616c666f 	cmnvs	ip, pc, ror #12
    14dc:	75620067 	strbvc	r0, [r2, #-103]!	; 0xffffff99
    14e0:	656c5f66 	strbvs	r5, [ip, #-3942]!	; 0xfffff09a
    14e4:	6873006e 	ldmdavs	r3!, {r1, r2, r3, r5, r6}^
    14e8:	2074726f 	rsbscs	r7, r4, pc, ror #4
    14ec:	69736e75 	ldmdbvs	r3!, {r0, r2, r4, r5, r6, r9, sl, fp, sp, lr}^
    14f0:	64656e67 	strbtvs	r6, [r5], #-3687	; 0xfffff199
    14f4:	746e6920 	strbtvc	r6, [lr], #-2336	; 0xfffff6e0
    14f8:	64747300 	ldrbtvs	r7, [r4], #-768	; 0xfffffd00
    14fc:	0074756f 	rsbseq	r7, r4, pc, ror #10
    1500:	326d6362 	rsbcc	r6, sp, #-2013265919	; 0x88000001
    1504:	5f353338 	svcpl	0x00353338
    1508:	6f697067 	svcvs	0x00697067
    150c:	6475705f 	ldrbtvs	r7, [r5], #-95	; 0xffffffa1
    1510:	006b6c63 	rsbeq	r6, fp, r3, ror #24
    1514:	326d6362 	rsbcc	r6, sp, #-2013265919	; 0x88000001
    1518:	5f353338 	svcpl	0x00353338
    151c:	6f697067 	svcvs	0x00697067
    1520:	6566615f 	strbvs	r6, [r6, #-351]!	; 0xfffffea1
    1524:	7266006e 	rsbvc	r0, r6, #110	; 0x6e
    1528:	00646165 	rsbeq	r6, r4, r5, ror #2
    152c:	324d4342 	subcc	r4, sp, #134217729	; 0x8000001
    1530:	5f353338 	svcpl	0x00353338
    1534:	42474552 	submi	r4, r7, #343932928	; 0x14800000
    1538:	5f455341 	svcpl	0x00455341
    153c:	5f005453 	svcpl	0x00005453
    1540:	775f4f49 	ldrbvc	r4, [pc, -r9, asr #30]
    1544:	65746972 	ldrbvs	r6, [r4, #-2418]!	; 0xfffff68e
    1548:	7274705f 	rsbsvc	r7, r4, #95	; 0x5f
    154c:	6d636200 	sfmvs	f6, 2, [r3, #-0]
    1550:	35333832 	ldrcc	r3, [r3, #-2098]!	; 0xfffff7ce
    1554:	6970675f 	ldmdbvs	r0!, {r0, r1, r2, r3, r4, r6, r8, r9, sl, sp, lr}^
    1558:	61705f6f 	cmnvs	r0, pc, ror #30
    155c:	63620064 	cmnvs	r2, #100	; 0x64
    1560:	3338326d 	teqcc	r8, #-805306362	; 0xd0000006
    1564:	70675f35 	rsbvc	r5, r7, r5, lsr pc
    1568:	635f6f69 	cmpvs	pc, #420	; 0x1a4
    156c:	615f726c 	cmpvs	pc, ip, ror #4
    1570:	006e6566 	rsbeq	r6, lr, r6, ror #10
    1574:	74697865 	strbtvc	r7, [r9], #-2149	; 0xfffff79b
    1578:	736f7000 	cmnvc	pc, #0
    157c:	6d5f7869 	ldclvs	8, cr7, [pc, #-420]	; 13e0 <PCA9685::SetOCH(TPCA9685Och)+0x34>
    1580:	6c616d65 	stclvs	13, cr6, [r1], #-404	; 0xfffffe6c
    1584:	006e6769 	rsbeq	r6, lr, r9, ror #14
    1588:	326d6362 	rsbcc	r6, sp, #-2013265919	; 0x88000001
    158c:	5f353338 	svcpl	0x00353338
    1590:	6f697067 	svcvs	0x00697067
    1594:	7465735f 	strbtvc	r7, [r5], #-863	; 0xfffffca1
    1598:	7364655f 	cmnvc	r4, #398458880	; 0x17c00000
    159c:	656c7300 	strbvs	r7, [ip, #-768]!	; 0xfffffd00
    15a0:	72657065 	rsbvc	r7, r5, #101	; 0x65
    15a4:	6d636200 	sfmvs	f6, 2, [r3, #-0]
    15a8:	35333832 	ldrcc	r3, [r3, #-2098]!	; 0xfffff7ce
    15ac:	6970675f 	ldmdbvs	r0!, {r0, r1, r2, r3, r4, r6, r8, r9, sl, sp, lr}^
    15b0:	64655f6f 	strbtvs	r5, [r5], #-3951	; 0xfffff091
    15b4:	756d5f73 	strbvc	r5, [sp, #-3955]!	; 0xfffff08d
    15b8:	0069746c 	rsbeq	r7, r9, ip, ror #8
    15bc:	326d6362 	rsbcc	r6, sp, #-2013265919	; 0x88000001
    15c0:	5f353338 	svcpl	0x00353338
    15c4:	5f696d73 	svcpl	0x00696d73
    15c8:	74697277 	strbtvc	r7, [r9], #-631	; 0xfffffd89
    15cc:	65730065 	ldrbvs	r0, [r3, #-101]!	; 0xffffff9b
    15d0:	63707574 	cmnvs	r0, #116, 10	; 0x1d000000
    15d4:	656c6379 	strbvs	r6, [ip, #-889]!	; 0xfffffc87
    15d8:	76740073 			; <UNDEFINED> instruction: 0x76740073
    15dc:	6365735f 	cmnvs	r5, #2080374785	; 0x7c000001
    15e0:	6d636200 	sfmvs	f6, 2, [r3, #-0]
    15e4:	35333832 	ldrcc	r3, [r3, #-2098]!	; 0xfffff7ce
    15e8:	6765725f 			; <UNDEFINED> instruction: 0x6765725f
    15ec:	65736162 	ldrbvs	r6, [r3, #-354]!	; 0xfffffe9e
    15f0:	6d636200 	sfmvs	f6, 2, [r3, #-0]
    15f4:	35333832 	ldrcc	r3, [r3, #-2098]!	; 0xfffff7ce
    15f8:	696d735f 	stmdbvs	sp!, {r0, r1, r2, r3, r4, r6, r8, r9, ip, sp, lr}^
    15fc:	6d636200 	sfmvs	f6, 2, [r3, #-0]
    1600:	35333832 	ldrcc	r3, [r3, #-2098]!	; 0xfffff7ce
    1604:	6970735f 	ldmdbvs	r0!, {r0, r1, r2, r3, r4, r6, r8, r9, ip, sp, lr}^
    1608:	7465735f 	strbtvc	r7, [r5], #-863	; 0xfffffca1
    160c:	70696843 	rsbvc	r6, r9, r3, asr #16
    1610:	656c6553 	strbvs	r6, [ip, #-1363]!	; 0xfffffaad
    1614:	6f507463 	svcvs	0x00507463
    1618:	6972616c 	ldmdbvs	r2!, {r2, r3, r5, r6, r8, sp, lr}^
    161c:	62007974 	andvs	r7, r0, #116, 18	; 0x1d0000
    1620:	38326d63 	ldmdacc	r2!, {r0, r1, r5, r6, r8, sl, fp, sp, lr}
    1624:	705f3533 	subsvc	r3, pc, r3, lsr r5	; <UNPREDICTABLE>
    1628:	735f6d77 	cmpvc	pc, #7616	; 0x1dc0
    162c:	6d5f7465 	cfldrdvs	mvd7, [pc, #-404]	; 14a0 <PCA9685::SetInvert(bool)>
    1630:	0065646f 	rsbeq	r6, r5, pc, ror #8

Disassembly of section .debug_loc:

00000000 <.debug_loc>:
       0:	00001f82 	andeq	r1, r0, r2, lsl #31
       4:	00001f9a 	muleq	r0, sl, pc	; <UNPREDICTABLE>
       8:	ff090003 			; <UNDEFINED> instruction: 0xff090003
       c:	0020089f 	mlaeq	r0, pc, r8, r0	; <UNPREDICTABLE>
      10:	00201400 	eoreq	r1, r0, r0, lsl #8
      14:	09000300 	stmdbeq	r0, {r8, r9}
      18:	00009fff 	strdeq	r9, [r0], -pc	; <UNPREDICTABLE>
      1c:	00000000 	andeq	r0, r0, r0
      20:	1f820000 	svcne	0x00820000
      24:	20000000 	andcs	r0, r0, r0
      28:	00020000 	andeq	r0, r2, r0
      2c:	20009f30 	andcs	r9, r0, r0, lsr pc
      30:	20080000 	andcs	r0, r8, r0
      34:	00020000 	andeq	r0, r2, r0
      38:	20089f31 	andcs	r9, r8, r1, lsr pc
      3c:	20360000 	eorscs	r0, r6, r0
      40:	00020000 	andeq	r0, r2, r0
      44:	20369f30 	eorscs	r9, r6, r0, lsr pc
      48:	203e0000 	eorscs	r0, lr, r0
      4c:	00020000 	andeq	r0, r2, r0
      50:	203e9f31 	eorscs	r9, lr, r1, lsr pc
      54:	20980000 	addscs	r0, r8, r0
      58:	00020000 	andeq	r0, r2, r0
      5c:	00009f30 	andeq	r9, r0, r0, lsr pc
      60:	00000000 	andeq	r0, r0, r0
      64:	1f500000 	svcne	0x00500000
      68:	1f5c0000 	svcne	0x005c0000
      6c:	00010000 	andeq	r0, r1, r0
      70:	001f5c50 	andseq	r5, pc, r0, asr ip	; <UNPREDICTABLE>
      74:	001f5f00 	andseq	r5, pc, r0, lsl #30
      78:	53000100 	movwpl	r0, #256	; 0x100
      7c:	00001f5f 	andeq	r1, r0, pc, asr pc
      80:	00001f9c 	muleq	r0, ip, pc	; <UNPREDICTABLE>
      84:	08560001 	ldmdaeq	r6, {r0}^
      88:	16000020 	strne	r0, [r0], -r0, lsr #32
      8c:	01000020 	tsteq	r0, r0, lsr #32
      90:	20985600 	addscs	r5, r8, r0, lsl #12
      94:	20f80000 	rscscs	r0, r8, r0
      98:	00010000 	andeq	r0, r1, r0
      9c:	00000056 	andeq	r0, r0, r6, asr r0
      a0:	00000000 	andeq	r0, r0, r0
      a4:	001f6a00 	andseq	r6, pc, r0, lsl #20
      a8:	001f7c00 	andseq	r7, pc, r0, lsl #24
      ac:	53000100 	movwpl	r0, #256	; 0x100
      b0:	00002098 	muleq	r0, r8, r0
      b4:	0000209e 	muleq	r0, lr, r0
      b8:	9e520001 	cdpls	0, 5, cr0, cr2, cr1, {0}
      bc:	f0000020 			; <UNDEFINED> instruction: 0xf0000020
      c0:	01000020 	tsteq	r0, r0, lsr #32
      c4:	20f05300 	rscscs	r5, r0, r0, lsl #6
      c8:	20f80000 	rscscs	r0, r8, r0
      cc:	00050000 	andeq	r0, r5, r0
      d0:	01505403 	cmpeq	r0, r3, lsl #8
	...
      dc:	001f6c00 	andseq	r6, pc, r0, lsl #24
      e0:	001f7c00 	andseq	r7, pc, r0, lsl #24
      e4:	52000100 	andpl	r0, r0, #0, 2
      e8:	00002098 	muleq	r0, r8, r0
      ec:	0000209a 	muleq	r0, sl, r0
      f0:	9a520001 	bls	14800fc <__bss_end__+0x146b090>
      f4:	9e000020 	cdpls	0, 0, cr0, cr0, cr0, {1}
      f8:	23000020 	movwcs	r0, #32
      fc:	48007100 	stmdami	r0, {r8, ip, sp, lr}
     100:	48021530 	stmdami	r2, {r4, r5, r8, sl, ip}
     104:	251c0315 	ldrcs	r0, [ip, #-789]	; 0xfffffceb
     108:	151aff08 	ldrne	pc, [sl, #-3848]	; 0xfffff0f8
     10c:	16212402 	strtne	r2, [r1], -r2, lsl #8
     110:	28293012 	stmdacs	r9!, {r1, r4, ip, sp}
     114:	1c380006 	ldcne	0, cr0, [r8], #-24	; 0xffffffe8
     118:	ffe52f16 			; <UNDEFINED> instruction: 0xffe52f16
     11c:	9f131613 	svcls	0x00131613
     120:	0000209e 	muleq	r0, lr, r0
     124:	000020f2 	strdeq	r2, [r0], -r2	; <UNPREDICTABLE>
     128:	f2520001 	vhadd.s16	d16, d2, d1
     12c:	f8000020 			; <UNDEFINED> instruction: 0xf8000020
     130:	05000020 	streq	r0, [r0, #-32]	; 0xffffffe0
     134:	50200300 	eorpl	r0, r0, r0, lsl #6
     138:	00000001 	andeq	r0, r0, r1
     13c:	00000000 	andeq	r0, r0, r0
     140:	1f540000 	svcne	0x00540000
     144:	1f5c0000 	svcne	0x005c0000
     148:	00010000 	andeq	r0, r1, r0
     14c:	001f5c50 	andseq	r5, pc, r0, asr ip	; <UNPREDICTABLE>
     150:	001f5f00 	andseq	r5, pc, r0, lsl #30
     154:	53000100 	movwpl	r0, #256	; 0x100
     158:	00001f5f 	andeq	r1, r0, pc, asr pc
     15c:	00001f60 	andeq	r1, r0, r0, ror #30
     160:	00560001 	subseq	r0, r6, r1
     164:	00000000 	andeq	r0, r0, r0
     168:	54000000 	strpl	r0, [r0], #-0
     16c:	6000001f 	andvs	r0, r0, pc, lsl r0
     170:	0200001f 	andeq	r0, r0, #31
     174:	009f4000 	addseq	r4, pc, r0
     178:	00000000 	andeq	r0, r0, r0
     17c:	54000000 	strpl	r0, [r0], #-0
     180:	6000001f 	andvs	r0, r0, pc, lsl r0
     184:	0200001f 	andeq	r0, r0, #31
     188:	009f3100 	addseq	r3, pc, r0, lsl #2
     18c:	00000000 	andeq	r0, r0, r0
     190:	54000000 	strpl	r0, [r0], #-0
     194:	5c00001f 	stcpl	0, cr0, [r0], {31}
     198:	0300001f 	movweq	r0, #31
     19c:	9f549100 	svcls	0x00549100
     1a0:	00001f5c 	andeq	r1, r0, ip, asr pc
     1a4:	00001f5f 	andeq	r1, r0, pc, asr pc
     1a8:	5f500001 	svcpl	0x00500001
     1ac:	6000001f 	andvs	r0, r0, pc, lsl r0
     1b0:	0300001f 	movweq	r0, #31
     1b4:	9f549100 	svcls	0x00549100
	...
     1c0:	00001f8e 	andeq	r1, r0, lr, lsl #31
     1c4:	00001f9a 	muleq	r0, sl, pc	; <UNPREDICTABLE>
     1c8:	020c0006 	andeq	r0, ip, #6
     1cc:	9f001010 	svcls	0x00001010
	...
     1d8:	00001f8e 	andeq	r1, r0, lr, lsl #31
     1dc:	00001f9a 	muleq	r0, sl, pc	; <UNPREDICTABLE>
     1e0:	48030006 	stmdami	r3, {r1, r2}
     1e4:	9f000043 	svcls	0x00000043
	...
     1f0:	00002008 	andeq	r2, r0, r8
     1f4:	00002014 	andeq	r2, r0, r4, lsl r0
     1f8:	020c0006 	andeq	r0, ip, #6
     1fc:	9f001010 	svcls	0x00001010
	...
     208:	00002008 	andeq	r2, r0, r8
     20c:	00002014 	andeq	r2, r0, r4, lsl r0
     210:	80030006 	andhi	r0, r3, r6
     214:	9f000043 	svcls	0x00000043
	...
     220:	00002068 	andeq	r2, r0, r8, rrx
     224:	00002078 	andeq	r2, r0, r8, ror r0
     228:	90030006 	andls	r0, r3, r6
     22c:	9f000043 	svcls	0x00000043
	...
     238:	00002068 	andeq	r2, r0, r8, rrx
     23c:	00002078 	andeq	r2, r0, r8, ror r0
     240:	00540001 	subseq	r0, r4, r1
     244:	00000000 	andeq	r0, r0, r0
     248:	88000000 	stmdahi	r0, {}	; <UNPREDICTABLE>
     24c:	98000020 	stmdals	r0, {r5}
     250:	06000020 	streq	r0, [r0], -r0, lsr #32
     254:	43540300 	cmpmi	r4, #0, 6
     258:	009f0000 	addseq	r0, pc, r0
     25c:	00000000 	andeq	r0, r0, r0
     260:	88000000 	stmdahi	r0, {}	; <UNPREDICTABLE>
     264:	98000020 	stmdals	r0, {r5}
     268:	01000020 	tsteq	r0, r0, lsr #32
     26c:	00005400 	andeq	r5, r0, r0, lsl #8
     270:	00000000 	andeq	r0, r0, r0
     274:	1e5c0000 	cdpne	0, 5, cr0, cr12, cr0, {0}
     278:	1e710000 	cdpne	0, 7, cr0, cr1, cr0, {0}
     27c:	00010000 	andeq	r0, r1, r0
     280:	001e7150 	andseq	r7, lr, r0, asr r1
     284:	001ea800 	andseq	sl, lr, r0, lsl #16
     288:	56000100 	strpl	r0, [r0], -r0, lsl #2
	...
     294:	00001e00 	andeq	r1, r0, r0, lsl #28
     298:	00001e3a 	andeq	r1, r0, sl, lsr lr
     29c:	3a500001 	bcc	14002a8 <__bss_end__+0x13eb23c>
     2a0:	4200001e 	andmi	r0, r0, #30
     2a4:	0400001e 	streq	r0, [r0], #-30	; 0xffffffe2
     2a8:	5001f300 	andpl	pc, r1, r0, lsl #6
     2ac:	001e429f 	mulseq	lr, pc, r2	; <UNPREDICTABLE>
     2b0:	001e4600 	andseq	r4, lr, r0, lsl #12
     2b4:	50000100 	andpl	r0, r0, r0, lsl #2
     2b8:	00001e46 	andeq	r1, r0, r6, asr #28
     2bc:	00001e5c 	andeq	r1, r0, ip, asr lr
     2c0:	01f30004 	mvnseq	r0, r4
     2c4:	00009f50 	andeq	r9, r0, r0, asr pc
     2c8:	00000000 	andeq	r0, r0, r0
     2cc:	1e000000 	cdpne	0, 0, cr0, cr0, cr0, {0}
     2d0:	1e410000 	cdpne	0, 4, cr0, cr1, cr0, {0}
     2d4:	00010000 	andeq	r0, r1, r0
     2d8:	001e4151 	andseq	r4, lr, r1, asr r1
     2dc:	001e4200 	andseq	r4, lr, r0, lsl #4
     2e0:	f3000400 	vshl.u8	d0, d0, d0
     2e4:	429f5101 	addsmi	r5, pc, #1073741824	; 0x40000000
     2e8:	4d00001e 	stcmi	0, cr0, [r0, #-120]	; 0xffffff88
     2ec:	0100001e 	tsteq	r0, lr, lsl r0
     2f0:	1e4d5100 	dvfnee	f5, f5, f0
     2f4:	1e5c0000 	cdpne	0, 5, cr0, cr12, cr0, {0}
     2f8:	00040000 	andeq	r0, r4, r0
     2fc:	9f5101f3 	svcls	0x005101f3
	...
     308:	00001e14 	andeq	r1, r0, r4, lsl lr
     30c:	00001e1e 	andeq	r1, r0, lr, lsl lr
     310:	36510001 	ldrbcc	r0, [r1], -r1
     314:	4100001e 	tstmi	r0, lr, lsl r0
     318:	0100001e 	tsteq	r0, lr, lsl r0
     31c:	1e415100 	dvfnes	f5, f1, f0
     320:	1e420000 	cdpne	0, 4, cr0, cr2, cr0, {0}
     324:	00040000 	andeq	r0, r4, r0
     328:	9f5101f3 	svcls	0x005101f3
	...
     334:	00001e14 	andeq	r1, r0, r4, lsl lr
     338:	00001e1e 	andeq	r1, r0, lr, lsl lr
     33c:	14730003 	ldrbtne	r0, [r3], #-3
     340:	001e369f 	mulseq	lr, pc, r6	; <UNPREDICTABLE>
     344:	001e4100 	andseq	r4, lr, r0, lsl #2
     348:	73000300 	movwvc	r0, #768	; 0x300
     34c:	00009f14 	andeq	r9, r0, r4, lsl pc
     350:	00000000 	andeq	r0, r0, r0
     354:	1e280000 	cdpne	0, 2, cr0, cr8, cr0, {0}
     358:	1e340000 	cdpne	0, 3, cr0, cr4, cr0, {0}
     35c:	00010000 	andeq	r0, r1, r0
     360:	001e4251 	andseq	r4, lr, r1, asr r2
     364:	001e4d00 	andseq	r4, lr, r0, lsl #26
     368:	51000100 	mrspl	r0, (UNDEF: 16)
     36c:	00001e4d 	andeq	r1, r0, sp, asr #28
     370:	00001e5c 	andeq	r1, r0, ip, asr lr
     374:	01f30004 	mvnseq	r0, r4
     378:	00009f51 	andeq	r9, r0, r1, asr pc
     37c:	00000000 	andeq	r0, r0, r0
     380:	1e280000 	cdpne	0, 2, cr0, cr8, cr0, {0}
     384:	1e340000 	cdpne	0, 3, cr0, cr4, cr0, {0}
     388:	00030000 	andeq	r0, r3, r0
     38c:	429f2473 	addsmi	r2, pc, #1929379840	; 0x73000000
     390:	4d00001e 	stcmi	0, cr0, [r0, #-120]	; 0xffffff88
     394:	0300001e 	movweq	r0, #30
     398:	9f247300 	svcls	0x00247300
	...
     3a4:	00001da4 	andeq	r1, r0, r4, lsr #27
     3a8:	00001dde 	ldrdeq	r1, [r0], -lr
     3ac:	de500001 	cdple	0, 5, cr0, cr0, cr1, {0}
     3b0:	e600001d 			; <UNDEFINED> instruction: 0xe600001d
     3b4:	0400001d 	streq	r0, [r0], #-29	; 0xffffffe3
     3b8:	5001f300 	andpl	pc, r1, r0, lsl #6
     3bc:	001de69f 	mulseq	sp, pc, r6	; <UNPREDICTABLE>
     3c0:	001dea00 	andseq	lr, sp, r0, lsl #20
     3c4:	50000100 	andpl	r0, r0, r0, lsl #2
     3c8:	00001dea 	andeq	r1, r0, sl, ror #27
     3cc:	00001e00 	andeq	r1, r0, r0, lsl #28
     3d0:	01f30004 	mvnseq	r0, r4
     3d4:	00009f50 	andeq	r9, r0, r0, asr pc
     3d8:	00000000 	andeq	r0, r0, r0
     3dc:	1da40000 	stcne	0, cr0, [r4]
     3e0:	1de50000 	stclne	0, cr0, [r5]
     3e4:	00010000 	andeq	r0, r1, r0
     3e8:	001de551 	andseq	lr, sp, r1, asr r5
     3ec:	001de600 	andseq	lr, sp, r0, lsl #12
     3f0:	f3000400 	vshl.u8	d0, d0, d0
     3f4:	e69f5101 	ldr	r5, [pc], r1, lsl #2
     3f8:	f100001d 	cps	#29
     3fc:	0100001d 	tsteq	r0, sp, lsl r0
     400:	1df15100 	ldfnee	f5, [r1]
     404:	1e000000 	cdpne	0, 0, cr0, cr0, cr0, {0}
     408:	00040000 	andeq	r0, r4, r0
     40c:	9f5101f3 	svcls	0x005101f3
	...
     418:	00001db8 			; <UNDEFINED> instruction: 0x00001db8
     41c:	00001dc2 	andeq	r1, r0, r2, asr #27
     420:	da510001 	ble	144042c <__bss_end__+0x142b3c0>
     424:	e500001d 	str	r0, [r0, #-29]	; 0xffffffe3
     428:	0100001d 	tsteq	r0, sp, lsl r0
     42c:	1de55100 	stfnee	f5, [r5]
     430:	1de60000 	stclne	0, cr0, [r6]
     434:	00040000 	andeq	r0, r4, r0
     438:	9f5101f3 	svcls	0x005101f3
	...
     444:	00001db8 			; <UNDEFINED> instruction: 0x00001db8
     448:	00001dc2 	andeq	r1, r0, r2, asr #27
     44c:	10730003 	rsbsne	r0, r3, r3
     450:	001dda9f 	mulseq	sp, pc, sl	; <UNPREDICTABLE>
     454:	001de500 	andseq	lr, sp, r0, lsl #10
     458:	73000300 	movwvc	r0, #768	; 0x300
     45c:	00009f10 	andeq	r9, r0, r0, lsl pc
     460:	00000000 	andeq	r0, r0, r0
     464:	1dcc0000 	stclne	0, cr0, [ip]
     468:	1dd80000 	ldclne	0, cr0, [r8]
     46c:	00010000 	andeq	r0, r1, r0
     470:	001de651 	andseq	lr, sp, r1, asr r6
     474:	001df100 	andseq	pc, sp, r0, lsl #2
     478:	51000100 	mrspl	r0, (UNDEF: 16)
     47c:	00001df1 	strdeq	r1, [r0], -r1	; <UNPREDICTABLE>
     480:	00001e00 	andeq	r1, r0, r0, lsl #28
     484:	01f30004 	mvnseq	r0, r4
     488:	00009f51 	andeq	r9, r0, r1, asr pc
     48c:	00000000 	andeq	r0, r0, r0
     490:	1dcc0000 	stclne	0, cr0, [ip]
     494:	1dd80000 	ldclne	0, cr0, [r8]
     498:	00030000 	andeq	r0, r3, r0
     49c:	e69f2073 			; <UNDEFINED> instruction: 0xe69f2073
     4a0:	f100001d 	cps	#29
     4a4:	0300001d 	movweq	r0, #29
     4a8:	9f207300 	svcls	0x00207300
	...
     4b4:	00001d20 	andeq	r1, r0, r0, lsr #26
     4b8:	00001d36 	andeq	r1, r0, r6, lsr sp
     4bc:	36500001 	ldrbcc	r0, [r0], -r1
     4c0:	a400001d 	strge	r0, [r0], #-29	; 0xffffffe3
     4c4:	0400001d 	streq	r0, [r0], #-29	; 0xffffffe3
     4c8:	5001f300 	andpl	pc, r1, r0, lsl #6
     4cc:	0000009f 	muleq	r0, pc, r0	; <UNPREDICTABLE>
     4d0:	00000000 	andeq	r0, r0, r0
     4d4:	001d2000 	andseq	r2, sp, r0
     4d8:	001d3d00 	andseq	r3, sp, r0, lsl #26
     4dc:	51000100 	mrspl	r0, (UNDEF: 16)
     4e0:	00001d3d 	andeq	r1, r0, sp, lsr sp
     4e4:	00001da4 	andeq	r1, r0, r4, lsr #27
     4e8:	01f30004 	mvnseq	r0, r4
     4ec:	00009f51 	andeq	r9, r0, r1, asr pc
     4f0:	00000000 	andeq	r0, r0, r0
     4f4:	1d200000 	stcne	0, cr0, [r0, #-0]
     4f8:	1d3d0000 	ldcne	0, cr0, [sp, #-0]
     4fc:	00010000 	andeq	r0, r1, r0
     500:	001d3d52 	andseq	r3, sp, r2, asr sp
     504:	001da400 	andseq	sl, sp, r0, lsl #8
     508:	f3000400 	vshl.u8	d0, d0, d0
     50c:	009f5201 	addseq	r5, pc, r1, lsl #4
     510:	00000000 	andeq	r0, r0, r0
     514:	3e000000 	cdpcc	0, 0, cr0, cr0, cr0, {0}
     518:	5c00001d 	stcpl	0, cr0, [r0], {29}
     51c:	0100001d 	tsteq	r0, sp, lsl r0
     520:	1d5e5000 	ldclne	0, cr5, [lr, #-0]
     524:	1d820000 	stcne	0, cr0, [r2]
     528:	00010000 	andeq	r0, r1, r0
     52c:	001d8250 	andseq	r8, sp, r0, asr r2
     530:	001d8900 	andseq	r8, sp, r0, lsl #18
     534:	51000100 	mrspl	r0, (UNDEF: 16)
     538:	00001d8a 	andeq	r1, r0, sl, lsl #27
     53c:	00001da4 	andeq	r1, r0, r4, lsr #27
     540:	00500001 	subseq	r0, r0, r1
     544:	00000000 	andeq	r0, r0, r0
     548:	58000000 	stmdapl	r0, {}	; <UNPREDICTABLE>
     54c:	5c00001d 	stcpl	0, cr0, [r0], {29}
     550:	0100001d 	tsteq	r0, sp, lsl r0
     554:	1d7e5000 	ldclne	0, cr5, [lr, #-0]
     558:	1d820000 	stcne	0, cr0, [r2]
     55c:	00010000 	andeq	r0, r1, r0
     560:	001d8250 	andseq	r8, sp, r0, asr r2
     564:	001d8900 	andseq	r8, sp, r0, lsl #18
     568:	51000100 	mrspl	r0, (UNDEF: 16)
	...
     574:	00001d58 	andeq	r1, r0, r8, asr sp
     578:	00001d5c 	andeq	r1, r0, ip, asr sp
     57c:	7e530001 	cdpvc	0, 5, cr0, cr3, cr1, {0}
     580:	8900001d 	stmdbhi	r0, {r0, r2, r3, r4}
     584:	0100001d 	tsteq	r0, sp, lsl r0
     588:	00005300 	andeq	r5, r0, r0, lsl #6
     58c:	00000000 	andeq	r0, r0, r0
     590:	1c680000 	stclne	0, cr0, [r8], #-0
     594:	1c800000 	stcne	0, cr0, [r0], {0}
     598:	00010000 	andeq	r0, r1, r0
     59c:	001c8050 	andseq	r8, ip, r0, asr r0
     5a0:	001c9000 	andseq	r9, ip, r0
     5a4:	56000100 	strpl	r0, [r0], -r0, lsl #2
     5a8:	00001c90 	muleq	r0, r0, ip
     5ac:	00001cfe 	strdeq	r1, [r0], -lr
     5b0:	00760007 	rsbseq	r0, r6, r7
     5b4:	1a0fff0a 	bne	4001e4 <__bss_end__+0x3eb178>
     5b8:	0000009f 	muleq	r0, pc, r0	; <UNPREDICTABLE>
     5bc:	00000000 	andeq	r0, r0, r0
     5c0:	001ca200 	andseq	sl, ip, r0, lsl #4
     5c4:	001cfe00 	andseq	pc, ip, r0, lsl #28
     5c8:	08000300 	stmdaeq	r0, {r8, r9}
     5cc:	00009f6e 	andeq	r9, r0, lr, ror #30
     5d0:	00000000 	andeq	r0, r0, r0
     5d4:	1cc00000 	stclne	0, cr0, [r0], {0}
     5d8:	1ccc0000 	stclne	0, cr0, [ip], {0}
     5dc:	00020000 	andeq	r0, r2, r0
     5e0:	00009f31 	andeq	r9, r0, r1, lsr pc
     5e4:	00000000 	andeq	r0, r0, r0
     5e8:	17560000 	ldrbne	r0, [r6, -r0]
     5ec:	17580000 	ldrbne	r0, [r8, -r0]
     5f0:	00030000 	andeq	r0, r3, r0
     5f4:	589f0870 	ldmpl	pc, {r4, r5, r6, fp}	; <UNPREDICTABLE>
     5f8:	5b000017 	blpl	65c <_init-0xbc>
     5fc:	01000017 	tsteq	r0, r7, lsl r0
     600:	175e5000 	ldrbne	r5, [lr, -r0]
     604:	17620000 	strbne	r0, [r2, -r0]!
     608:	00090000 	andeq	r0, r9, r0
     60c:	01504003 	cmpeq	r0, r3
     610:	04230600 	strteq	r0, [r3], #-1536	; 0xfffffa00
     614:	0017629f 	mulseq	r7, pc, r2	; <UNPREDICTABLE>
     618:	00176500 	andseq	r6, r7, r0, lsl #10
     61c:	50000100 	andpl	r0, r0, r0, lsl #2
     620:	00001768 	andeq	r1, r0, r8, ror #14
     624:	0000176c 	andeq	r1, r0, ip, ror #14
     628:	40030009 	andmi	r0, r3, r9
     62c:	06000150 			; <UNDEFINED> instruction: 0x06000150
     630:	6c9f0823 	ldcvs	8, cr0, [pc], {35}	; 0x23
     634:	6f000017 	svcvs	0x00000017
     638:	01000017 	tsteq	r0, r7, lsl r0
     63c:	00005000 	andeq	r5, r0, r0
     640:	00000000 	andeq	r0, r0, r0
     644:	175e0000 	ldrbne	r0, [lr, -r0]
     648:	17600000 	strbne	r0, [r0, -r0]!
     64c:	00010000 	andeq	r0, r1, r0
     650:	00176050 	andseq	r6, r7, r0, asr r0
     654:	00177a00 	andseq	r7, r7, r0, lsl #20
     658:	55000100 	strpl	r0, [r0, #-256]	; 0xffffff00
     65c:	00001792 	muleq	r0, r2, r7
     660:	000017a2 	andeq	r1, r0, r2, lsr #15
     664:	00550001 	subseq	r0, r5, r1
     668:	00000000 	andeq	r0, r0, r0
     66c:	68000000 	stmdavs	r0, {}	; <UNPREDICTABLE>
     670:	6a000017 	bvs	6d4 <_init-0x44>
     674:	01000017 	tsteq	r0, r7, lsl r0
     678:	176a5000 	strbne	r5, [sl, -r0]!
     67c:	178c0000 	strne	r0, [ip, r0]
     680:	00010000 	andeq	r0, r1, r0
     684:	00179256 	andseq	r9, r7, r6, asr r2
     688:	0017a200 	andseq	sl, r7, r0, lsl #4
     68c:	56000100 	strpl	r0, [r0], -r0, lsl #2
	...
     698:	00001782 	andeq	r1, r0, r2, lsl #15
     69c:	0000178a 	andeq	r1, r0, sl, lsl #15
     6a0:	93540006 	cmpls	r4, #6
     6a4:	04935504 	ldreq	r5, [r3], #1284	; 0x504
     6a8:	00001796 	muleq	r0, r6, r7
     6ac:	0000179c 	muleq	r0, ip, r7
     6b0:	93500006 	cmpls	r0, #6
     6b4:	04935104 	ldreq	r5, [r3], #260	; 0x104
     6b8:	0000179c 	muleq	r0, ip, r7
     6bc:	000017a8 	andeq	r1, r0, r8, lsr #15
     6c0:	93530006 	cmpls	r3, #6
     6c4:	04935404 	ldreq	r5, [r3], #1028	; 0x404
	...
     6d0:	000016d8 	ldrdeq	r1, [r0], -r8
     6d4:	000016e4 	andeq	r1, r0, r4, ror #13
     6d8:	e4500001 	ldrb	r0, [r0], #-1
     6dc:	e6000016 			; <UNDEFINED> instruction: 0xe6000016
     6e0:	04000016 	streq	r0, [r0], #-22	; 0xffffffea
     6e4:	5001f300 	andpl	pc, r1, r0, lsl #6
     6e8:	0016e69f 	mulseq	r6, pc, r6	; <UNPREDICTABLE>
     6ec:	0016f600 	andseq	pc, r6, r0, lsl #12
     6f0:	50000100 	andpl	r0, r0, r0, lsl #2
     6f4:	000016f6 	strdeq	r1, [r0], -r6
     6f8:	0000172c 	andeq	r1, r0, ip, lsr #14
     6fc:	2c550001 	mrrccs	0, 0, r0, r5, cr1
     700:	36000017 			; <UNDEFINED> instruction: 0x36000017
     704:	04000017 	streq	r0, [r0], #-23	; 0xffffffe9
     708:	5001f300 	andpl	pc, r1, r0, lsl #6
     70c:	0017369f 	mulseq	r7, pc, r6	; <UNPREDICTABLE>
     710:	00174400 	andseq	r4, r7, r0, lsl #8
     714:	55000100 	strpl	r0, [r0, #-256]	; 0xffffff00
	...
     720:	000016d8 	ldrdeq	r1, [r0], -r8
     724:	000016f9 	strdeq	r1, [r0], -r9
     728:	f9510001 			; <UNDEFINED> instruction: 0xf9510001
     72c:	44000016 	strmi	r0, [r0], #-22	; 0xffffffea
     730:	01000017 	tsteq	r0, r7, lsl r0
     734:	00005600 	andeq	r5, r0, r0, lsl #12
     738:	00000000 	andeq	r0, r0, r0
     73c:	171c0000 	ldrne	r0, [ip, -r0]
     740:	17240000 	strne	r0, [r4, -r0]!
     744:	00010000 	andeq	r0, r1, r0
     748:	00000050 	andeq	r0, r0, r0, asr r0
     74c:	00000000 	andeq	r0, r0, r0
     750:	00172c00 	andseq	r2, r7, r0, lsl #24
     754:	00172e00 	andseq	r2, r7, r0, lsl #28
     758:	50000100 	andpl	r0, r0, r0, lsl #2
     75c:	0000172e 	andeq	r1, r0, lr, lsr #14
     760:	00001736 	andeq	r1, r0, r6, lsr r7
     764:	00550001 	subseq	r0, r5, r1
     768:	00000000 	andeq	r0, r0, r0
     76c:	d8000000 	stmdale	r0, {}	; <UNPREDICTABLE>
     770:	f9000016 			; <UNDEFINED> instruction: 0xf9000016
     774:	09000016 	stmdbeq	r0, {r1, r2, r4}
     778:	504c0300 	subpl	r0, ip, r0, lsl #6
     77c:	23060001 	movwcs	r0, #24577	; 0x6001
     780:	00009f34 	andeq	r9, r0, r4, lsr pc
     784:	00000000 	andeq	r0, r0, r0
     788:	16d80000 	ldrbne	r0, [r8], r0
     78c:	16f90000 	ldrbtne	r0, [r9], r0
     790:	00090000 	andeq	r0, r9, r0
     794:	01504c03 	cmpeq	r0, r3, lsl #24
     798:	38230600 	stmdacc	r3!, {r9, sl}
     79c:	0000009f 	muleq	r0, pc, r0	; <UNPREDICTABLE>
     7a0:	00000000 	andeq	r0, r0, r0
     7a4:	0016d800 	andseq	sp, r6, r0, lsl #16
     7a8:	0016f900 	andseq	pc, r6, r0, lsl #18
     7ac:	03000900 	movweq	r0, #2304	; 0x900
     7b0:	0001504c 	andeq	r5, r1, ip, asr #32
     7b4:	9f3c2306 	svcls	0x003c2306
	...
     7c0:	0000166c 	andeq	r1, r0, ip, ror #12
     7c4:	0000168a 	andeq	r1, r0, sl, lsl #13
     7c8:	8a500001 	bhi	14007d4 <__bss_end__+0x13eb768>
     7cc:	c6000016 			; <UNDEFINED> instruction: 0xc6000016
     7d0:	01000016 	tsteq	r0, r6, lsl r0
     7d4:	16c65500 	strbne	r5, [r6], r0, lsl #10
     7d8:	16ca0000 	strbne	r0, [sl], r0
     7dc:	00040000 	andeq	r0, r4, r0
     7e0:	9f5001f3 	svcls	0x005001f3
     7e4:	000016ca 	andeq	r1, r0, sl, asr #13
     7e8:	000016d8 	ldrdeq	r1, [r0], -r8
     7ec:	00550001 	subseq	r0, r5, r1
     7f0:	00000000 	andeq	r0, r0, r0
     7f4:	6c000000 	stcvs	0, cr0, [r0], {-0}
     7f8:	8d000016 	stchi	0, cr0, [r0, #-88]	; 0xffffffa8
     7fc:	01000016 	tsteq	r0, r6, lsl r0
     800:	168d5100 	strne	r5, [sp], r0, lsl #2
     804:	16d80000 	ldrbne	r0, [r8], r0
     808:	00040000 	andeq	r0, r4, r0
     80c:	9f5101f3 	svcls	0x005101f3
	...
     818:	0000166c 	andeq	r1, r0, ip, ror #12
     81c:	0000168d 	andeq	r1, r0, sp, lsl #13
     820:	8d520001 	ldclhi	0, cr0, [r2, #-4]
     824:	c6000016 			; <UNDEFINED> instruction: 0xc6000016
     828:	01000016 	tsteq	r0, r6, lsl r0
     82c:	16c65600 	strbne	r5, [r6], r0, lsl #12
     830:	16ca0000 	strbne	r0, [sl], r0
     834:	00040000 	andeq	r0, r4, r0
     838:	9f5201f3 	svcls	0x005201f3
     83c:	000016ca 	andeq	r1, r0, sl, asr #13
     840:	000016d8 	ldrdeq	r1, [r0], -r8
     844:	00560001 	subseq	r0, r6, r1
     848:	00000000 	andeq	r0, r0, r0
     84c:	ba000000 	blt	854 <main+0x4>
     850:	c0000016 	andgt	r0, r0, r6, lsl r0
     854:	01000016 	tsteq	r0, r6, lsl r0
     858:	00005000 	andeq	r5, r0, r0
     85c:	00000000 	andeq	r0, r0, r0
     860:	166c0000 	strbtne	r0, [ip], -r0
     864:	168d0000 	strne	r0, [sp], r0
     868:	00090000 	andeq	r0, r9, r0
     86c:	01504c03 	cmpeq	r0, r3, lsl #24
     870:	34230600 	strtcc	r0, [r3], #-1536	; 0xfffffa00
     874:	0000009f 	muleq	r0, pc, r0	; <UNPREDICTABLE>
     878:	00000000 	andeq	r0, r0, r0
     87c:	00166c00 	andseq	r6, r6, r0, lsl #24
     880:	00168d00 	andseq	r8, r6, r0, lsl #26
     884:	03000900 	movweq	r0, #2304	; 0x900
     888:	0001504c 	andeq	r5, r1, ip, asr #32
     88c:	9f382306 	svcls	0x00382306
	...
     898:	0000166c 	andeq	r1, r0, ip, ror #12
     89c:	0000168d 	andeq	r1, r0, sp, lsl #13
     8a0:	4c030009 	stcmi	0, cr0, [r3], {9}
     8a4:	06000150 			; <UNDEFINED> instruction: 0x06000150
     8a8:	009f3c23 	addseq	r3, pc, r3, lsr #24
     8ac:	00000000 	andeq	r0, r0, r0
     8b0:	f0000000 			; <UNDEFINED> instruction: 0xf0000000
     8b4:	02000015 	andeq	r0, r0, #21
     8b8:	01000016 	tsteq	r0, r6, lsl r0
     8bc:	16025000 	strne	r5, [r2], -r0
     8c0:	160e0000 	strne	r0, [lr], -r0
     8c4:	00010000 	andeq	r0, r1, r0
     8c8:	00160e50 	andseq	r0, r6, r0, asr lr
     8cc:	00166c00 	andseq	r6, r6, r0, lsl #24
     8d0:	f3000400 	vshl.u8	d0, d0, d0
     8d4:	009f5001 	addseq	r5, pc, r1
     8d8:	00000000 	andeq	r0, r0, r0
     8dc:	f0000000 			; <UNDEFINED> instruction: 0xf0000000
     8e0:	02000015 	andeq	r0, r0, #21
     8e4:	01000016 	tsteq	r0, r6, lsl r0
     8e8:	16025100 	strne	r5, [r2], -r0, lsl #2
     8ec:	160e0000 	strne	r0, [lr], -r0
     8f0:	00010000 	andeq	r0, r1, r0
     8f4:	00160e51 	andseq	r0, r6, r1, asr lr
     8f8:	00166c00 	andseq	r6, r6, r0, lsl #24
     8fc:	f3000400 	vshl.u8	d0, d0, d0
     900:	009f5101 	addseq	r5, pc, r1, lsl #2
     904:	00000000 	andeq	r0, r0, r0
     908:	f0000000 			; <UNDEFINED> instruction: 0xf0000000
     90c:	29000015 	stmdbcs	r0, {r0, r2, r4}
     910:	01000016 	tsteq	r0, r6, lsl r0
     914:	16295200 	strtne	r5, [r9], -r0, lsl #4
     918:	16480000 	strbne	r0, [r8], -r0
     91c:	00010000 	andeq	r0, r1, r0
     920:	00164856 	andseq	r4, r6, r6, asr r8
     924:	00164c00 	andseq	r4, r6, r0, lsl #24
     928:	f3000400 	vshl.u8	d0, d0, d0
     92c:	4c9f5201 	lfmmi	f5, 4, [pc], {1}
     930:	6c000016 	stcvs	0, cr0, [r0], {22}
     934:	01000016 	tsteq	r0, r6, lsl r0
     938:	00005200 	andeq	r5, r0, r0, lsl #4
     93c:	00000000 	andeq	r0, r0, r0
     940:	15f00000 	ldrbne	r0, [r0, #0]!
     944:	161c0000 	ldrne	r0, [ip], -r0
     948:	00010000 	andeq	r0, r1, r0
     94c:	00161c53 	andseq	r1, r6, r3, asr ip
     950:	00164800 	andseq	r4, r6, r0, lsl #16
     954:	54000100 	strpl	r0, [r0], #-256	; 0xffffff00
     958:	00001648 	andeq	r1, r0, r8, asr #12
     95c:	0000164c 	andeq	r1, r0, ip, asr #12
     960:	01f30004 	mvnseq	r0, r4
     964:	164c9f53 			; <UNDEFINED> instruction: 0x164c9f53
     968:	166c0000 	strbtne	r0, [ip], -r0
     96c:	00010000 	andeq	r0, r1, r0
     970:	00000053 	andeq	r0, r0, r3, asr r0
     974:	00000000 	andeq	r0, r0, r0
     978:	0015f000 	andseq	pc, r5, r0
     97c:	00161600 	andseq	r1, r6, r0, lsl #12
     980:	91000200 	mrsls	r0, R8_usr
     984:	00161600 	andseq	r1, r6, r0, lsl #12
     988:	00164800 	andseq	r4, r6, r0, lsl #16
     98c:	91000200 	mrsls	r0, R8_usr
     990:	00164800 	andseq	r4, r6, r0, lsl #16
     994:	00164c00 	andseq	r4, r6, r0, lsl #24
     998:	7d000200 	sfmvc	f0, 4, [r0, #-0]
     99c:	00164c00 	andseq	r4, r6, r0, lsl #24
     9a0:	00166c00 	andseq	r6, r6, r0, lsl #24
     9a4:	91000200 	mrsls	r0, R8_usr
	...
     9b0:	0015f000 	andseq	pc, r5, r0
     9b4:	00161600 	andseq	r1, r6, r0, lsl #12
     9b8:	91000200 	mrsls	r0, R8_usr
     9bc:	00161604 	andseq	r1, r6, r4, lsl #12
     9c0:	00164800 	andseq	r4, r6, r0, lsl #16
     9c4:	91000200 	mrsls	r0, R8_usr
     9c8:	00164804 	andseq	r4, r6, r4, lsl #16
     9cc:	00164c00 	andseq	r4, r6, r0, lsl #24
     9d0:	7d000200 	sfmvc	f0, 4, [r0, #-0]
     9d4:	00164c04 	andseq	r4, r6, r4, lsl #24
     9d8:	00166c00 	andseq	r6, r6, r0, lsl #24
     9dc:	91000200 	mrsls	r0, R8_usr
     9e0:	00000004 	andeq	r0, r0, r4
     9e4:	00000000 	andeq	r0, r0, r0
     9e8:	00165000 	andseq	r5, r6, r0
     9ec:	00165400 	andseq	r5, r6, r0, lsl #8
     9f0:	3b000200 	blcc	11f8 <PCA9685::SetFrequency(unsigned short)+0x138>
     9f4:	0016589f 	mulseq	r6, pc, r8	; <UNPREDICTABLE>
     9f8:	00165c00 	andseq	r5, r6, r0, lsl #24
     9fc:	39000200 	stmdbcc	r0, {r9}
     a00:	00165c9f 	mulseq	r6, pc, ip	; <UNPREDICTABLE>
     a04:	00166000 	andseq	r6, r6, r0
     a08:	38000200 	stmdacc	r0, {r9}
     a0c:	0016609f 	mulseq	r6, pc, r0	; <UNPREDICTABLE>
     a10:	00166400 	andseq	r6, r6, r0, lsl #8
     a14:	3a000200 	bcc	121c <PCA9685::SetFrequency(unsigned short)+0x15c>
     a18:	0000009f 	muleq	r0, pc, r0	; <UNPREDICTABLE>
     a1c:	00000000 	andeq	r0, r0, r0
     a20:	00162400 	andseq	r2, r6, r0, lsl #8
     a24:	00164800 	andseq	r4, r6, r0, lsl #16
     a28:	55000100 	strpl	r0, [r0, #-256]	; 0xffffff00
     a2c:	00001648 	andeq	r1, r0, r8, asr #12
     a30:	0000164b 	andeq	r1, r0, fp, asr #12
     a34:	00500001 	subseq	r0, r0, r1
     a38:	00000000 	andeq	r0, r0, r0
     a3c:	2a000000 	bcs	a44 <PCA9685Servo::PCA9685Servo(unsigned char)+0x18>
     a40:	3a000016 	bcc	aa0 <PCA9685Servo::PCA9685Servo(unsigned char)+0x74>
     a44:	01000016 	tsteq	r0, r6, lsl r0
     a48:	16405000 	strbne	r5, [r0], -r0
     a4c:	16440000 	strbne	r0, [r4], -r0
     a50:	00150000 	andseq	r0, r5, r0
     a54:	24400078 	strbcs	r0, [r0], #-120	; 0xffffff88
     a58:	24380077 	ldrtcs	r0, [r8], #-119	; 0xffffff89
     a5c:	48007621 	stmdami	r0, {r0, r5, r9, sl, ip, sp, lr}
     a60:	00742124 	rsbseq	r2, r4, r4, lsr #2
     a64:	21007121 	tstcs	r0, r1, lsr #2
     a68:	0000009f 	muleq	r0, pc, r0	; <UNPREDICTABLE>
     a6c:	00000000 	andeq	r0, r0, r0
     a70:	00153000 	andseq	r3, r5, r0
     a74:	00154200 	andseq	r4, r5, r0, lsl #4
     a78:	30000200 	andcc	r0, r0, r0, lsl #4
     a7c:	0000009f 	muleq	r0, pc, r0	; <UNPREDICTABLE>
     a80:	00000000 	andeq	r0, r0, r0
     a84:	00153000 	andseq	r3, r5, r0
     a88:	00154200 	andseq	r4, r5, r0, lsl #4
     a8c:	32000200 	andcc	r0, r0, #0, 4
     a90:	0000009f 	muleq	r0, pc, r0	; <UNPREDICTABLE>
     a94:	00000000 	andeq	r0, r0, r0
     a98:	00154200 	andseq	r4, r5, r0, lsl #4
     a9c:	00154e00 	andseq	r4, r5, r0, lsl #28
     aa0:	30000200 	andcc	r0, r0, r0, lsl #4
     aa4:	0000009f 	muleq	r0, pc, r0	; <UNPREDICTABLE>
     aa8:	00000000 	andeq	r0, r0, r0
     aac:	00154200 	andseq	r4, r5, r0, lsl #4
     ab0:	00154e00 	andseq	r4, r5, r0, lsl #28
     ab4:	33000200 	movwcc	r0, #512	; 0x200
     ab8:	0000009f 	muleq	r0, pc, r0	; <UNPREDICTABLE>
     abc:	00000000 	andeq	r0, r0, r0
     ac0:	00154e00 	andseq	r4, r5, r0, lsl #28
     ac4:	00155a00 	andseq	r5, r5, r0, lsl #20
     ac8:	30000200 	andcc	r0, r0, r0, lsl #4
     acc:	0000009f 	muleq	r0, pc, r0	; <UNPREDICTABLE>
     ad0:	00000000 	andeq	r0, r0, r0
     ad4:	00154e00 	andseq	r4, r5, r0, lsl #28
     ad8:	00155a00 	andseq	r5, r5, r0, lsl #20
     adc:	34000200 	strcc	r0, [r0], #-512	; 0xfffffe00
     ae0:	0000009f 	muleq	r0, pc, r0	; <UNPREDICTABLE>
     ae4:	00000000 	andeq	r0, r0, r0
     ae8:	00155a00 	andseq	r5, r5, r0, lsl #20
     aec:	00156600 	andseq	r6, r5, r0, lsl #12
     af0:	30000200 	andcc	r0, r0, r0, lsl #4
     af4:	0000009f 	muleq	r0, pc, r0	; <UNPREDICTABLE>
     af8:	00000000 	andeq	r0, r0, r0
     afc:	00155a00 	andseq	r5, r5, r0, lsl #20
     b00:	00156600 	andseq	r6, r5, r0, lsl #12
     b04:	35000200 	strcc	r0, [r0, #-512]	; 0xfffffe00
     b08:	0000009f 	muleq	r0, pc, r0	; <UNPREDICTABLE>
     b0c:	00000000 	andeq	r0, r0, r0
     b10:	00156600 	andseq	r6, r5, r0, lsl #12
     b14:	00157200 	andseq	r7, r5, r0, lsl #4
     b18:	30000200 	andcc	r0, r0, r0, lsl #4
     b1c:	0000009f 	muleq	r0, pc, r0	; <UNPREDICTABLE>
     b20:	00000000 	andeq	r0, r0, r0
     b24:	00156600 	andseq	r6, r5, r0, lsl #12
     b28:	00157200 	andseq	r7, r5, r0, lsl #4
     b2c:	36000200 	strcc	r0, [r0], -r0, lsl #4
     b30:	0000009f 	muleq	r0, pc, r0	; <UNPREDICTABLE>
     b34:	00000000 	andeq	r0, r0, r0
     b38:	00157200 	andseq	r7, r5, r0, lsl #4
     b3c:	00157e00 	andseq	r7, r5, r0, lsl #28
     b40:	30000200 	andcc	r0, r0, r0, lsl #4
     b44:	0000009f 	muleq	r0, pc, r0	; <UNPREDICTABLE>
     b48:	00000000 	andeq	r0, r0, r0
     b4c:	00157200 	andseq	r7, r5, r0, lsl #4
     b50:	00157e00 	andseq	r7, r5, r0, lsl #28
     b54:	37000200 	strcc	r0, [r0, -r0, lsl #4]
     b58:	0000009f 	muleq	r0, pc, r0	; <UNPREDICTABLE>
     b5c:	00000000 	andeq	r0, r0, r0
     b60:	00157e00 	andseq	r7, r5, r0, lsl #28
     b64:	00158a00 	andseq	r8, r5, r0, lsl #20
     b68:	30000200 	andcc	r0, r0, r0, lsl #4
     b6c:	0000009f 	muleq	r0, pc, r0	; <UNPREDICTABLE>
     b70:	00000000 	andeq	r0, r0, r0
     b74:	00157e00 	andseq	r7, r5, r0, lsl #28
     b78:	00158a00 	andseq	r8, r5, r0, lsl #20
     b7c:	38000200 	stmdacc	r0, {r9}
     b80:	0000009f 	muleq	r0, pc, r0	; <UNPREDICTABLE>
     b84:	00000000 	andeq	r0, r0, r0
     b88:	00158a00 	andseq	r8, r5, r0, lsl #20
     b8c:	00159600 	andseq	r9, r5, r0, lsl #12
     b90:	30000200 	andcc	r0, r0, r0, lsl #4
     b94:	0000009f 	muleq	r0, pc, r0	; <UNPREDICTABLE>
     b98:	00000000 	andeq	r0, r0, r0
     b9c:	00158a00 	andseq	r8, r5, r0, lsl #20
     ba0:	00159600 	andseq	r9, r5, r0, lsl #12
     ba4:	39000200 	stmdbcc	r0, {r9}
     ba8:	0000009f 	muleq	r0, pc, r0	; <UNPREDICTABLE>
     bac:	00000000 	andeq	r0, r0, r0
     bb0:	00159600 	andseq	r9, r5, r0, lsl #12
     bb4:	0015a200 	andseq	sl, r5, r0, lsl #4
     bb8:	30000200 	andcc	r0, r0, r0, lsl #4
     bbc:	0000009f 	muleq	r0, pc, r0	; <UNPREDICTABLE>
     bc0:	00000000 	andeq	r0, r0, r0
     bc4:	00159600 	andseq	r9, r5, r0, lsl #12
     bc8:	0015a200 	andseq	sl, r5, r0, lsl #4
     bcc:	3a000200 	bcc	13d4 <PCA9685::SetOCH(TPCA9685Och)+0x28>
     bd0:	0000009f 	muleq	r0, pc, r0	; <UNPREDICTABLE>
     bd4:	00000000 	andeq	r0, r0, r0
     bd8:	0015a200 	andseq	sl, r5, r0, lsl #4
     bdc:	0015ae00 	andseq	sl, r5, r0, lsl #28
     be0:	30000200 	andcc	r0, r0, r0, lsl #4
     be4:	0000009f 	muleq	r0, pc, r0	; <UNPREDICTABLE>
     be8:	00000000 	andeq	r0, r0, r0
     bec:	0015a200 	andseq	sl, r5, r0, lsl #4
     bf0:	0015ae00 	andseq	sl, r5, r0, lsl #28
     bf4:	3b000200 	blcc	13fc <PCA9685::SetOCH(TPCA9685Och)+0x50>
     bf8:	0000009f 	muleq	r0, pc, r0	; <UNPREDICTABLE>
     bfc:	00000000 	andeq	r0, r0, r0
     c00:	0015ae00 	andseq	sl, r5, r0, lsl #28
     c04:	0015bc00 	andseq	fp, r5, r0, lsl #24
     c08:	30000200 	andcc	r0, r0, r0, lsl #4
     c0c:	0000009f 	muleq	r0, pc, r0	; <UNPREDICTABLE>
     c10:	00000000 	andeq	r0, r0, r0
     c14:	0015ae00 	andseq	sl, r5, r0, lsl #28
     c18:	0015bc00 	andseq	fp, r5, r0, lsl #24
     c1c:	3c000200 	sfmcc	f0, 4, [r0], {-0}
     c20:	0000009f 	muleq	r0, pc, r0	; <UNPREDICTABLE>
     c24:	00000000 	andeq	r0, r0, r0
     c28:	0015bc00 	andseq	fp, r5, r0, lsl #24
     c2c:	0015ca00 	andseq	ip, r5, r0, lsl #20
     c30:	30000200 	andcc	r0, r0, r0, lsl #4
     c34:	0000009f 	muleq	r0, pc, r0	; <UNPREDICTABLE>
     c38:	00000000 	andeq	r0, r0, r0
     c3c:	0015bc00 	andseq	fp, r5, r0, lsl #24
     c40:	0015ca00 	andseq	ip, r5, r0, lsl #20
     c44:	3d000200 	sfmcc	f0, 4, [r0, #-0]
     c48:	0000009f 	muleq	r0, pc, r0	; <UNPREDICTABLE>
     c4c:	00000000 	andeq	r0, r0, r0
     c50:	0015ca00 	andseq	ip, r5, r0, lsl #20
     c54:	0015d800 	andseq	sp, r5, r0, lsl #16
     c58:	30000200 	andcc	r0, r0, r0, lsl #4
     c5c:	0000009f 	muleq	r0, pc, r0	; <UNPREDICTABLE>
     c60:	00000000 	andeq	r0, r0, r0
     c64:	0015ca00 	andseq	ip, r5, r0, lsl #20
     c68:	0015d800 	andseq	sp, r5, r0, lsl #16
     c6c:	3e000200 	cdpcc	2, 0, cr0, cr0, cr0, {0}
     c70:	0000009f 	muleq	r0, pc, r0	; <UNPREDICTABLE>
     c74:	00000000 	andeq	r0, r0, r0
     c78:	00147e00 	andseq	r7, r4, r0, lsl #28
     c7c:	00148600 	andseq	r8, r4, r0, lsl #12
     c80:	03000a00 	movweq	r0, #2560	; 0xa00
     c84:	0001502c 	andeq	r5, r1, ip, lsr #32
     c88:	01b02306 	lslseq	r2, r6, #6
     c8c:	0014869f 	mulseq	r4, pc, r6	; <UNPREDICTABLE>
     c90:	00148900 	andseq	r8, r4, r0, lsl #18
     c94:	50000100 	andpl	r0, r0, r0, lsl #2
     c98:	0000148a 	andeq	r1, r0, sl, lsl #9
     c9c:	00001496 	muleq	r0, r6, r4
     ca0:	2c03000a 	stccs	0, cr0, [r3], {10}
     ca4:	06000150 			; <UNDEFINED> instruction: 0x06000150
     ca8:	9f01b423 	svcls	0x0001b423
     cac:	00001496 	muleq	r0, r6, r4
     cb0:	00001499 	muleq	r0, r9, r4
     cb4:	9a500001 	bls	1400cc0 <__bss_end__+0x13ebc54>
     cb8:	a4000014 	strge	r0, [r0], #-20	; 0xffffffec
     cbc:	0a000014 	beq	d14 <PCA9685Servo::SetAngle(unsigned char, unsigned char)+0x58>
     cc0:	502c0300 	eorpl	r0, ip, r0, lsl #6
     cc4:	23060001 	movwcs	r0, #24577	; 0x6001
     cc8:	a49f01b0 	ldrge	r0, [pc], #432	; cd0 <PCA9685Servo::SetAngle(unsigned char, unsigned char)+0x14>
     ccc:	a7000014 	smladge	r0, r4, r0, r0
     cd0:	01000014 	tsteq	r0, r4, lsl r0
     cd4:	14a85000 	strtne	r5, [r8], #0
     cd8:	14b40000 	ldrtne	r0, [r4], #0
     cdc:	00090000 	andeq	r0, r9, r0
     ce0:	01504c03 	cmpeq	r0, r3, lsl #24
     ce4:	10230600 	eorne	r0, r3, r0, lsl #12
     ce8:	0014b49f 	mulseq	r4, pc, r4	; <UNPREDICTABLE>
     cec:	0014b700 	andseq	fp, r4, r0, lsl #14
     cf0:	50000100 	andpl	r0, r0, r0, lsl #2
     cf4:	000014b8 			; <UNDEFINED> instruction: 0x000014b8
     cf8:	000014c4 	andeq	r1, r0, r4, asr #9
     cfc:	4c030009 	stcmi	0, cr0, [r3], {9}
     d00:	06000150 			; <UNDEFINED> instruction: 0x06000150
     d04:	c49f1423 	ldrgt	r1, [pc], #1059	; d0c <PCA9685Servo::SetAngle(unsigned char, unsigned char)+0x50>
     d08:	c7000014 	smladgt	r0, r4, r0, r0
     d0c:	01000014 	tsteq	r0, r4, lsl r0
     d10:	14c85000 	strbne	r5, [r8], #0
     d14:	14d40000 	ldrbne	r0, [r4], #0
     d18:	00090000 	andeq	r0, r9, r0
     d1c:	01504c03 	cmpeq	r0, r3, lsl #24
     d20:	18230600 	stmdane	r3!, {r9, sl}
     d24:	0014d49f 	mulseq	r4, pc, r4	; <UNPREDICTABLE>
     d28:	0014d700 	andseq	sp, r4, r0, lsl #14
     d2c:	50000100 	andpl	r0, r0, r0, lsl #2
     d30:	000014d8 	ldrdeq	r1, [r0], -r8
     d34:	000014e4 	andeq	r1, r0, r4, ror #9
     d38:	4c030009 	stcmi	0, cr0, [r3], {9}
     d3c:	06000150 			; <UNDEFINED> instruction: 0x06000150
     d40:	e49f1c23 	ldr	r1, [pc], #3107	; d48 <PCA9685Servo::SetAngle(unsigned char, unsigned char)+0x8c>
     d44:	e7000014 	smlad	r0, r4, r0, r0
     d48:	01000014 	tsteq	r0, r4, lsl r0
     d4c:	14e85000 	strbtne	r5, [r8], #0
     d50:	14f40000 	ldrbtne	r0, [r4], #0
     d54:	00090000 	andeq	r0, r9, r0
     d58:	01504c03 	cmpeq	r0, r3, lsl #24
     d5c:	20230600 	eorcs	r0, r3, r0, lsl #12
     d60:	0014f49f 	mulseq	r4, pc, r4	; <UNPREDICTABLE>
     d64:	0014f700 	andseq	pc, r4, r0, lsl #14
     d68:	50000100 	andpl	r0, r0, r0, lsl #2
     d6c:	000014f8 	strdeq	r1, [r0], -r8
     d70:	00001504 	andeq	r1, r0, r4, lsl #10
     d74:	4c030009 	stcmi	0, cr0, [r3], {9}
     d78:	06000150 			; <UNDEFINED> instruction: 0x06000150
     d7c:	049f2423 	ldreq	r2, [pc], #1059	; d84 <PCA9685::PCA9685(unsigned char)+0x18>
     d80:	07000015 	smladeq	r0, r5, r0, r0
     d84:	01000015 	tsteq	r0, r5, lsl r0
     d88:	15085000 	strne	r5, [r8, #-0]
     d8c:	15140000 	ldrne	r0, [r4, #-0]
     d90:	00090000 	andeq	r0, r9, r0
     d94:	01504c03 	cmpeq	r0, r3, lsl #24
     d98:	28230600 	stmdacs	r3!, {r9, sl}
     d9c:	0015149f 	mulseq	r5, pc, r4	; <UNPREDICTABLE>
     da0:	00151700 	andseq	r1, r5, r0, lsl #14
     da4:	50000100 	andpl	r0, r0, r0, lsl #2
     da8:	00001518 	andeq	r1, r0, r8, lsl r5
     dac:	00001524 	andeq	r1, r0, r4, lsr #10
     db0:	4c030009 	stcmi	0, cr0, [r3], {9}
     db4:	06000150 			; <UNDEFINED> instruction: 0x06000150
     db8:	249f2c23 	ldrcs	r2, [pc], #3107	; dc0 <PCA9685::PCA9685(unsigned char)+0x54>
     dbc:	27000015 	smladcs	r0, r5, r0, r0
     dc0:	01000015 	tsteq	r0, r5, lsl r0
     dc4:	00005000 	andeq	r5, r0, r0
     dc8:	00000000 	andeq	r0, r0, r0
     dcc:	14a80000 	strtne	r0, [r8], #0
     dd0:	152a0000 	strne	r0, [sl, #-0]!
     dd4:	00060000 	andeq	r0, r6, r0
     dd8:	1481140c 	strne	r1, [r1], #1036	; 0x40c
     ddc:	00009f0a 	andeq	r9, r0, sl, lsl #30
     de0:	00000000 	andeq	r0, r0, r0
     de4:	13b60000 			; <UNDEFINED> instruction: 0x13b60000
     de8:	13c40000 	bicne	r0, r4, #0
     dec:	00020000 	andeq	r0, r2, r0
     df0:	00009f35 	andeq	r9, r0, r5, lsr pc
     df4:	00000000 	andeq	r0, r0, r0
     df8:	13b60000 			; <UNDEFINED> instruction: 0x13b60000
     dfc:	13c40000 	bicne	r0, r4, #0
     e00:	00020000 	andeq	r0, r2, r0
     e04:	00009f32 	andeq	r9, r0, r2, lsr pc
     e08:	00000000 	andeq	r0, r0, r0
     e0c:	13c40000 	bicne	r0, r4, #0
     e10:	13d20000 	bicsne	r0, r2, #0
     e14:	00020000 	andeq	r0, r2, r0
     e18:	00009f35 	andeq	r9, r0, r5, lsr pc
     e1c:	00000000 	andeq	r0, r0, r0
     e20:	13c40000 	bicne	r0, r4, #0
     e24:	13d20000 	bicsne	r0, r2, #0
     e28:	00020000 	andeq	r0, r2, r0
     e2c:	00009f33 	andeq	r9, r0, r3, lsr pc
     e30:	00000000 	andeq	r0, r0, r0
     e34:	13d20000 	bicsne	r0, r2, #0
     e38:	13e00000 	mvnne	r0, #0
     e3c:	00020000 	andeq	r0, r2, r0
     e40:	00009f35 	andeq	r9, r0, r5, lsr pc
     e44:	00000000 	andeq	r0, r0, r0
     e48:	13d20000 	bicsne	r0, r2, #0
     e4c:	13e00000 	mvnne	r0, #0
     e50:	00020000 	andeq	r0, r2, r0
     e54:	00009f34 	andeq	r9, r0, r4, lsr pc
     e58:	00000000 	andeq	r0, r0, r0
     e5c:	13e00000 	mvnne	r0, #0
     e60:	13ee0000 	mvnne	r0, #0
     e64:	00020000 	andeq	r0, r2, r0
     e68:	00009f35 	andeq	r9, r0, r5, lsr pc
     e6c:	00000000 	andeq	r0, r0, r0
     e70:	13ee0000 	mvnne	r0, #0
     e74:	13fc0000 	mvnsne	r0, #0
     e78:	00020000 	andeq	r0, r2, r0
     e7c:	00009f35 	andeq	r9, r0, r5, lsr pc
     e80:	00000000 	andeq	r0, r0, r0
     e84:	13ee0000 	mvnne	r0, #0
     e88:	13fc0000 	mvnsne	r0, #0
     e8c:	00020000 	andeq	r0, r2, r0
     e90:	00009f36 	andeq	r9, r0, r6, lsr pc
     e94:	00000000 	andeq	r0, r0, r0
     e98:	13fc0000 	mvnsne	r0, #0
     e9c:	140a0000 	strne	r0, [sl], #-0
     ea0:	00020000 	andeq	r0, r2, r0
     ea4:	00009f35 	andeq	r9, r0, r5, lsr pc
     ea8:	00000000 	andeq	r0, r0, r0
     eac:	13fc0000 	mvnsne	r0, #0
     eb0:	140a0000 	strne	r0, [sl], #-0
     eb4:	00020000 	andeq	r0, r2, r0
     eb8:	00009f37 	andeq	r9, r0, r7, lsr pc
     ebc:	00000000 	andeq	r0, r0, r0
     ec0:	140a0000 	strne	r0, [sl], #-0
     ec4:	14180000 	ldrne	r0, [r8], #-0
     ec8:	00020000 	andeq	r0, r2, r0
     ecc:	00009f35 	andeq	r9, r0, r5, lsr pc
     ed0:	00000000 	andeq	r0, r0, r0
     ed4:	140a0000 	strne	r0, [sl], #-0
     ed8:	14180000 	ldrne	r0, [r8], #-0
     edc:	00020000 	andeq	r0, r2, r0
     ee0:	00009f38 	andeq	r9, r0, r8, lsr pc
     ee4:	00000000 	andeq	r0, r0, r0
     ee8:	14180000 	ldrne	r0, [r8], #-0
     eec:	14260000 	strtne	r0, [r6], #-0
     ef0:	00020000 	andeq	r0, r2, r0
     ef4:	00009f35 	andeq	r9, r0, r5, lsr pc
     ef8:	00000000 	andeq	r0, r0, r0
     efc:	14180000 	ldrne	r0, [r8], #-0
     f00:	14260000 	strtne	r0, [r6], #-0
     f04:	00020000 	andeq	r0, r2, r0
     f08:	00009f39 	andeq	r9, r0, r9, lsr pc
     f0c:	00000000 	andeq	r0, r0, r0
     f10:	14260000 	strtne	r0, [r6], #-0
     f14:	14320000 	ldrtne	r0, [r2], #-0
     f18:	00020000 	andeq	r0, r2, r0
     f1c:	00009f35 	andeq	r9, r0, r5, lsr pc
     f20:	00000000 	andeq	r0, r0, r0
     f24:	14260000 	strtne	r0, [r6], #-0
     f28:	14320000 	ldrtne	r0, [r2], #-0
     f2c:	00020000 	andeq	r0, r2, r0
     f30:	00009f3a 	andeq	r9, r0, sl, lsr pc
     f34:	00000000 	andeq	r0, r0, r0
     f38:	14320000 	ldrtne	r0, [r2], #-0
     f3c:	143e0000 	ldrtne	r0, [lr], #-0
     f40:	00020000 	andeq	r0, r2, r0
     f44:	00009f35 	andeq	r9, r0, r5, lsr pc
     f48:	00000000 	andeq	r0, r0, r0
     f4c:	14320000 	ldrtne	r0, [r2], #-0
     f50:	143e0000 	ldrtne	r0, [lr], #-0
     f54:	00020000 	andeq	r0, r2, r0
     f58:	00009f3b 	andeq	r9, r0, fp, lsr pc
     f5c:	00000000 	andeq	r0, r0, r0
     f60:	143e0000 	ldrtne	r0, [lr], #-0
     f64:	144e0000 	strbne	r0, [lr], #-0
     f68:	00020000 	andeq	r0, r2, r0
     f6c:	00009f35 	andeq	r9, r0, r5, lsr pc
     f70:	00000000 	andeq	r0, r0, r0
     f74:	143e0000 	ldrtne	r0, [lr], #-0
     f78:	144e0000 	strbne	r0, [lr], #-0
     f7c:	00020000 	andeq	r0, r2, r0
     f80:	00009f3c 	andeq	r9, r0, ip, lsr pc
     f84:	00000000 	andeq	r0, r0, r0
     f88:	144e0000 	strbne	r0, [lr], #-0
     f8c:	145e0000 	ldrbne	r0, [lr], #-0
     f90:	00020000 	andeq	r0, r2, r0
     f94:	00009f35 	andeq	r9, r0, r5, lsr pc
     f98:	00000000 	andeq	r0, r0, r0
     f9c:	144e0000 	strbne	r0, [lr], #-0
     fa0:	145e0000 	ldrbne	r0, [lr], #-0
     fa4:	00020000 	andeq	r0, r2, r0
     fa8:	00009f3d 	andeq	r9, r0, sp, lsr pc
     fac:	00000000 	andeq	r0, r0, r0
     fb0:	145e0000 	ldrbne	r0, [lr], #-0
     fb4:	146e0000 	strbtne	r0, [lr], #-0
     fb8:	00020000 	andeq	r0, r2, r0
     fbc:	00009f35 	andeq	r9, r0, r5, lsr pc
     fc0:	00000000 	andeq	r0, r0, r0
     fc4:	145e0000 	ldrbne	r0, [lr], #-0
     fc8:	146e0000 	strbtne	r0, [lr], #-0
     fcc:	00020000 	andeq	r0, r2, r0
     fd0:	00009f3e 	andeq	r9, r0, lr, lsr pc
     fd4:	00000000 	andeq	r0, r0, r0
     fd8:	146e0000 	strbtne	r0, [lr], #-0
     fdc:	147e0000 	ldrbtne	r0, [lr], #-0
     fe0:	00020000 	andeq	r0, r2, r0
     fe4:	00009f35 	andeq	r9, r0, r5, lsr pc
     fe8:	00000000 	andeq	r0, r0, r0
     fec:	146e0000 	strbtne	r0, [lr], #-0
     ff0:	147e0000 	ldrbtne	r0, [lr], #-0
     ff4:	00020000 	andeq	r0, r2, r0
     ff8:	00009f3f 	andeq	r9, r0, pc, lsr pc
     ffc:	00000000 	andeq	r0, r0, r0
    1000:	1ab00000 	bne	fec01008 <__bss_end__+0xfebebf9c>
    1004:	1ad40000 	bne	ff50100c <__bss_end__+0xff4ebfa0>
    1008:	00010000 	andeq	r0, r1, r0
    100c:	001ad450 	andseq	sp, sl, r0, asr r4
    1010:	001afc00 	andseq	pc, sl, r0, lsl #24
    1014:	59000100 	stmdbpl	r0, {r8}
    1018:	00001afc 	strdeq	r1, [r0], -ip
    101c:	00001b02 	andeq	r1, r0, r2, lsl #22
    1020:	01790003 	cmneq	r9, r3
    1024:	001b029f 	mulseq	fp, pc, r2	; <UNPREDICTABLE>
    1028:	001c5000 	andseq	r5, ip, r0
    102c:	f3000400 	vshl.u8	d0, d0, d0
    1030:	009f5001 	addseq	r5, pc, r1
    1034:	00000000 	andeq	r0, r0, r0
    1038:	b0000000 	andlt	r0, r0, r0
    103c:	c200001a 	andgt	r0, r0, #26
    1040:	0100001a 	tsteq	r0, sl, lsl r0
    1044:	1ac25100 	bne	ff09544c <__bss_end__+0xff0803e0>
    1048:	1b8a0000 	blne	fe281050 <__bss_end__+0xfe26bfe4>
    104c:	00010000 	andeq	r0, r1, r0
    1050:	001b8a56 	andseq	r8, fp, r6, asr sl
    1054:	001c5000 	andseq	r5, ip, r0
    1058:	f3000400 	vshl.u8	d0, d0, d0
    105c:	009f5101 	addseq	r5, pc, r1, lsl #2
    1060:	00000000 	andeq	r0, r0, r0
    1064:	b0000000 	andlt	r0, r0, r0
    1068:	be00001a 	mcrlt	0, 0, r0, cr0, cr10, {0}
    106c:	0100001a 	tsteq	r0, sl, lsl r0
    1070:	1abe5200 	bne	fef95878 <__bss_end__+0xfef8080c>
    1074:	1c1a0000 	ldcne	0, cr0, [sl], {-0}
    1078:	00020000 	andeq	r0, r2, r0
    107c:	1c1a007d 	ldcne	0, cr0, [sl], {125}	; 0x7d
    1080:	1c1e0000 	ldcne	0, cr0, [lr], {-0}
    1084:	00020000 	andeq	r0, r2, r0
    1088:	1c1e5091 	ldcne	0, cr5, [lr], {145}	; 0x91
    108c:	1c500000 	mrane	r0, r0, acc0
    1090:	00020000 	andeq	r0, r2, r0
    1094:	0000007d 	andeq	r0, r0, sp, ror r0
    1098:	00000000 	andeq	r0, r0, r0
    109c:	1ab00000 	bne	fec010a4 <__bss_end__+0xfebec038>
    10a0:	1ad20000 	bne	ff4810a8 <__bss_end__+0xff46c03c>
    10a4:	00010000 	andeq	r0, r1, r0
    10a8:	001ad253 	andseq	sp, sl, r3, asr r2
    10ac:	001b8a00 	andseq	r8, fp, r0, lsl #20
    10b0:	54000100 	strpl	r0, [r0], #-256	; 0xffffff00
    10b4:	00001b8a 	andeq	r1, r0, sl, lsl #23
    10b8:	00001c50 	andeq	r1, r0, r0, asr ip
    10bc:	01f30004 	mvnseq	r0, r4
    10c0:	00009f53 	andeq	r9, r0, r3, asr pc
    10c4:	00000000 	andeq	r0, r0, r0
    10c8:	1ad80000 	bne	ff6010d0 <__bss_end__+0xff5ec064>
    10cc:	1adb0000 	bne	ff6c10d4 <__bss_end__+0xff6ac068>
    10d0:	00010000 	andeq	r0, r1, r0
    10d4:	001adb53 	andseq	sp, sl, r3, asr fp
    10d8:	001afe00 	andseq	pc, sl, r0, lsl #28
    10dc:	55000100 	strpl	r0, [r0, #-256]	; 0xffffff00
    10e0:	00001afe 	strdeq	r1, [r0], -lr
    10e4:	00001c50 	andeq	r1, r0, r0, asr ip
    10e8:	54910002 	ldrpl	r0, [r1], #2
	...
    10f4:	00001aee 	andeq	r1, r0, lr, ror #21
    10f8:	00001be4 	andeq	r1, r0, r4, ror #23
    10fc:	e45a0001 	ldrb	r0, [sl], #-1
    1100:	e700001b 	smlad	r0, fp, r0, r0
    1104:	0100001b 	tsteq	r0, fp, lsl r0
    1108:	1be75000 	blne	ff9d5110 <__bss_end__+0xff9c00a4>
    110c:	1c500000 	mrane	r0, r0, acc0
    1110:	00010000 	andeq	r0, r1, r0
    1114:	0000005a 	andeq	r0, r0, sl, asr r0
    1118:	00000000 	andeq	r0, r0, r0
    111c:	001aee00 	andseq	lr, sl, r0, lsl #28
    1120:	001b0200 	andseq	r0, fp, r0, lsl #4
    1124:	56000100 	strpl	r0, [r0], -r0, lsl #2
    1128:	00001b08 	andeq	r1, r0, r8, lsl #22
    112c:	00001b0a 	andeq	r1, r0, sl, lsl #22
    1130:	00760006 	rsbseq	r0, r6, r6
    1134:	9f1c0075 	svcls	0x001c0075
    1138:	00001b0a 	andeq	r1, r0, sl, lsl #22
    113c:	00001b0e 	andeq	r1, r0, lr, lsl #22
    1140:	0e520001 	cdpeq	0, 5, cr0, cr2, cr1, {0}
    1144:	1600001b 			; <UNDEFINED> instruction: 0x1600001b
    1148:	0600001b 			; <UNDEFINED> instruction: 0x0600001b
    114c:	75007600 	strvc	r7, [r0, #-1536]	; 0xfffffa00
    1150:	5c9f1c00 	ldcpl	12, cr1, [pc], {0}
    1154:	aa00001b 	bge	11c8 <PCA9685::SetFrequency(unsigned short)+0x108>
    1158:	0100001b 	tsteq	r0, fp, lsl r0
    115c:	1baa5400 	blne	fea96164 <__bss_end__+0xfea810f8>
    1160:	1bae0000 	blne	feb81168 <__bss_end__+0xfeb6c0fc>
    1164:	00030000 	andeq	r0, r3, r0
    1168:	b49f0174 	ldrlt	r0, [pc], #372	; 1170 <PCA9685::SetFrequency(unsigned short)+0xb0>
    116c:	ea00001b 	b	11e0 <PCA9685::SetFrequency(unsigned short)+0x120>
    1170:	0100001b 	tsteq	r0, fp, lsl r0
    1174:	1bea5400 	blne	ffa9617c <__bss_end__+0xffa81110>
    1178:	1bee0000 	blne	ffb81180 <__bss_end__+0xffb6c114>
    117c:	00030000 	andeq	r0, r3, r0
    1180:	f09f0174 			; <UNDEFINED> instruction: 0xf09f0174
    1184:	fe00001b 	mcr2	0, 0, r0, cr0, cr11, {0}
    1188:	0100001b 	tsteq	r0, fp, lsl r0
    118c:	00005400 	andeq	r5, r0, r0, lsl #8
    1190:	00000000 	andeq	r0, r0, r0
    1194:	1aee0000 	bne	ffb8119c <__bss_end__+0xffb6c130>
    1198:	1b020000 	blne	811a0 <__bss_end__+0x6c134>
    119c:	00020000 	andeq	r0, r2, r0
    11a0:	1b029f30 	blne	a8e68 <__bss_end__+0x93dfc>
    11a4:	1b2a0000 	blne	a811ac <__bss_end__+0xa6c140>
    11a8:	00010000 	andeq	r0, r1, r0
    11ac:	001b5c55 	andseq	r5, fp, r5, asr ip
    11b0:	001b8a00 	andseq	r8, fp, r0, lsl #20
    11b4:	30000200 	andcc	r0, r0, r0, lsl #4
    11b8:	001b8a9f 	mulseq	fp, pc, sl	; <UNPREDICTABLE>
    11bc:	001bde00 	andseq	sp, fp, r0, lsl #28
    11c0:	56000100 	strpl	r0, [r0], -r0, lsl #2
    11c4:	00001bde 	ldrdeq	r1, [r0], -lr
    11c8:	00001be2 	andeq	r1, r0, r2, ror #23
    11cc:	01760003 	cmneq	r6, r3
    11d0:	0000009f 	muleq	r0, pc, r0	; <UNPREDICTABLE>
    11d4:	00000000 	andeq	r0, r0, r0
    11d8:	001aee00 	andseq	lr, sl, r0, lsl #28
    11dc:	001c0c00 	andseq	r0, ip, r0, lsl #24
    11e0:	30000200 	andcc	r0, r0, r0, lsl #4
    11e4:	001c0c9f 	mulseq	ip, pc, ip	; <UNPREDICTABLE>
    11e8:	001c1e00 	andseq	r1, ip, r0, lsl #28
    11ec:	54000100 	strpl	r0, [r0], #-256	; 0xffffff00
    11f0:	00001c1e 	andeq	r1, r0, lr, lsl ip
    11f4:	00001c50 	andeq	r1, r0, r0, asr ip
    11f8:	9f300002 	svcls	0x00300002
	...
    1204:	00001b02 	andeq	r1, r0, r2, lsl #22
    1208:	00001b06 	andeq	r1, r0, r6, lsl #22
    120c:	1e510001 	cdpne	0, 5, cr0, cr1, cr1, {0}
    1210:	2700001b 	smladcs	r0, fp, r0, r0
    1214:	0100001b 	tsteq	r0, fp, lsl r0
    1218:	00005100 	andeq	r5, r0, r0, lsl #2
    121c:	00000000 	andeq	r0, r0, r0
    1220:	19800000 	stmibne	r0, {}	; <UNPREDICTABLE>
    1224:	19a00000 	stmibne	r0!, {}	; <UNPREDICTABLE>
    1228:	00010000 	andeq	r0, r1, r0
    122c:	0019a050 	andseq	sl, r9, r0, asr r0
    1230:	0019fe00 	andseq	pc, r9, r0, lsl #28
    1234:	56000100 	strpl	r0, [r0], -r0, lsl #2
    1238:	000019fe 	strdeq	r1, [r0], -lr
    123c:	00001ab0 			; <UNDEFINED> instruction: 0x00001ab0
    1240:	01f30004 	mvnseq	r0, r4
    1244:	00009f50 	andeq	r9, r0, r0, asr pc
    1248:	00000000 	andeq	r0, r0, r0
    124c:	19800000 	stmibne	r0, {}	; <UNPREDICTABLE>
    1250:	19960000 	ldmibne	r6, {}	; <UNPREDICTABLE>
    1254:	00010000 	andeq	r0, r1, r0
    1258:	00199651 	andseq	r9, r9, r1, asr r6
    125c:	001ab000 	andseq	fp, sl, r0
    1260:	59000100 	stmdbpl	r0, {r8}
	...
    126c:	00001980 	andeq	r1, r0, r0, lsl #19
    1270:	0000198c 	andeq	r1, r0, ip, lsl #19
    1274:	8c520001 	mrrchi	0, 0, r0, r2, cr1
    1278:	12000019 	andne	r0, r0, #25
    127c:	0100001a 	tsteq	r0, sl, lsl r0
    1280:	1a125400 	bne	496288 <__bss_end__+0x48121c>
    1284:	1ab00000 	bne	fec0128c <__bss_end__+0xfebec220>
    1288:	00040000 	andeq	r0, r4, r0
    128c:	9f5201f3 	svcls	0x005201f3
	...
    1298:	0000199e 	muleq	r0, lr, r9
    129c:	00001a12 	andeq	r1, r0, r2, lsl sl
    12a0:	12550001 	subsne	r0, r5, #1
    12a4:	b000001a 	andlt	r0, r0, sl, lsl r0
    12a8:	0300001a 	movweq	r0, #26
    12ac:	9f087a00 	svcls	0x00087a00
	...
    12b8:	000019a8 	andeq	r1, r0, r8, lsr #19
    12bc:	00001a32 	andeq	r1, r0, r2, lsr sl
    12c0:	32580001 	subscc	r0, r8, #1
    12c4:	3500001a 	strcc	r0, [r0, #-26]	; 0xffffffe6
    12c8:	0100001a 	tsteq	r0, sl, lsl r0
    12cc:	1a355000 	bne	d552d4 <__bss_end__+0xd40268>
    12d0:	1a540000 	bne	15012d8 <__bss_end__+0x14ec26c>
    12d4:	00010000 	andeq	r0, r1, r0
    12d8:	001a5458 	andseq	r5, sl, r8, asr r4
    12dc:	001a5700 	andseq	r5, sl, r0, lsl #14
    12e0:	50000100 	andpl	r0, r0, r0, lsl #2
    12e4:	00001a57 	andeq	r1, r0, r7, asr sl
    12e8:	00001ab0 			; <UNDEFINED> instruction: 0x00001ab0
    12ec:	00580001 	subseq	r0, r8, r1
    12f0:	00000000 	andeq	r0, r0, r0
    12f4:	a8000000 	stmdage	r0, {}	; <UNPREDICTABLE>
    12f8:	d8000019 	stmdale	r0, {r0, r3, r4}
    12fc:	01000019 	tsteq	r0, r9, lsl r0
    1300:	19d85700 	ldmibne	r8, {r8, r9, sl, ip, lr}^
    1304:	19db0000 	ldmibne	fp, {}^	; <UNPREDICTABLE>
    1308:	00010000 	andeq	r0, r1, r0
    130c:	0019db50 	andseq	sp, r9, r0, asr fp
    1310:	001ab000 	andseq	fp, sl, r0
    1314:	57000100 	strpl	r0, [r0, -r0, lsl #2]
	...
    1320:	000019a8 	andeq	r1, r0, r8, lsr #19
    1324:	00001a38 	andeq	r1, r0, r8, lsr sl
    1328:	38540001 	ldmdacc	r4, {r0}^
    132c:	3c00001a 	stccc	0, cr0, [r0], {26}
    1330:	0300001a 	movweq	r0, #26
    1334:	9f017400 	svcls	0x00017400
    1338:	00001a42 	andeq	r1, r0, r2, asr #20
    133c:	00001a5a 	andeq	r1, r0, sl, asr sl
    1340:	5a540001 	bpl	150134c <__bss_end__+0x14ec2e0>
    1344:	5e00001a 	mcrpl	0, 0, r0, cr0, cr10, {0}
    1348:	0300001a 	movweq	r0, #26
    134c:	9f017400 	svcls	0x00017400
    1350:	00001a60 	andeq	r1, r0, r0, ror #20
    1354:	00001a6e 	andeq	r1, r0, lr, ror #20
    1358:	00540001 	subseq	r0, r4, r1
    135c:	00000000 	andeq	r0, r0, r0
    1360:	a8000000 	stmdage	r0, {}	; <UNPREDICTABLE>
    1364:	12000019 	andne	r0, r0, #25
    1368:	0200001a 	andeq	r0, r0, #26
    136c:	129f3000 	addsne	r3, pc, #0
    1370:	5000001a 	andpl	r0, r0, sl, lsl r0
    1374:	0100001a 	tsteq	r0, sl, lsl r0
    1378:	1a505600 	bne	1416b80 <__bss_end__+0x1401b14>
    137c:	1a520000 	bne	1481384 <__bss_end__+0x146c318>
    1380:	00030000 	andeq	r0, r3, r0
    1384:	549f0176 	ldrpl	r0, [pc], #374	; 138c <PCA9685::GetFrequency()+0x164>
    1388:	6e00001a 	mcrvs	0, 0, r0, cr0, cr10, {0}
    138c:	0800001a 	stmdaeq	r0, {r1, r3, r4}
    1390:	79007600 	stmdbvc	r0, {r9, sl, ip, sp, lr}
    1394:	01231c00 			; <UNDEFINED> instruction: 0x01231c00
    1398:	0000009f 	muleq	r0, pc, r0	; <UNPREDICTABLE>
    139c:	00000000 	andeq	r0, r0, r0
    13a0:	0019a800 	andseq	sl, r9, r0, lsl #16
    13a4:	001a7c00 	andseq	r7, sl, r0, lsl #24
    13a8:	30000200 	andcc	r0, r0, r0, lsl #4
    13ac:	001a7c9f 	mulseq	sl, pc, ip	; <UNPREDICTABLE>
    13b0:	001a8c00 	andseq	r8, sl, r0, lsl #24
    13b4:	54000100 	strpl	r0, [r0], #-256	; 0xffffff00
    13b8:	00001a8c 	andeq	r1, r0, ip, lsl #21
    13bc:	00001ab0 			; <UNDEFINED> instruction: 0x00001ab0
    13c0:	9f300002 	svcls	0x00300002
	...
    13cc:	0000121c 	andeq	r1, r0, ip, lsl r2
    13d0:	0000123c 	andeq	r1, r0, ip, lsr r2
    13d4:	3c500001 	mrrccc	0, 0, r0, r0, cr1	; <UNPREDICTABLE>
    13d8:	d8000012 	stmdale	r0, {r1, r4}
    13dc:	01000012 	tsteq	r0, r2, lsl r0
    13e0:	12d85800 	sbcsne	r5, r8, #0, 16
    13e4:	13380000 	teqne	r8, #0
    13e8:	00040000 	andeq	r0, r4, r0
    13ec:	9f5001f3 	svcls	0x005001f3
    13f0:	00001338 	andeq	r1, r0, r8, lsr r3
    13f4:	00001340 	andeq	r1, r0, r0, asr #6
    13f8:	40580001 	subsmi	r0, r8, r1
    13fc:	58000013 	stmdapl	r0, {r0, r1, r4}
    1400:	04000013 	streq	r0, [r0], #-19	; 0xffffffed
    1404:	5001f300 	andpl	pc, r1, r0, lsl #6
    1408:	0013589f 	mulseq	r3, pc, r8	; <UNPREDICTABLE>
    140c:	0013a400 	andseq	sl, r3, r0, lsl #8
    1410:	58000100 	stmdapl	r0, {r8}
	...
    141c:	0000121c 	andeq	r1, r0, ip, lsl r2
    1420:	00001236 	andeq	r1, r0, r6, lsr r2
    1424:	36510001 	ldrbcc	r0, [r1], -r1
    1428:	70000012 	andvc	r0, r0, r2, lsl r0
    142c:	01000012 	tsteq	r0, r2, lsl r0
    1430:	12705400 	rsbsne	r5, r0, #0, 8
    1434:	13580000 	cmpne	r8, #0
    1438:	00040000 	andeq	r0, r4, r0
    143c:	9f5101f3 	svcls	0x005101f3
    1440:	00001358 	andeq	r1, r0, r8, asr r3
    1444:	000013a4 	andeq	r1, r0, r4, lsr #7
    1448:	00540001 	subseq	r0, r4, r1
    144c:	00000000 	andeq	r0, r0, r0
    1450:	3a000000 	bcc	1458 <PCA9685::GetOCH()+0x14>
    1454:	b8000012 	stmdalt	r0, {r1, r4}
    1458:	01000012 	tsteq	r0, r2, lsl r0
    145c:	12b85900 	adcsne	r5, r8, #0, 18
    1460:	12c10000 	sbcne	r0, r1, #0
    1464:	00010000 	andeq	r0, r1, r0
    1468:	0012c150 	andseq	ip, r2, r0, asr r1
    146c:	00130400 	andseq	r0, r3, r0, lsl #8
    1470:	59000100 	stmdbpl	r0, {r8}
    1474:	00001304 	andeq	r1, r0, r4, lsl #6
    1478:	0000130d 	andeq	r1, r0, sp, lsl #6
    147c:	0d500001 	ldcleq	0, cr0, [r0, #-4]
    1480:	38000013 	stmdacc	r0, {r0, r1, r4}
    1484:	01000013 	tsteq	r0, r3, lsl r0
    1488:	13385900 	teqne	r8, #0, 18
    148c:	13400000 	movtne	r0, #0
    1490:	00010000 	andeq	r0, r1, r0
    1494:	00134050 	andseq	r4, r3, r0, asr r0
    1498:	0013a400 	andseq	sl, r3, r0, lsl #8
    149c:	59000100 	stmdbpl	r0, {r8}
	...
    14a8:	00001244 	andeq	r1, r0, r4, asr #4
    14ac:	0000129c 	muleq	r0, ip, r2
    14b0:	9c540001 	mrrcls	0, 0, r0, r4, cr1
    14b4:	a0000012 	andge	r0, r0, r2, lsl r0
    14b8:	03000012 	movweq	r0, #18
    14bc:	9f017400 	svcls	0x00017400
    14c0:	000012a6 	andeq	r1, r0, r6, lsr #5
    14c4:	000012ea 	andeq	r1, r0, sl, ror #5
    14c8:	ea540001 	b	15014d4 <__bss_end__+0x14ec468>
    14cc:	ee000012 	mcr	0, 0, r0, cr0, cr2, {0}
    14d0:	03000012 	movweq	r0, #18
    14d4:	9f017400 	svcls	0x00017400
    14d8:	000012f0 	strdeq	r1, [r0], -r0
    14dc:	00001310 	andeq	r1, r0, r0, lsl r3
    14e0:	10540001 	subsne	r0, r4, r1
    14e4:	14000013 	strne	r0, [r0], #-19	; 0xffffffed
    14e8:	03000013 	movweq	r0, #19
    14ec:	9f017400 	svcls	0x00017400
    14f0:	00001338 	andeq	r1, r0, r8, lsr r3
    14f4:	00001340 	andeq	r1, r0, r0, asr #6
    14f8:	58540001 	ldmdapl	r4, {r0}^
    14fc:	a4000013 	strge	r0, [r0], #-19	; 0xffffffed
    1500:	01000013 	tsteq	r0, r3, lsl r0
    1504:	00005400 	andeq	r5, r0, r0, lsl #8
    1508:	00000000 	andeq	r0, r0, r0
    150c:	12440000 	subne	r0, r4, #0
    1510:	12700000 	rsbsne	r0, r0, #0
    1514:	00020000 	andeq	r0, r2, r0
    1518:	12709f30 	rsbsne	r9, r0, #48, 30	; 0xc0
    151c:	12dc0000 	sbcsne	r0, ip, #0
    1520:	00010000 	andeq	r0, r1, r0
    1524:	0012dc5a 	andseq	sp, r2, sl, asr ip
    1528:	00131600 	andseq	r1, r3, r0, lsl #12
    152c:	78000900 	stmdavc	r0, {r8, fp}
    1530:	5001f300 	andpl	pc, r1, r0, lsl #6
    1534:	9f01231c 	svcls	0x0001231c
    1538:	00001338 	andeq	r1, r0, r8, lsr r3
    153c:	00001340 	andeq	r1, r0, r0, asr #6
    1540:	585a0001 	ldmdapl	sl, {r0}^
    1544:	a4000013 	strge	r0, [r0], #-19	; 0xffffffed
    1548:	02000013 	andeq	r0, r0, #19
    154c:	009f3000 	addseq	r3, pc, r0
    1550:	00000000 	andeq	r0, r0, r0
    1554:	44000000 	strmi	r0, [r0], #-0
    1558:	26000012 			; <UNDEFINED> instruction: 0x26000012
    155c:	02000013 	andeq	r0, r0, #19
    1560:	269f3000 	ldrcs	r3, [pc], r0
    1564:	38000013 	stmdacc	r0, {r0, r1, r4}
    1568:	01000013 	tsteq	r0, r3, lsl r0
    156c:	13385400 	teqne	r8, #0, 8
    1570:	13a40000 			; <UNDEFINED> instruction: 0x13a40000
    1574:	00020000 	andeq	r0, r2, r0
    1578:	00009f30 	andeq	r9, r0, r0, lsr pc
    157c:	00000000 	andeq	r0, r0, r0
    1580:	12440000 	subne	r0, r4, #0
    1584:	12540000 	subsne	r0, r4, #0
    1588:	00040000 	andeq	r0, r4, r0
    158c:	9f03020a 	svcls	0x0003020a
    1590:	00001358 	andeq	r1, r0, r8, asr r3
    1594:	00001362 	andeq	r1, r0, r2, ror #6
    1598:	020a0004 	andeq	r0, sl, #4
    159c:	00009f03 	andeq	r9, r0, r3, lsl #30
    15a0:	00000000 	andeq	r0, r0, r0
    15a4:	12440000 	subne	r0, r4, #0
    15a8:	12540000 	subsne	r0, r4, #0
    15ac:	00010000 	andeq	r0, r1, r0
    15b0:	00135857 	andseq	r5, r3, r7, asr r8
    15b4:	00136200 	andseq	r6, r3, r0, lsl #4
    15b8:	57000100 	strpl	r0, [r0, -r0, lsl #2]
	...
    15c4:	00001254 	andeq	r1, r0, r4, asr r2
    15c8:	00001258 	andeq	r1, r0, r8, asr r2
    15cc:	62540001 	subsvs	r0, r4, #1
    15d0:	74000013 	strvc	r0, [r0], #-19	; 0xffffffed
    15d4:	01000013 	tsteq	r0, r3, lsl r0
    15d8:	00005400 	andeq	r5, r0, r0, lsl #8
    15dc:	00000000 	andeq	r0, r0, r0
    15e0:	12540000 	subsne	r0, r4, #0
    15e4:	12580000 	subsne	r0, r8, #0
    15e8:	00030000 	andeq	r0, r3, r0
    15ec:	629f087b 	addsvs	r0, pc, #8060928	; 0x7b0000
    15f0:	74000013 	strvc	r0, [r0], #-19	; 0xffffffed
    15f4:	03000013 	movweq	r0, #19
    15f8:	9f087b00 	svcls	0x00087b00
	...
    1604:	00001258 	andeq	r1, r0, r8, asr r2
    1608:	00001358 	andeq	r1, r0, r8, asr r3
    160c:	810a0004 	tsthi	sl, r4
    1610:	13749f80 	cmnne	r4, #128, 30	; 0x200
    1614:	13a40000 			; <UNDEFINED> instruction: 0x13a40000
    1618:	00040000 	andeq	r0, r4, r0
    161c:	9f80810a 	svcls	0x0080810a
	...
    1628:	00001258 	andeq	r1, r0, r8, asr r2
    162c:	00001358 	andeq	r1, r0, r8, asr r3
    1630:	745b0001 	ldrbvc	r0, [fp], #-1
    1634:	a4000013 	strge	r0, [r0], #-19	; 0xffffffed
    1638:	01000013 	tsteq	r0, r3, lsl r0
    163c:	00005b00 	andeq	r5, r0, r0, lsl #22
    1640:	00000000 	andeq	r0, r0, r0
    1644:	11240000 			; <UNDEFINED> instruction: 0x11240000
    1648:	11440000 	mrsne	r0, (UNDEF: 68)
    164c:	00010000 	andeq	r0, r1, r0
    1650:	00114450 	andseq	r4, r1, r0, asr r4
    1654:	00121c00 	andseq	r1, r2, r0, lsl #24
    1658:	5a000100 	bpl	1a60 <PCA9685::SetFullOn(unsigned char, bool)+0xe0>
	...
    1664:	00001124 	andeq	r1, r0, r4, lsr #2
    1668:	00001132 	andeq	r1, r0, r2, lsr r1
    166c:	32510001 	subscc	r0, r1, #1
    1670:	6c000011 	stcvs	0, cr0, [r0], {17}
    1674:	01000011 	tsteq	r0, r1, lsl r0
    1678:	116c5400 	cmnne	ip, r0, lsl #8
    167c:	121c0000 	andsne	r0, ip, #0
    1680:	00040000 	andeq	r0, r4, r0
    1684:	9f5101f3 	svcls	0x005101f3
	...
    1690:	0000113a 	andeq	r1, r0, sl, lsr r1
    1694:	00001158 	andeq	r1, r0, r8, asr r1
    1698:	08790003 	ldmdaeq	r9!, {r0, r1}^
    169c:	0011589f 	mulseq	r1, pc, r8	; <UNPREDICTABLE>
    16a0:	00115b00 	andseq	r5, r1, r0, lsl #22
    16a4:	50000100 	andpl	r0, r0, r0, lsl #2
    16a8:	0000115b 	andeq	r1, r0, fp, asr r1
    16ac:	0000121c 	andeq	r1, r0, ip, lsl r2
    16b0:	08790003 	ldmdaeq	r9!, {r0, r1}^
    16b4:	0000009f 	muleq	r0, pc, r0	; <UNPREDICTABLE>
    16b8:	00000000 	andeq	r0, r0, r0
    16bc:	00114200 	andseq	r4, r1, r0, lsl #4
    16c0:	0011c600 	andseq	ip, r1, r0, lsl #12
    16c4:	58000100 	stmdapl	r0, {r8}
    16c8:	000011c6 	andeq	r1, r0, r6, asr #3
    16cc:	000011cf 	andeq	r1, r0, pc, asr #3
    16d0:	cf500001 	svcgt	0x00500001
    16d4:	1c000011 	stcne	0, cr0, [r0], {17}
    16d8:	01000012 	tsteq	r0, r2, lsl r0
    16dc:	00005800 	andeq	r5, r0, r0, lsl #16
    16e0:	00000000 	andeq	r0, r0, r0
    16e4:	11420000 	mrsne	r0, (UNDEF: 66)
    16e8:	11720000 	cmnne	r2, r0
    16ec:	00010000 	andeq	r0, r1, r0
    16f0:	00117254 	andseq	r7, r1, r4, asr r2
    16f4:	00117600 	andseq	r7, r1, r0, lsl #12
    16f8:	74000300 	strvc	r0, [r0], #-768	; 0xfffffd00
    16fc:	11889f01 	orrne	r9, r8, r1, lsl #30
    1700:	119c0000 	orrsne	r0, ip, r0
    1704:	00010000 	andeq	r0, r1, r0
    1708:	0011a654 	andseq	sl, r1, r4, asr r6
    170c:	0011d000 	andseq	sp, r1, r0
    1710:	54000100 	strpl	r0, [r0], #-256	; 0xffffff00
    1714:	000011d0 	ldrdeq	r1, [r0], -r0
    1718:	000011d2 	ldrdeq	r1, [r0], -r2
    171c:	7f740003 	svcvc	0x00740003
    1720:	0011d29f 	mulseq	r1, pc, r2	; <UNPREDICTABLE>
    1724:	0011ea00 	andseq	lr, r1, r0, lsl #20
    1728:	54000100 	strpl	r0, [r0], #-256	; 0xffffff00
	...
    1734:	00001142 	andeq	r1, r0, r2, asr #2
    1738:	0000116c 	andeq	r1, r0, ip, ror #2
    173c:	9f300002 	svcls	0x00300002
    1740:	0000116c 	andeq	r1, r0, ip, ror #2
    1744:	0000119c 	muleq	r0, ip, r1
    1748:	a6550001 	ldrbge	r0, [r5], -r1
    174c:	cc000011 	stcgt	0, cr0, [r0], {17}
    1750:	01000011 	tsteq	r0, r1, lsl r0
    1754:	11cc5500 	bicne	r5, ip, r0, lsl #10
    1758:	11d00000 	bicsne	r0, r0, r0
    175c:	00030000 	andeq	r0, r3, r0
    1760:	d09f7f75 	addsle	r7, pc, r5, ror pc	; <UNPREDICTABLE>
    1764:	1c000011 	stcne	0, cr0, [r0], {17}
    1768:	01000012 	tsteq	r0, r2, lsl r0
    176c:	00005500 	andeq	r5, r0, r0, lsl #10
    1770:	00000000 	andeq	r0, r0, r0
    1774:	11420000 	mrsne	r0, (UNDEF: 66)
    1778:	11ec0000 	mvnne	r0, r0
    177c:	00020000 	andeq	r0, r2, r0
    1780:	11ec9f30 	mvnne	r9, r0, lsr pc
    1784:	11fc0000 	mvnsne	r0, r0
    1788:	00010000 	andeq	r0, r1, r0
    178c:	0011fc54 	andseq	pc, r1, r4, asr ip	; <UNPREDICTABLE>
    1790:	00121c00 	andseq	r1, r2, r0, lsl #24
    1794:	30000200 	andcc	r0, r0, r0, lsl #4
    1798:	0000009f 	muleq	r0, pc, r0	; <UNPREDICTABLE>
    179c:	00000000 	andeq	r0, r0, r0
    17a0:	00116c00 	andseq	r6, r1, r0, lsl #24
    17a4:	00117000 	andseq	r7, r1, r0
    17a8:	51000100 	mrspl	r0, (UNDEF: 16)
    17ac:	00001190 	muleq	r0, r0, r1
    17b0:	00001199 	muleq	r0, r9, r1
    17b4:	00510001 	subseq	r0, r1, r1
    17b8:	00000000 	andeq	r0, r0, r0
    17bc:	04000000 	streq	r0, [r0], #-0
    17c0:	0c000011 	stceq	0, cr0, [r0], {17}
    17c4:	01000011 	tsteq	r0, r1, lsl r0
    17c8:	110c5000 	mrsne	r5, (UNDEF: 12)
    17cc:	11130000 	tstne	r3, r0
    17d0:	00010000 	andeq	r0, r1, r0
    17d4:	00111351 	andseq	r1, r1, r1, asr r3
    17d8:	00112200 	andseq	r2, r1, r0, lsl #4
    17dc:	f3000400 	vshl.u8	d0, d0, d0
    17e0:	009f5001 	addseq	r5, pc, r1
    17e4:	00000000 	andeq	r0, r0, r0
    17e8:	04000000 	streq	r0, [r0], #-0
    17ec:	0c000011 	stceq	0, cr0, [r0], {17}
    17f0:	13000011 	movwne	r0, #17
    17f4:	b2800c00 	addlt	r0, r0, #0, 24
    17f8:	25f70ee6 	ldrbcs	r0, [r7, #3814]!	; 0xee6
    17fc:	25f70070 	ldrbcs	r0, [r7, #112]!	; 0x70
    1800:	0a00f71b 	beq	3f474 <__bss_end__+0x2a408>
    1804:	9f1afffe 	svcls	0x001afffe
    1808:	0000110c 	andeq	r1, r0, ip, lsl #2
    180c:	00001113 	andeq	r1, r0, r3, lsl r1
    1810:	800c0013 	andhi	r0, ip, r3, lsl r0
    1814:	f70ee6b2 			; <UNDEFINED> instruction: 0xf70ee6b2
    1818:	f7007125 			; <UNDEFINED> instruction: 0xf7007125
    181c:	00f71b25 	rscseq	r1, r7, r5, lsr #22
    1820:	1afffe0a 	bne	1050 <PCA9685::SetPreScaller(unsigned char)+0x110>
    1824:	0011139f 	mulseq	r1, pc, r3	; <UNPREDICTABLE>
    1828:	00112200 	andseq	r2, r1, r0, lsl #4
    182c:	0c001400 	cfstrseq	mvf1, [r0], {-0}
    1830:	0ee6b280 	cdpeq	2, 14, cr11, cr6, cr0, {4}
    1834:	01f325f7 	ldrsheq	r2, [r3, #87]!	; 0x57
    1838:	1b25f750 	blne	97f580 <__bss_end__+0x96a514>
    183c:	fe0a00f7 	mcr2	0, 0, r0, cr10, cr7, {7}
    1840:	009f1aff 			; <UNDEFINED> instruction: 0x009f1aff
    1844:	00000000 	andeq	r0, r0, r0
    1848:	ac000000 	stcge	0, cr0, [r0], {-0}
    184c:	ba000010 	blt	1894 <PCA9685::Read(unsigned char, unsigned short*, unsigned short*)+0x88>
    1850:	01000010 	tsteq	r0, r0, lsl r0
    1854:	10ba5000 	adcsne	r5, sl, r0
    1858:	11040000 	mrsne	r0, (UNDEF: 4)
    185c:	00040000 	andeq	r0, r4, r0
    1860:	9f5001f3 	svcls	0x005001f3
	...
    186c:	000010ac 	andeq	r1, r0, ip, lsr #1
    1870:	000010bc 	strheq	r1, [r0], -ip
    1874:	3c030009 	stccc	0, cr0, [r3], {9}
    1878:	06000150 			; <UNDEFINED> instruction: 0x06000150
    187c:	bc9f1423 	cfldrslt	mvf1, [pc], {35}	; 0x23
    1880:	bf000010 	svclt	0x00000010
    1884:	01000010 	tsteq	r0, r0, lsl r0
    1888:	00005000 	andeq	r5, r0, r0
    188c:	00000000 	andeq	r0, r0, r0
    1890:	10980000 	addsne	r0, r8, r0
    1894:	10a00000 	adcne	r0, r0, r0
    1898:	00010000 	andeq	r0, r1, r0
    189c:	0010a050 	andseq	sl, r0, r0, asr r0
    18a0:	0010ac00 	andseq	sl, r0, r0, lsl #24
    18a4:	f3000400 	vshl.u8	d0, d0, d0
    18a8:	009f5001 	addseq	r5, pc, r1
    18ac:	00000000 	andeq	r0, r0, r0
    18b0:	98000000 	stmdals	r0, {}	; <UNPREDICTABLE>
    18b4:	a2000010 	andge	r0, r0, #16
    18b8:	09000010 	stmdbeq	r0, {r4}
    18bc:	503c0300 	eorspl	r0, ip, r0, lsl #6
    18c0:	23060001 	movwcs	r0, #24577	; 0x6001
    18c4:	10a29f0c 	adcne	r9, r2, ip, lsl #30
    18c8:	10a50000 	adcne	r0, r5, r0
    18cc:	00010000 	andeq	r0, r1, r0
    18d0:	00000050 	andeq	r0, r0, r0, asr r0
    18d4:	00000000 	andeq	r0, r0, r0
    18d8:	00107000 	andseq	r7, r0, r0
    18dc:	00108200 	andseq	r8, r0, r0, lsl #4
    18e0:	30000200 	andcc	r0, r0, r0, lsl #4
    18e4:	0000009f 	muleq	r0, pc, r0	; <UNPREDICTABLE>
    18e8:	00000000 	andeq	r0, r0, r0
    18ec:	00107000 	andseq	r7, r0, r0
    18f0:	00108200 	andseq	r8, r0, r0, lsl #4
    18f4:	32000200 	andcc	r0, r0, #0, 4
    18f8:	0000009f 	muleq	r0, pc, r0	; <UNPREDICTABLE>
    18fc:	00000000 	andeq	r0, r0, r0
    1900:	00102600 	andseq	r2, r0, r0, lsl #12
    1904:	00104000 	andseq	r4, r0, r0
    1908:	50000100 	andpl	r0, r0, r0, lsl #2
    190c:	00001040 	andeq	r1, r0, r0, asr #32
    1910:	00001048 	andeq	r1, r0, r8, asr #32
    1914:	4f900002 	svcmi	0x00900002
	...
    1920:	00001002 	andeq	r1, r0, r2
    1924:	00001022 	andeq	r1, r0, r2, lsr #32
    1928:	14750003 	ldrbtne	r0, [r5], #-3
    192c:	0010229f 	mulseq	r0, pc, r2	; <UNPREDICTABLE>
    1930:	00102500 	andseq	r2, r0, r0, lsl #10
    1934:	50000100 	andpl	r0, r0, r0, lsl #2
    1938:	00001025 	andeq	r1, r0, r5, lsr #32
    193c:	0000105a 	andeq	r1, r0, sl, asr r0
    1940:	14750003 	ldrbtne	r0, [r5], #-3
    1944:	0000009f 	muleq	r0, pc, r0	; <UNPREDICTABLE>
    1948:	00000000 	andeq	r0, r0, r0
    194c:	00100200 	andseq	r0, r0, r0, lsl #4
    1950:	00101000 	andseq	r1, r0, r0
    1954:	34000200 	strcc	r0, [r0], #-512	; 0xfffffe00
    1958:	0000009f 	muleq	r0, pc, r0	; <UNPREDICTABLE>
    195c:	00000000 	andeq	r0, r0, r0
    1960:	00100200 	andseq	r0, r0, r0, lsl #4
    1964:	00101000 	andseq	r1, r0, r0
    1968:	32000200 	andcc	r0, r0, #0, 4
    196c:	0000009f 	muleq	r0, pc, r0	; <UNPREDICTABLE>
    1970:	00000000 	andeq	r0, r0, r0
    1974:	00101000 	andseq	r1, r0, r0
    1978:	00101e00 	andseq	r1, r0, r0, lsl #28
    197c:	34000200 	strcc	r0, [r0], #-512	; 0xfffffe00
    1980:	0000009f 	muleq	r0, pc, r0	; <UNPREDICTABLE>
    1984:	00000000 	andeq	r0, r0, r0
    1988:	00101000 	andseq	r1, r0, r0
    198c:	00101e00 	andseq	r1, r0, r0, lsl #28
    1990:	33000200 	movwcc	r0, #512	; 0x200
    1994:	0000009f 	muleq	r0, pc, r0	; <UNPREDICTABLE>
    1998:	00000000 	andeq	r0, r0, r0
    199c:	000f5400 	andeq	r5, pc, r0, lsl #8
    19a0:	000f6a00 	andeq	r6, pc, r0, lsl #20
    19a4:	50000100 	andpl	r0, r0, r0, lsl #2
    19a8:	00000f6a 	andeq	r0, r0, sl, ror #30
    19ac:	00000ff0 	strdeq	r0, [r0], -r0	; <UNPREDICTABLE>
    19b0:	01f30004 	mvnseq	r0, r4
    19b4:	00009f50 	andeq	r9, r0, r0, asr pc
    19b8:	00000000 	andeq	r0, r0, r0
    19bc:	0f660000 	svceq	0x00660000
    19c0:	0f860000 	svceq	0x00860000
    19c4:	00010000 	andeq	r0, r1, r0
    19c8:	000f8654 	andeq	r8, pc, r4, asr r6	; <UNPREDICTABLE>
    19cc:	000fb000 	andeq	fp, pc, r0
    19d0:	74000300 	strvc	r0, [r0], #-768	; 0xfffffd00
    19d4:	0fb09f60 	svceq	0x00b09f60
    19d8:	0fc20000 	svceq	0x00c20000
    19dc:	00030000 	andeq	r0, r3, r0
    19e0:	009f7875 	addseq	r7, pc, r5, ror r8	; <UNPREDICTABLE>
    19e4:	00000000 	andeq	r0, r0, r0
    19e8:	66000000 	strvs	r0, [r0], -r0
    19ec:	6a00000f 	bvs	1a30 <PCA9685::SetFullOn(unsigned char, bool)+0xb0>
    19f0:	0300000f 	movweq	r0, #15
    19f4:	9f047400 	svcls	0x00047400
    19f8:	00000f6a 	andeq	r0, r0, sl, ror #30
    19fc:	00000f6d 	andeq	r0, r0, sp, ror #30
    1a00:	6d500001 	ldclvs	0, cr0, [r0, #-4]
    1a04:	8600000f 	strhi	r0, [r0], -pc
    1a08:	0300000f 	movweq	r0, #15
    1a0c:	9f047400 	svcls	0x00047400
    1a10:	00000f86 	andeq	r0, r0, r6, lsl #31
    1a14:	00000fb0 			; <UNDEFINED> instruction: 0x00000fb0
    1a18:	64740003 	ldrbtvs	r0, [r4], #-3
    1a1c:	000fb09f 	muleq	pc, pc, r0	; <UNPREDICTABLE>
    1a20:	000fc200 	andeq	ip, pc, r0, lsl #4
    1a24:	75000300 	strvc	r0, [r0, #-768]	; 0xfffffd00
    1a28:	00009f7c 	andeq	r9, r0, ip, ror pc
    1a2c:	00000000 	andeq	r0, r0, r0
    1a30:	0f840000 	svceq	0x00840000
    1a34:	0fc20000 	svceq	0x00c20000
    1a38:	00010000 	andeq	r0, r1, r0
    1a3c:	00000055 	andeq	r0, r0, r5, asr r0
    1a40:	00000000 	andeq	r0, r0, r0
    1a44:	000f8600 	andeq	r8, pc, r0, lsl #12
    1a48:	000fb000 	andeq	fp, pc, r0
    1a4c:	54000100 	strpl	r0, [r0], #-256	; 0xffffff00
    1a50:	00000fb0 			; <UNDEFINED> instruction: 0x00000fb0
    1a54:	00000fc2 	andeq	r0, r0, r2, asr #31
    1a58:	18750003 	ldmdane	r5!, {r0, r1}^
    1a5c:	0000009f 	muleq	r0, pc, r0	; <UNPREDICTABLE>
    1a60:	00000000 	andeq	r0, r0, r0
    1a64:	000fba00 	andeq	fp, pc, r0, lsl #20
    1a68:	000fd600 	andeq	sp, pc, r0, lsl #12
    1a6c:	74000600 	strvc	r0, [r0], #-1536	; 0xfffffa00
    1a70:	1aff0800 	bne	fffc3a78 <__bss_end__+0xfffaea0c>
    1a74:	0000009f 	muleq	r0, pc, r0	; <UNPREDICTABLE>
    1a78:	00000000 	andeq	r0, r0, r0
    1a7c:	000f8600 	andeq	r8, pc, r0, lsl #12
    1a80:	000fd600 	andeq	sp, pc, r0, lsl #12
    1a84:	76000900 	strvc	r0, [r0], -r0, lsl #18
    1a88:	0c480c00 	mcrreq	12, 0, r0, r8, cr0
    1a8c:	9f210006 	svcls	0x00210006
	...
    1a98:	00000f86 	andeq	r0, r0, r6, lsl #31
    1a9c:	00000f8e 	andeq	r0, r0, lr, lsl #31
    1aa0:	00570001 	subseq	r0, r7, r1
    1aa4:	00000000 	andeq	r0, r0, r0
    1aa8:	a6000000 	strge	r0, [r0], -r0
    1aac:	ba00000f 	blt	1af0 <PCA9685::SetFullOff(unsigned char, bool)+0x3c>
    1ab0:	0100000f 	tsteq	r0, pc
    1ab4:	00005000 	andeq	r5, r0, r0
    1ab8:	00000000 	andeq	r0, r0, r0
    1abc:	0fc20000 	svceq	0x00c20000
    1ac0:	0fd20000 	svceq	0x00d20000
    1ac4:	00010000 	andeq	r0, r1, r0
    1ac8:	00000055 	andeq	r0, r0, r5, asr r0
    1acc:	00000000 	andeq	r0, r0, r0
    1ad0:	000fc200 	andeq	ip, pc, r0, lsl #4
    1ad4:	000fc400 	andeq	ip, pc, r0, lsl #8
    1ad8:	75000300 	strvc	r0, [r0, #-768]	; 0xfffffd00
    1adc:	0fc49f04 	svceq	0x00c49f04
    1ae0:	0fc70000 	svceq	0x00c70000
    1ae4:	00010000 	andeq	r0, r1, r0
    1ae8:	000fc750 	andeq	ip, pc, r0, asr r7	; <UNPREDICTABLE>
    1aec:	000fd200 	andeq	sp, pc, r0, lsl #4
    1af0:	75000300 	strvc	r0, [r0, #-768]	; 0xfffffd00
    1af4:	00009f04 	andeq	r9, r0, r4, lsl #30
    1af8:	00000000 	andeq	r0, r0, r0
    1afc:	0f4c0000 	svceq	0x004c0000
    1b00:	0f530000 	svceq	0x00530000
    1b04:	00010000 	andeq	r0, r1, r0
    1b08:	000f5350 	andeq	r5, pc, r0, asr r3	; <UNPREDICTABLE>
    1b0c:	000f5400 	andeq	r5, pc, r0, lsl #8
    1b10:	f3000400 	vshl.u8	d0, d0, d0
    1b14:	009f5001 	addseq	r5, pc, r1
    1b18:	00000000 	andeq	r0, r0, r0
    1b1c:	4c000000 	stcmi	0, cr0, [r0], {-0}
    1b20:	5000000f 	andpl	r0, r0, pc
    1b24:	0100000f 	tsteq	r0, pc
    1b28:	0f505100 	svceq	0x00505100
    1b2c:	0f530000 	svceq	0x00530000
    1b30:	00010000 	andeq	r0, r1, r0
    1b34:	000f5352 	andeq	r5, pc, r2, asr r3	; <UNPREDICTABLE>
    1b38:	000f5400 	andeq	r5, pc, r0, lsl #8
    1b3c:	f3000400 	vshl.u8	d0, d0, d0
    1b40:	009f5101 	addseq	r5, pc, r1, lsl #2
    1b44:	00000000 	andeq	r0, r0, r0
    1b48:	b8000000 	stmdalt	r0, {}	; <UNPREDICTABLE>
    1b4c:	e200000d 	and	r0, r0, #13
    1b50:	0100000d 	tsteq	r0, sp
    1b54:	0de25000 	stcleq	0, cr5, [r2]
    1b58:	0e040000 	cdpeq	0, 0, cr0, cr4, cr0, {0}
    1b5c:	00010000 	andeq	r0, r1, r0
    1b60:	000e0454 	andeq	r0, lr, r4, asr r4
    1b64:	000f4c00 	andeq	r4, pc, r0, lsl #24
    1b68:	f3000400 	vshl.u8	d0, d0, d0
    1b6c:	009f5001 	addseq	r5, pc, r1
    1b70:	00000000 	andeq	r0, r0, r0
    1b74:	b8000000 	stmdalt	r0, {}	; <UNPREDICTABLE>
    1b78:	d800000d 	stmdale	r0, {r0, r2, r3}
    1b7c:	0100000d 	tsteq	r0, sp
    1b80:	0dd85100 	ldfeqe	f5, [r8]
    1b84:	0eb80000 	cdpeq	0, 11, cr0, cr8, cr0, {0}
    1b88:	00010000 	andeq	r0, r1, r0
    1b8c:	000eb85a 	andeq	fp, lr, sl, asr r8
    1b90:	000ebd00 	andeq	fp, lr, r0, lsl #26
    1b94:	53000100 	movwpl	r0, #256	; 0x100
    1b98:	00000ebd 			; <UNDEFINED> instruction: 0x00000ebd
    1b9c:	00000f16 	andeq	r0, r0, r6, lsl pc
    1ba0:	16540001 	ldrbne	r0, [r4], -r1
    1ba4:	1c00000f 	stcne	0, cr0, [r0], {15}
    1ba8:	0100000f 	tsteq	r0, pc
    1bac:	0f1c5300 	svceq	0x001c5300
    1bb0:	0f4c0000 	svceq	0x004c0000
    1bb4:	00010000 	andeq	r0, r1, r0
    1bb8:	0000005a 	andeq	r0, r0, sl, asr r0
    1bbc:	00000000 	andeq	r0, r0, r0
    1bc0:	000db800 	andeq	fp, sp, r0, lsl #16
    1bc4:	000df100 	andeq	pc, sp, r0, lsl #2
    1bc8:	52000100 	andpl	r0, r0, #0, 2
    1bcc:	00000df1 	strdeq	r0, [r0], -r1
    1bd0:	00000e04 	andeq	r0, r0, r4, lsl #28
    1bd4:	04550001 	ldrbeq	r0, [r5], #-1
    1bd8:	4c00000e 	stcmi	0, cr0, [r0], {14}
    1bdc:	0400000f 	streq	r0, [r0], #-15
    1be0:	5201f300 	andpl	pc, r1, #0, 6
    1be4:	0000009f 	muleq	r0, pc, r0	; <UNPREDICTABLE>
    1be8:	00000000 	andeq	r0, r0, r0
    1bec:	000dd400 	andeq	sp, sp, r0, lsl #8
    1bf0:	000df800 	andeq	pc, sp, r0, lsl #16
    1bf4:	56000100 	strpl	r0, [r0], -r0, lsl #2
    1bf8:	00000df8 	strdeq	r0, [r0], -r8
    1bfc:	00000dfb 	strdeq	r0, [r0], -fp
    1c00:	7c700003 	ldclvc	0, cr0, [r0], #-12
    1c04:	000dfb9f 	muleq	sp, pc, fp	; <UNPREDICTABLE>
    1c08:	000e6200 	andeq	r6, lr, r0, lsl #4
    1c0c:	79000300 	stmdbvc	r0, {r8, r9}
    1c10:	0e629f60 	cdpeq	15, 6, cr9, cr2, cr0, {3}
    1c14:	0e670000 	cdpeq	0, 6, cr0, cr7, cr0, {0}
    1c18:	00030000 	andeq	r0, r3, r0
    1c1c:	679f6070 			; <UNDEFINED> instruction: 0x679f6070
    1c20:	b200000e 	andlt	r0, r0, #14
    1c24:	0300000e 	movweq	r0, #14
    1c28:	9f607900 	svcls	0x00607900
    1c2c:	00000eb2 			; <UNDEFINED> instruction: 0x00000eb2
    1c30:	00000eb6 			; <UNDEFINED> instruction: 0x00000eb6
    1c34:	60700003 	rsbsvs	r0, r0, r3
    1c38:	000eb69f 	muleq	lr, pc, r6	; <UNPREDICTABLE>
    1c3c:	000ec600 	andeq	ip, lr, r0, lsl #12
    1c40:	79000300 	stmdbvc	r0, {r8, r9}
    1c44:	0ec69f60 	cdpeq	15, 12, cr9, cr6, cr0, {3}
    1c48:	0ecb0000 	cdpeq	0, 12, cr0, cr11, cr0, {0}
    1c4c:	00030000 	andeq	r0, r3, r0
    1c50:	cb9f6070 	blgt	fe7d9e18 <__bss_end__+0xfe7c4dac>
    1c54:	1200000e 	andne	r0, r0, #14
    1c58:	0300000f 	movweq	r0, #15
    1c5c:	9f607900 	svcls	0x00607900
    1c60:	00000f12 	andeq	r0, r0, r2, lsl pc
    1c64:	00000f20 	andeq	r0, r0, r0, lsr #30
    1c68:	60700003 	rsbsvs	r0, r0, r3
    1c6c:	000f209f 	muleq	pc, pc, r0	; <UNPREDICTABLE>
    1c70:	000f4c00 	andeq	r4, pc, r0, lsl #24
    1c74:	79000300 	stmdbvc	r0, {r8, r9}
    1c78:	00009f60 	andeq	r9, r0, r0, ror #30
    1c7c:	00000000 	andeq	r0, r0, r0
    1c80:	0dd40000 	ldcleq	0, cr0, [r4]
    1c84:	0df40000 	ldcleq	0, cr0, [r4]
    1c88:	00030000 	andeq	r0, r3, r0
    1c8c:	f49f0476 			; <UNDEFINED> instruction: 0xf49f0476
    1c90:	fb00000d 	blx	1cce <PCA9685::CalcFrequency(unsigned char)+0x132>
    1c94:	0100000d 	tsteq	r0, sp
    1c98:	0dfb5000 	ldcleq	0, cr5, [fp]
    1c9c:	0e620000 	cdpeq	0, 6, cr0, cr2, cr0, {0}
    1ca0:	00030000 	andeq	r0, r3, r0
    1ca4:	629f6479 	addsvs	r6, pc, #2030043136	; 0x79000000
    1ca8:	6700000e 	strvs	r0, [r0, -lr]
    1cac:	0300000e 	movweq	r0, #14
    1cb0:	9f647000 	svcls	0x00647000
    1cb4:	00000e67 	andeq	r0, r0, r7, ror #28
    1cb8:	00000eb2 			; <UNDEFINED> instruction: 0x00000eb2
    1cbc:	64790003 	ldrbtvs	r0, [r9], #-3
    1cc0:	000eb29f 	muleq	lr, pc, r2	; <UNPREDICTABLE>
    1cc4:	000eb600 	andeq	fp, lr, r0, lsl #12
    1cc8:	70000300 	andvc	r0, r0, r0, lsl #6
    1ccc:	0eb69f64 	cdpeq	15, 11, cr9, cr6, cr4, {3}
    1cd0:	0ec60000 	cdpeq	0, 12, cr0, cr6, cr0, {0}
    1cd4:	00030000 	andeq	r0, r3, r0
    1cd8:	c69f6479 			; <UNDEFINED> instruction: 0xc69f6479
    1cdc:	cb00000e 	blgt	1d1c <PCA9685::AutoIncrement(bool)+0x44>
    1ce0:	0300000e 	movweq	r0, #14
    1ce4:	9f647000 	svcls	0x00647000
    1ce8:	00000ecb 	andeq	r0, r0, fp, asr #29
    1cec:	00000f12 	andeq	r0, r0, r2, lsl pc
    1cf0:	64790003 	ldrbtvs	r0, [r9], #-3
    1cf4:	000f129f 	muleq	pc, pc, r2	; <UNPREDICTABLE>
    1cf8:	000f2000 	andeq	r2, pc, r0
    1cfc:	70000300 	andvc	r0, r0, r0, lsl #6
    1d00:	0f209f64 	svceq	0x00209f64
    1d04:	0f4c0000 	svceq	0x004c0000
    1d08:	00030000 	andeq	r0, r3, r0
    1d0c:	009f6479 	addseq	r6, pc, r9, ror r4	; <UNPREDICTABLE>
    1d10:	00000000 	andeq	r0, r0, r0
    1d14:	e6000000 	str	r0, [r0], -r0
    1d18:	f100000d 	cps	#13
    1d1c:	0100000d 	tsteq	r0, sp
    1d20:	0df15300 	ldcleq	3, cr5, [r1]
    1d24:	0f4c0000 	svceq	0x004c0000
    1d28:	00020000 	andeq	r0, r2, r0
    1d2c:	00005491 	muleq	r0, r1, r4
    1d30:	00000000 	andeq	r0, r0, r0
    1d34:	0df20000 	ldcleq	0, cr0, [r2]
    1d38:	0e620000 	cdpeq	0, 6, cr0, cr2, cr0, {0}
    1d3c:	00010000 	andeq	r0, r1, r0
    1d40:	000e6259 	andeq	r6, lr, r9, asr r2
    1d44:	000e6700 	andeq	r6, lr, r0, lsl #14
    1d48:	50000100 	andpl	r0, r0, r0, lsl #2
    1d4c:	00000e67 	andeq	r0, r0, r7, ror #28
    1d50:	00000eb2 			; <UNDEFINED> instruction: 0x00000eb2
    1d54:	b2590001 	subslt	r0, r9, #1
    1d58:	b600000e 	strlt	r0, [r0], -lr
    1d5c:	0100000e 	tsteq	r0, lr
    1d60:	0eb65000 	cdpeq	0, 11, cr5, cr6, cr0, {0}
    1d64:	0ec60000 	cdpeq	0, 12, cr0, cr6, cr0, {0}
    1d68:	00010000 	andeq	r0, r1, r0
    1d6c:	000ec659 	andeq	ip, lr, r9, asr r6
    1d70:	000ecb00 	andeq	ip, lr, r0, lsl #22
    1d74:	50000100 	andpl	r0, r0, r0, lsl #2
    1d78:	00000ecb 	andeq	r0, r0, fp, asr #29
    1d7c:	00000f12 	andeq	r0, r0, r2, lsl pc
    1d80:	12590001 	subsne	r0, r9, #1
    1d84:	2000000f 	andcs	r0, r0, pc
    1d88:	0100000f 	tsteq	r0, pc
    1d8c:	0f205000 	svceq	0x00205000
    1d90:	0f4c0000 	svceq	0x004c0000
    1d94:	00010000 	andeq	r0, r1, r0
    1d98:	00000059 	andeq	r0, r0, r9, asr r0
    1d9c:	00000000 	andeq	r0, r0, r0
    1da0:	000df200 	andeq	pc, sp, r0, lsl #4
    1da4:	000e2600 	andeq	r2, lr, r0, lsl #12
    1da8:	54000100 	strpl	r0, [r0], #-256	; 0xffffff00
    1dac:	00000e26 	andeq	r0, r0, r6, lsr #28
    1db0:	00000e2e 	andeq	r0, r0, lr, lsr #28
    1db4:	01740003 	cmneq	r4, r3
    1db8:	000e2e9f 	muleq	lr, pc, lr	; <UNPREDICTABLE>
    1dbc:	000e4200 	andeq	r4, lr, r0, lsl #4
    1dc0:	54000100 	strpl	r0, [r0], #-256	; 0xffffff00
    1dc4:	00000e48 	andeq	r0, r0, r8, asr #28
    1dc8:	00000eba 			; <UNDEFINED> instruction: 0x00000eba
    1dcc:	ba540001 	blt	1501dd8 <__bss_end__+0x14ecd6c>
    1dd0:	1800000e 	stmdane	r0, {r1, r2, r3}
    1dd4:	0100000f 	tsteq	r0, pc
    1dd8:	0f185a00 	svceq	0x00185a00
    1ddc:	0f260000 	svceq	0x00260000
    1de0:	00010000 	andeq	r0, r1, r0
    1de4:	000f2654 	andeq	r2, pc, r4, asr r6	; <UNPREDICTABLE>
    1de8:	000f3600 	andeq	r3, pc, r0, lsl #12
    1dec:	30000200 	andcc	r0, r0, r0, lsl #4
    1df0:	000f3c9f 	muleq	pc, pc, ip	; <UNPREDICTABLE>
    1df4:	000f4c00 	andeq	r4, pc, r0, lsl #24
    1df8:	54000100 	strpl	r0, [r0], #-256	; 0xffffff00
	...
    1e04:	00000df2 	strdeq	r0, [r0], -r2
    1e08:	00000e04 	andeq	r0, r0, r4, lsl #28
    1e0c:	045a0001 	ldrbeq	r0, [sl], #-1
    1e10:	8200000e 	andhi	r0, r0, #14
    1e14:	0100000e 	tsteq	r0, lr
    1e18:	0e825600 	cdpeq	6, 8, cr5, cr2, cr0, {0}
    1e1c:	0e900000 	cdpeq	0, 9, cr0, cr0, cr0, {0}
    1e20:	00010000 	andeq	r0, r1, r0
    1e24:	000e9052 	andeq	r9, lr, r2, asr r0
    1e28:	000e9c00 	andeq	r9, lr, r0, lsl #24
    1e2c:	5e000100 	adfpls	f0, f0, f0
    1e30:	00000e9c 	muleq	r0, ip, lr
    1e34:	00000ea0 	andeq	r0, r0, r0, lsr #29
    1e38:	01760003 	cmneq	r6, r3
    1e3c:	000ea09f 	muleq	lr, pc, r0	; <UNPREDICTABLE>
    1e40:	000ea200 	andeq	sl, lr, r0, lsl #4
    1e44:	72000300 	andvc	r0, r0, #0, 6
    1e48:	0ea29f01 	cdpeq	15, 10, cr9, cr2, cr1, {0}
    1e4c:	0ee20000 	cdpeq	0, 14, cr0, cr2, cr0, {0}
    1e50:	00010000 	andeq	r0, r1, r0
    1e54:	000ee256 	andeq	lr, lr, r6, asr r2
    1e58:	000ef000 	andeq	pc, lr, r0
    1e5c:	52000100 	andpl	r0, r0, #0, 2
    1e60:	00000ef0 	strdeq	r0, [r0], -r0	; <UNPREDICTABLE>
    1e64:	00000efc 	strdeq	r0, [r0], -ip
    1e68:	fc5e0001 	mrrc2	0, 0, r0, lr, cr1
    1e6c:	0000000e 	andeq	r0, r0, lr
    1e70:	0300000f 	movweq	r0, #15
    1e74:	9f017600 	svcls	0x00017600
    1e78:	00000f00 	andeq	r0, r0, r0, lsl #30
    1e7c:	00000f02 	andeq	r0, r0, r2, lsl #30
    1e80:	01720003 	cmneq	r2, r3
    1e84:	000f029f 	muleq	pc, pc, r2	; <UNPREDICTABLE>
    1e88:	000f4c00 	andeq	r4, pc, r0, lsl #24
    1e8c:	56000100 	strpl	r0, [r0], -r0, lsl #2
	...
    1e98:	00000df2 	strdeq	r0, [r0], -r2
    1e9c:	00000e04 	andeq	r0, r0, r4, lsl #28
    1ea0:	04550001 	ldrbeq	r0, [r5], #-1
    1ea4:	3c00000e 	stccc	0, cr0, [r0], {14}
    1ea8:	0100000e 	tsteq	r0, lr
    1eac:	0e485700 	cdpeq	7, 4, cr5, cr8, cr0, {0}
    1eb0:	0e540000 	cdpeq	0, 5, cr0, cr4, cr0, {0}
    1eb4:	00010000 	andeq	r0, r1, r0
    1eb8:	000f1857 	andeq	r1, pc, r7, asr r8	; <UNPREDICTABLE>
    1ebc:	000f3000 	andeq	r3, pc, r0
    1ec0:	57000100 	strpl	r0, [r0, -r0, lsl #2]
    1ec4:	00000f3c 	andeq	r0, r0, ip, lsr pc
    1ec8:	00000f4c 	andeq	r0, r0, ip, asr #30
    1ecc:	9f300002 	svcls	0x00300002
	...
    1ed8:	00000e20 	andeq	r0, r0, r0, lsr #28
    1edc:	00000e47 	andeq	r0, r0, r7, asr #28
    1ee0:	745c0001 	ldrbvc	r0, [ip], #-1
    1ee4:	a900000e 	stmdbge	r0, {r1, r2, r3}
    1ee8:	0100000e 	tsteq	r0, lr
    1eec:	0ed85300 	cdpeq	3, 13, cr5, cr8, cr0, {0}
    1ef0:	0f090000 	svceq	0x00090000
    1ef4:	00010000 	andeq	r0, r1, r0
    1ef8:	000f2653 	andeq	r2, pc, r3, asr r6	; <UNPREDICTABLE>
    1efc:	000f3b00 	andeq	r3, pc, r0, lsl #22
    1f00:	5c000100 	stfpls	f0, [r0], {-0}
	...
    1f0c:	00000e20 	andeq	r0, r0, r0, lsr #28
    1f10:	00000e26 	andeq	r0, r0, r6, lsr #28
    1f14:	9f300002 	svcls	0x00300002
    1f18:	00000e26 	andeq	r0, r0, r6, lsr #28
    1f1c:	00000e32 	andeq	r0, r0, r2, lsr lr
    1f20:	40500001 	subsmi	r0, r0, r1
    1f24:	4700000e 	strmi	r0, [r0, -lr]
    1f28:	0100000e 	tsteq	r0, lr
    1f2c:	0e745100 	rpweqs	f5, f4, f0
    1f30:	0ea40000 	cdpeq	0, 10, cr0, cr4, cr0, {0}
    1f34:	00010000 	andeq	r0, r1, r0
    1f38:	000ed850 	andeq	sp, lr, r0, asr r8
    1f3c:	000f0400 	andeq	r0, pc, r0, lsl #8
    1f40:	50000100 	andpl	r0, r0, r0, lsl #2
    1f44:	00000f34 	andeq	r0, r0, r4, lsr pc
    1f48:	00000f3b 	andeq	r0, r0, fp, lsr pc
    1f4c:	00510001 	subseq	r0, r1, r1
    1f50:	00000000 	andeq	r0, r0, r0
    1f54:	20000000 	andcs	r0, r0, r0
    1f58:	2600000e 	strcs	r0, [r0], -lr
    1f5c:	0200000e 	andeq	r0, r0, #14
    1f60:	009f3000 	addseq	r3, pc, r0
    1f64:	00000000 	andeq	r0, r0, r0
    1f68:	0c000000 	stceq	0, cr0, [r0], {-0}
    1f6c:	3400000d 	strcc	r0, [r0], #-13
    1f70:	0100000d 	tsteq	r0, sp
    1f74:	0d345000 	ldceq	0, cr5, [r4, #-0]
    1f78:	0d4c0000 	stcleq	0, cr0, [ip, #-0]
    1f7c:	00010000 	andeq	r0, r1, r0
    1f80:	000d4c55 	andeq	r4, sp, r5, asr ip
    1f84:	000db800 	andeq	fp, sp, r0, lsl #16
    1f88:	f3000400 	vshl.u8	d0, d0, d0
    1f8c:	009f5001 	addseq	r5, pc, r1
    1f90:	00000000 	andeq	r0, r0, r0
    1f94:	0c000000 	stceq	0, cr0, [r0], {-0}
    1f98:	2a00000d 	bcs	1fd4 <mapmem.constprop.9+0x44>
    1f9c:	0100000d 	tsteq	r0, sp
    1fa0:	0d2a5100 	stfeqs	f5, [sl, #-0]
    1fa4:	0d4c0000 	stcleq	0, cr0, [ip, #-0]
    1fa8:	00010000 	andeq	r0, r1, r0
    1fac:	000d4c56 	andeq	r4, sp, r6, asr ip
    1fb0:	000db800 	andeq	fp, sp, r0, lsl #16
    1fb4:	f3000400 	vshl.u8	d0, d0, d0
    1fb8:	009f5101 	addseq	r5, pc, r1, lsl #2
    1fbc:	00000000 	andeq	r0, r0, r0
    1fc0:	28000000 	stmdacs	r0, {}	; <UNPREDICTABLE>
    1fc4:	4400000d 	strmi	r0, [r0], #-13
    1fc8:	0300000d 	movweq	r0, #13
    1fcc:	9f047900 	svcls	0x00047900
    1fd0:	00000d44 	andeq	r0, r0, r4, asr #26
    1fd4:	00000d49 	andeq	r0, r0, r9, asr #26
    1fd8:	49500001 	ldmdbmi	r0, {r0}^
    1fdc:	b800000d 	stmdalt	r0, {r0, r2, r3}
    1fe0:	0300000d 	movweq	r0, #13
    1fe4:	9f047900 	svcls	0x00047900
	...
    1ff0:	00000d3c 	andeq	r0, r0, ip, lsr sp
    1ff4:	00000d6c 	andeq	r0, r0, ip, ror #26
    1ff8:	6c550001 	mrrcvs	0, 0, r0, r5, cr1
    1ffc:	7200000d 	andvc	r0, r0, #13
    2000:	0300000d 	movweq	r0, #13
    2004:	9f017500 	svcls	0x00017500
    2008:	00000d72 	andeq	r0, r0, r2, ror sp
    200c:	00000d7c 	andeq	r0, r0, ip, ror sp
    2010:	9e550001 	cdpls	0, 5, cr0, cr5, cr1, {0}
    2014:	a600000d 	strge	r0, [r0], -sp
    2018:	0100000d 	tsteq	r0, sp
    201c:	0da65500 	cfstr32eq	mvfx5, [r6]
    2020:	0db80000 	ldceq	0, cr0, [r8]
    2024:	00020000 	andeq	r0, r2, r0
    2028:	00009f30 	andeq	r9, r0, r0, lsr pc
    202c:	00000000 	andeq	r0, r0, r0
    2030:	0d3c0000 	ldceq	0, cr0, [ip, #-0]
    2034:	0d800000 	stceq	0, cr0, [r0]
    2038:	00010000 	andeq	r0, r1, r0
    203c:	000d9e56 	andeq	r9, sp, r6, asr lr
    2040:	000db800 	andeq	fp, sp, r0, lsl #16
    2044:	56000100 	strpl	r0, [r0], -r0, lsl #2
	...
    2050:	00000d66 	andeq	r0, r0, r6, ror #26
    2054:	00000d8d 	andeq	r0, r0, sp, lsl #27
    2058:	a65c0001 	ldrbge	r0, [ip], -r1
    205c:	b800000d 	stmdalt	r0, {r0, r2, r3}
    2060:	0100000d 	tsteq	r0, sp
    2064:	00005c00 	andeq	r5, r0, r0, lsl #24
    2068:	00000000 	andeq	r0, r0, r0
    206c:	0d660000 	stcleq	0, cr0, [r6, #-0]
    2070:	0d6c0000 	stcleq	0, cr0, [ip, #-0]
    2074:	00020000 	andeq	r0, r2, r0
    2078:	0d6c9f30 	stcleq	15, cr9, [ip, #-192]!	; 0xffffff40
    207c:	0d760000 	ldcleq	0, cr0, [r6, #-0]
    2080:	00010000 	andeq	r0, r1, r0
    2084:	000d8450 	andeq	r8, sp, r0, asr r4
    2088:	000d8d00 	andeq	r8, sp, r0, lsl #26
    208c:	51000100 	mrspl	r0, (UNDEF: 16)
	...
    2098:	00000d66 	andeq	r0, r0, r6, ror #26
    209c:	00000d6c 	andeq	r0, r0, ip, ror #26
    20a0:	9f300002 	svcls	0x00300002
	...
    20ac:	00000d3c 	andeq	r0, r0, ip, lsr sp
    20b0:	00000d3f 	andeq	r0, r0, pc, lsr sp
    20b4:	6403000f 	strvs	r0, [r3], #-15
    20b8:	06000150 			; <UNDEFINED> instruction: 0x06000150
    20bc:	400c2444 	andmi	r2, ip, r4, asr #8
    20c0:	21000648 	tstcs	r0, r8, asr #12
    20c4:	0000009f 	muleq	r0, pc, r0	; <UNPREDICTABLE>
    20c8:	00000000 	andeq	r0, r0, r0
    20cc:	000cbc00 	andeq	fp, ip, r0, lsl #24
    20d0:	000cde00 	andeq	sp, ip, r0, lsl #28
    20d4:	50000100 	andpl	r0, r0, r0, lsl #2
    20d8:	00000cde 	ldrdeq	r0, [r0], -lr
    20dc:	00000d0c 	andeq	r0, r0, ip, lsl #26
    20e0:	01f30004 	mvnseq	r0, r4
    20e4:	00009f50 	andeq	r9, r0, r0, asr pc
    20e8:	00000000 	andeq	r0, r0, r0
    20ec:	0cd20000 	ldcleq	0, cr0, [r2], {0}
    20f0:	0d000000 	stceq	0, cr0, [r0, #-0]
    20f4:	00010000 	andeq	r0, r1, r0
    20f8:	000d0055 	andeq	r0, sp, r5, asr r0
    20fc:	000d0300 	andeq	r0, sp, r0, lsl #6
    2100:	70000300 	andvc	r0, r0, r0, lsl #6
    2104:	00009f60 	andeq	r9, r0, r0, ror #30
    2108:	00000000 	andeq	r0, r0, r0
    210c:	0cd20000 	ldcleq	0, cr0, [r2], {0}
    2110:	0ce80000 	stcleq	0, cr0, [r8]
    2114:	00030000 	andeq	r0, r3, r0
    2118:	e89f0475 	ldm	pc, {r0, r2, r4, r5, r6, sl}	; <UNPREDICTABLE>
    211c:	ed00000c 	stc	0, cr0, [r0, #-48]	; 0xffffffd0
    2120:	0100000c 	tsteq	r0, ip
    2124:	0ced5000 	stcleq	0, cr5, [sp]
    2128:	0d000000 	stceq	0, cr0, [r0, #-0]
    212c:	00030000 	andeq	r0, r3, r0
    2130:	009f0475 	addseq	r0, pc, r5, ror r4	; <UNPREDICTABLE>
    2134:	0300000d 	movweq	r0, #13
    2138:	0300000d 	movweq	r0, #13
    213c:	9f647000 	svcls	0x00647000
	...
    2148:	00000cd8 	ldrdeq	r0, [r0], -r8
    214c:	00000d00 	andeq	r0, r0, r0, lsl #26
    2150:	00540001 	subseq	r0, r4, r1
    2154:	0300000d 	movweq	r0, #13
    2158:	0300000d 	movweq	r0, #13
    215c:	9f687000 	svcls	0x00687000
	...
    2168:	00000cde 	ldrdeq	r0, [r0], -lr
    216c:	00000d00 	andeq	r0, r0, r0, lsl #26
    2170:	00570001 	subseq	r0, r7, r1
    2174:	0300000d 	movweq	r0, #13
    2178:	0100000d 	tsteq	r0, sp
    217c:	00005000 	andeq	r5, r0, r0
    2180:	00000000 	andeq	r0, r0, r0
    2184:	0cde0000 	ldcleq	0, cr0, [lr], {0}
    2188:	0ce50000 	stcleq	0, cr0, [r5]
    218c:	000b0000 	andeq	r0, fp, r0
    2190:	24440073 	strbcs	r0, [r4], #-115	; 0xffffff8d
    2194:	0608500c 	streq	r5, [r8], -ip
    2198:	009f2100 	addseq	r2, pc, r0, lsl #2
    219c:	00000000 	andeq	r0, r0, r0
    21a0:	24000000 	strcs	r0, [r0], #-0
    21a4:	3800000c 	stmdacc	r0, {r2, r3}
    21a8:	0200000c 	andeq	r0, r0, #12
    21ac:	009f3000 	addseq	r3, pc, r0
    21b0:	00000000 	andeq	r0, r0, r0
    21b4:	24000000 	strcs	r0, [r0], #-0
    21b8:	3800000c 	stmdacc	r0, {r2, r3}
    21bc:	0200000c 	andeq	r0, r0, #12
    21c0:	009f4000 	addseq	r4, pc, r0
    21c4:	00000000 	andeq	r0, r0, r0
    21c8:	38000000 	stmdacc	r0, {}	; <UNPREDICTABLE>
    21cc:	4600000c 	strmi	r0, [r0], -ip
    21d0:	0200000c 	andeq	r0, r0, #12
    21d4:	009f3000 	addseq	r3, pc, r0
    21d8:	00000000 	andeq	r0, r0, r0
    21dc:	38000000 	stmdacc	r0, {}	; <UNPREDICTABLE>
    21e0:	4600000c 	strmi	r0, [r0], -ip
    21e4:	0200000c 	andeq	r0, r0, #12
    21e8:	009f4300 	addseq	r4, pc, r0, lsl #6
    21ec:	00000000 	andeq	r0, r0, r0
    21f0:	46000000 	strmi	r0, [r0], -r0
    21f4:	5200000c 	andpl	r0, r0, #12
    21f8:	0200000c 	andeq	r0, r0, #12
    21fc:	009f3000 	addseq	r3, pc, r0
    2200:	00000000 	andeq	r0, r0, r0
    2204:	46000000 	strmi	r0, [r0], -r0
    2208:	5200000c 	andpl	r0, r0, #12
    220c:	0200000c 	andeq	r0, r0, #12
    2210:	009f4400 	addseq	r4, pc, r0, lsl #8
    2214:	00000000 	andeq	r0, r0, r0
    2218:	ac000000 	stcge	0, cr0, [r0], {-0}
    221c:	cd00000b 	stcgt	0, cr0, [r0, #-44]	; 0xffffffd4
    2220:	0900000b 	stmdbeq	r0, {r0, r1, r3}
    2224:	50440300 	subpl	r0, r4, r0, lsl #6
    2228:	23060001 	movwcs	r0, #24577	; 0x6001
    222c:	0bcd9f04 	bleq	ff369e44 <__bss_end__+0xff354dd8>
    2230:	0c1a0000 	ldceq	0, cr0, [sl], {-0}
    2234:	00030000 	andeq	r0, r3, r0
    2238:	009f0476 	addseq	r0, pc, r6, ror r4	; <UNPREDICTABLE>
    223c:	00000000 	andeq	r0, r0, r0
    2240:	b4000000 	strlt	r0, [r0], #-0
    2244:	1c00000b 	stcne	0, cr0, [r0], {11}
    2248:	0100000c 	tsteq	r0, ip
    224c:	00005500 	andeq	r5, r0, r0, lsl #10
    2250:	00000000 	andeq	r0, r0, r0
    2254:	0bb40000 	bleq	fed0225c <__bss_end__+0xfeced1f0>
    2258:	0c0a0000 	stceq	0, cr0, [sl], {-0}
    225c:	00030000 	andeq	r0, r3, r0
    2260:	0a9f0475 	beq	fe7c343c <__bss_end__+0xfe7ae3d0>
    2264:	0d00000c 	stceq	0, cr0, [r0, #-48]	; 0xffffffd0
    2268:	0100000c 	tsteq	r0, ip
    226c:	0c0d5000 	stceq	0, cr5, [sp], {-0}
    2270:	0c1c0000 	ldceq	0, cr0, [ip], {-0}
    2274:	00030000 	andeq	r0, r3, r0
    2278:	009f0475 	addseq	r0, pc, r5, ror r4	; <UNPREDICTABLE>
    227c:	00000000 	andeq	r0, r0, r0
    2280:	c8000000 	stmdagt	r0, {}	; <UNPREDICTABLE>
    2284:	ce00000b 	cdpgt	0, 0, cr0, cr0, cr11, {0}
    2288:	0200000b 	andeq	r0, r0, #11
    228c:	009f3300 	addseq	r3, pc, r0, lsl #6
    2290:	00000000 	andeq	r0, r0, r0
    2294:	c8000000 	stmdagt	r0, {}	; <UNPREDICTABLE>
    2298:	ce00000b 	cdpgt	0, 0, cr0, cr0, cr11, {0}
    229c:	0200000b 	andeq	r0, r0, #11
    22a0:	009f4000 	addseq	r4, pc, r0
    22a4:	00000000 	andeq	r0, r0, r0
    22a8:	ce000000 	cdpgt	0, 0, cr0, cr0, cr0, {0}
    22ac:	de00000b 	cdple	0, 0, cr0, cr0, cr11, {0}
    22b0:	0200000b 	andeq	r0, r0, #11
    22b4:	009f3300 	addseq	r3, pc, r0, lsl #6
    22b8:	00000000 	andeq	r0, r0, r0
    22bc:	ce000000 	cdpgt	0, 0, cr0, cr0, cr0, {0}
    22c0:	de00000b 	cdple	0, 0, cr0, cr0, cr11, {0}
    22c4:	0200000b 	andeq	r0, r0, #11
    22c8:	009f4300 	addseq	r4, pc, r0, lsl #6
    22cc:	00000000 	andeq	r0, r0, r0
    22d0:	de000000 	cdple	0, 0, cr0, cr0, cr0, {0}
    22d4:	ea00000b 	b	2308 <bcm2835_gpio_clr_ren+0x18>
    22d8:	0200000b 	andeq	r0, r0, #11
    22dc:	009f3300 	addseq	r3, pc, r0, lsl #6
    22e0:	00000000 	andeq	r0, r0, r0
    22e4:	de000000 	cdple	0, 0, cr0, cr0, cr0, {0}
    22e8:	ea00000b 	b	231c <bcm2835_gpio_fen+0x4>
    22ec:	0200000b 	andeq	r0, r0, #11
    22f0:	009f4400 	addseq	r4, pc, r0, lsl #8
    22f4:	00000000 	andeq	r0, r0, r0
    22f8:	ea000000 	b	2300 <bcm2835_gpio_clr_ren+0x10>
    22fc:	f600000b 			; <UNDEFINED> instruction: 0xf600000b
    2300:	0200000b 	andeq	r0, r0, #11
    2304:	009f3300 	addseq	r3, pc, r0, lsl #6
    2308:	00000000 	andeq	r0, r0, r0
    230c:	ea000000 	b	2314 <bcm2835_gpio_clr_ren+0x24>
    2310:	f600000b 			; <UNDEFINED> instruction: 0xf600000b
    2314:	0200000b 	andeq	r0, r0, #11
    2318:	009f4500 	addseq	r4, pc, r0, lsl #10
    231c:	00000000 	andeq	r0, r0, r0
    2320:	20000000 	andcs	r0, r0, r0
    2324:	3000000b 	andcc	r0, r0, fp
    2328:	0100000b 	tsteq	r0, fp
    232c:	0b305000 	bleq	c16334 <__bss_end__+0xc012c8>
    2330:	0bac0000 	bleq	feb02338 <__bss_end__+0xfeaed2cc>
    2334:	00040000 	andeq	r0, r4, r0
    2338:	9f5001f3 	svcls	0x005001f3
	...
    2344:	00000b2e 	andeq	r0, r0, lr, lsr #22
    2348:	00000b80 	andeq	r0, r0, r0, lsl #23
    234c:	80540001 	subshi	r0, r4, r1
    2350:	8300000b 	movwhi	r0, #11
    2354:	0100000b 	tsteq	r0, fp
    2358:	0b845000 	bleq	fe116360 <__bss_end__+0xfe1012f4>
    235c:	0bac0000 	bleq	feb02364 <__bss_end__+0xfeaed2f8>
    2360:	00010000 	andeq	r0, r1, r0
    2364:	00000054 	andeq	r0, r0, r4, asr r0
    2368:	00000000 	andeq	r0, r0, r0
    236c:	000b2e00 	andeq	r2, fp, r0, lsl #28
    2370:	000b8000 	andeq	r8, fp, r0
    2374:	74000300 	strvc	r0, [r0], #-768	; 0xfffffd00
    2378:	0b809f04 	bleq	fe029f90 <__bss_end__+0xfe014f24>
    237c:	0b830000 	bleq	fe0c2384 <__bss_end__+0xfe0ad318>
    2380:	00030000 	andeq	r0, r3, r0
    2384:	849f0470 	ldrhi	r0, [pc], #1136	; 238c <bcm2835_gpio_hen+0x24>
    2388:	ac00000b 	stcge	0, cr0, [r0], {11}
    238c:	0300000b 	movweq	r0, #11
    2390:	9f047400 	svcls	0x00047400
	...
    239c:	00000b4c 	andeq	r0, r0, ip, asr #22
    23a0:	00000b56 	andeq	r0, r0, r6, asr fp
    23a4:	84510001 	ldrbhi	r0, [r1], #-1
    23a8:	8b00000b 	blhi	23dc <bcm2835_gpio_len+0x24>
    23ac:	0100000b 	tsteq	r0, fp
    23b0:	00005100 	andeq	r5, r0, r0, lsl #2
    23b4:	00000000 	andeq	r0, r0, r0
    23b8:	0b4c0000 	bleq	13023c0 <__bss_end__+0x12ed354>
    23bc:	0b560000 	bleq	15823c4 <__bss_end__+0x156d358>
    23c0:	00030000 	andeq	r0, r3, r0
    23c4:	849f0474 	ldrhi	r0, [pc], #1140	; 23cc <bcm2835_gpio_len+0x14>
    23c8:	8c00000b 	stchi	0, cr0, [r0], {11}
    23cc:	0300000b 	movweq	r0, #11
    23d0:	9f047400 	svcls	0x00047400
	...
    23dc:	00000b56 	andeq	r0, r0, r6, asr fp
    23e0:	00000b5a 	andeq	r0, r0, sl, asr fp
    23e4:	00550001 	subseq	r0, r5, r1
    23e8:	00000000 	andeq	r0, r0, r0
    23ec:	56000000 	strpl	r0, [r0], -r0
    23f0:	8000000b 	andhi	r0, r0, fp
    23f4:	0300000b 	movweq	r0, #11
    23f8:	9f047400 	svcls	0x00047400
    23fc:	00000b80 	andeq	r0, r0, r0, lsl #23
    2400:	00000b83 	andeq	r0, r0, r3, lsl #23
    2404:	04700003 	ldrbteq	r0, [r0], #-3
    2408:	000b8c9f 	muleq	fp, pc, ip	; <UNPREDICTABLE>
    240c:	000bac00 	andeq	sl, fp, r0, lsl #24
    2410:	74000300 	strvc	r0, [r0], #-768	; 0xfffffd00
    2414:	00009f04 	andeq	r9, r0, r4, lsl #30
    2418:	00000000 	andeq	r0, r0, r0
    241c:	0b5a0000 	bleq	1682424 <__bss_end__+0x166d3b8>
    2420:	0b600000 	bleq	1802428 <__bss_end__+0x17ed3bc>
    2424:	00010000 	andeq	r0, r1, r0
    2428:	000b6854 	andeq	r6, fp, r4, asr r8
    242c:	000b7200 	andeq	r7, fp, r0, lsl #4
    2430:	54000100 	strpl	r0, [r0], #-256	; 0xffffff00
	...
    243c:	00000b08 	andeq	r0, r0, r8, lsl #22
    2440:	00000b0c 	andeq	r0, r0, ip, lsl #22
    2444:	0c500001 	mrrceq	0, 0, r0, r0, cr1	; <UNPREDICTABLE>
    2448:	2000000b 	andcs	r0, r0, fp
    244c:	0400000b 	streq	r0, [r0], #-11
    2450:	5001f300 	andpl	pc, r1, r0, lsl #6
    2454:	0000009f 	muleq	r0, pc, r0	; <UNPREDICTABLE>
    2458:	00000000 	andeq	r0, r0, r0
    245c:	000b0800 	andeq	r0, fp, r0, lsl #16
    2460:	000b1400 	andeq	r1, fp, r0, lsl #8
    2464:	51000100 	mrspl	r0, (UNDEF: 16)
    2468:	00000b14 	andeq	r0, r0, r4, lsl fp
    246c:	00000b20 	andeq	r0, r0, r0, lsr #22
    2470:	01f30004 	mvnseq	r0, r4
    2474:	00009f51 	andeq	r9, r0, r1, asr pc
    2478:	00000000 	andeq	r0, r0, r0
    247c:	0b080000 	bleq	202484 <__bss_end__+0x1ed418>
    2480:	0b1b0000 	bleq	6c2488 <__bss_end__+0x6ad41c>
    2484:	00050000 	andeq	r0, r5, r0
    2488:	01503403 	cmpeq	r0, r3, lsl #8
	...
    2494:	000b0800 	andeq	r0, fp, r0, lsl #16
    2498:	000b0c00 	andeq	r0, fp, r0, lsl #24
    249c:	70000300 	andvc	r0, r0, r0, lsl #6
    24a0:	0b0c9f15 	bleq	32a0fc <__bss_end__+0x315090>
    24a4:	0b200000 	bleq	8024ac <__bss_end__+0x7ed440>
    24a8:	00060000 	andeq	r0, r6, r0
    24ac:	235001f3 	cmpcs	r0, #-1073741764	; 0xc000003c
    24b0:	00009f15 	andeq	r9, r0, r5, lsl pc
    24b4:	00000000 	andeq	r0, r0, r0
    24b8:	0af40000 	beq	ffd024c0 <__bss_end__+0xffced454>
    24bc:	0afe0000 	beq	fff824c4 <__bss_end__+0xfff6d458>
    24c0:	00010000 	andeq	r0, r1, r0
    24c4:	000afe50 	andeq	pc, sl, r0, asr lr	; <UNPREDICTABLE>
    24c8:	000b0800 	andeq	r0, fp, r0, lsl #16
    24cc:	f3000400 	vshl.u8	d0, d0, d0
    24d0:	009f5001 	addseq	r5, pc, r1
    24d4:	00000000 	andeq	r0, r0, r0
    24d8:	f4000000 	vst4.8	{d0-d3}, [r0], r0
    24dc:	0100000a 	tsteq	r0, sl
    24e0:	0500000b 	streq	r0, [r0, #-11]
    24e4:	50340300 	eorspl	r0, r4, r0, lsl #6
    24e8:	00000001 	andeq	r0, r0, r1
    24ec:	00000000 	andeq	r0, r0, r0
    24f0:	0aec0000 	beq	ffb024f8 <__bss_end__+0xffaed48c>
    24f4:	0af30000 	beq	ffcc24fc <__bss_end__+0xffcad490>
    24f8:	00010000 	andeq	r0, r1, r0
    24fc:	000af350 	andeq	pc, sl, r0, asr r3	; <UNPREDICTABLE>
    2500:	000af400 	andeq	pc, sl, r0, lsl #8
    2504:	f3000400 	vshl.u8	d0, d0, d0
    2508:	009f5001 	addseq	r5, pc, r1
    250c:	00000000 	andeq	r0, r0, r0
    2510:	ec000000 	stc	0, cr0, [r0], {-0}
    2514:	f000000a 			; <UNDEFINED> instruction: 0xf000000a
    2518:	0100000a 	tsteq	r0, sl
    251c:	0af05100 	beq	ffc16924 <__bss_end__+0xffc018b8>
    2520:	0af30000 	beq	ffcc2528 <__bss_end__+0xffcad4bc>
    2524:	00010000 	andeq	r0, r1, r0
    2528:	000af352 	andeq	pc, sl, r2, asr r3	; <UNPREDICTABLE>
    252c:	000af400 	andeq	pc, sl, r0, lsl #8
    2530:	f3000400 	vshl.u8	d0, d0, d0
    2534:	009f5101 	addseq	r5, pc, r1, lsl #2
    2538:	00000000 	andeq	r0, r0, r0
    253c:	f4000000 	vst4.8	{d0-d3}, [r0], r0
    2540:	0e000009 	cdpeq	0, 0, cr0, cr0, cr9, {0}
    2544:	0100000a 	tsteq	r0, sl
    2548:	0a0e5000 	beq	396550 <__bss_end__+0x3814e4>
    254c:	0a2a0000 	beq	a82554 <__bss_end__+0xa6d4e8>
    2550:	00010000 	andeq	r0, r1, r0
    2554:	000a2a57 	andeq	r2, sl, r7, asr sl
    2558:	000a2c00 	andeq	r2, sl, r0, lsl #24
    255c:	77000300 	strvc	r0, [r0, -r0, lsl #6]
    2560:	0a2c9f01 	beq	b2a16c <__bss_end__+0xb15100>
    2564:	0aec0000 	beq	ffb0256c <__bss_end__+0xffaed500>
    2568:	00040000 	andeq	r0, r4, r0
    256c:	9f5001f3 	svcls	0x005001f3
	...
    2578:	000009f4 	strdeq	r0, [r0], -r4
    257c:	00000a04 	andeq	r0, r0, r4, lsl #20
    2580:	04510001 	ldrbeq	r0, [r1], #-1
    2584:	2400000a 	strcs	r0, [r0], #-10
    2588:	0100000a 	tsteq	r0, sl
    258c:	0a245500 	beq	917994 <__bss_end__+0x902928>
    2590:	0aec0000 	beq	ffb02598 <__bss_end__+0xffaed52c>
    2594:	00040000 	andeq	r0, r4, r0
    2598:	9f5101f3 	svcls	0x005101f3
	...
    25a4:	00000a0a 	andeq	r0, r0, sl, lsl #20
    25a8:	00000ac6 	andeq	r0, r0, r6, asr #21
    25ac:	c6540001 	ldrbgt	r0, [r4], -r1
    25b0:	c900000a 	stmdbgt	r0, {r1, r3}
    25b4:	0100000a 	tsteq	r0, sl
    25b8:	0aca5000 	beq	ff2965c0 <__bss_end__+0xff281554>
    25bc:	0aec0000 	beq	ffb025c4 <__bss_end__+0xffaed558>
    25c0:	00010000 	andeq	r0, r1, r0
    25c4:	00000054 	andeq	r0, r0, r4, asr r0
    25c8:	00000000 	andeq	r0, r0, r0
    25cc:	000a0c00 	andeq	r0, sl, r0, lsl #24
    25d0:	000ac600 	andeq	ip, sl, r0, lsl #12
    25d4:	56000100 	strpl	r0, [r0], -r0, lsl #2
    25d8:	00000ac6 	andeq	r0, r0, r6, asr #21
    25dc:	00000ac9 	andeq	r0, r0, r9, asr #21
    25e0:	04700003 	ldrbteq	r0, [r0], #-3
    25e4:	000aca9f 	muleq	sl, pc, sl	; <UNPREDICTABLE>
    25e8:	000aec00 	andeq	lr, sl, r0, lsl #24
    25ec:	56000100 	strpl	r0, [r0], -r0, lsl #2
	...
    25f8:	00000a1c 	andeq	r0, r0, ip, lsl sl
    25fc:	00000a2c 	andeq	r0, r0, ip, lsr #20
    2600:	9f300002 	svcls	0x00300002
    2604:	00000a6c 	andeq	r0, r0, ip, ror #20
    2608:	00000a70 	andeq	r0, r0, r0, ror sl
    260c:	00770009 	rsbseq	r0, r7, r9
    2610:	1c5001f3 	ldfnee	f0, [r0], {243}	; 0xf3
    2614:	009f0123 	addseq	r0, pc, r3, lsr #2
    2618:	00000000 	andeq	r0, r0, r0
    261c:	3e000000 	cdpcc	0, 0, cr0, cr0, cr0, {0}
    2620:	4600000a 	strmi	r0, [r0], -sl
    2624:	0100000a 	tsteq	r0, sl
    2628:	00005100 	andeq	r5, r0, r0, lsl #2
    262c:	00000000 	andeq	r0, r0, r0
    2630:	0a460000 	beq	1182638 <__bss_end__+0x116d5cc>
    2634:	0a520000 	beq	148263c <__bss_end__+0x146d5d0>
    2638:	00010000 	andeq	r0, r1, r0
    263c:	000aca51 	andeq	ip, sl, r1, asr sl
    2640:	000acf00 	andeq	ip, sl, r0, lsl #30
    2644:	51000100 	mrspl	r0, (UNDEF: 16)
	...
    2650:	000008bc 			; <UNDEFINED> instruction: 0x000008bc
    2654:	000008da 	ldrdeq	r0, [r0], -sl
    2658:	da500001 	ble	1402664 <__bss_end__+0x13ed5f8>
    265c:	ce000008 	cdpgt	0, 0, cr0, cr0, cr8, {0}
    2660:	02000009 	andeq	r0, r0, #9
    2664:	ce4c9100 	sqtgte	f1, f0
    2668:	f4000009 	vst4.8	{d0-d3}, [r0], r9
    266c:	02000009 	andeq	r0, r0, #9
    2670:	004c7d00 	subeq	r7, ip, r0, lsl #26
    2674:	00000000 	andeq	r0, r0, r0
    2678:	bc000000 	stclt	0, cr0, [r0], {-0}
    267c:	d2000008 	andle	r0, r0, #8
    2680:	01000008 	tsteq	r0, r8
    2684:	08d25100 	ldmeq	r2, {r8, ip, lr}^
    2688:	09ce0000 	stmibeq	lr, {}^	; <UNPREDICTABLE>
    268c:	00020000 	andeq	r0, r2, r0
    2690:	09ce5091 	stmibeq	lr, {r0, r4, r7, ip, lr}^
    2694:	09f40000 	ldmibeq	r4!, {}^	; <UNPREDICTABLE>
    2698:	00020000 	andeq	r0, r2, r0
    269c:	0000507d 	andeq	r5, r0, sp, ror r0
    26a0:	00000000 	andeq	r0, r0, r0
    26a4:	08bc0000 	ldmeq	ip!, {}	; <UNPREDICTABLE>
    26a8:	08cc0000 	stmiaeq	ip, {}^	; <UNPREDICTABLE>
    26ac:	00010000 	andeq	r0, r1, r0
    26b0:	0008cc52 	andeq	ip, r8, r2, asr ip
    26b4:	0009ce00 	andeq	ip, r9, r0, lsl #28
    26b8:	58000100 	stmdapl	r0, {r8}
    26bc:	000009ce 	andeq	r0, r0, lr, asr #19
    26c0:	000009f4 	strdeq	r0, [r0], -r4
    26c4:	01f30004 	mvnseq	r0, r4
    26c8:	00009f52 	andeq	r9, r0, r2, asr pc
    26cc:	00000000 	andeq	r0, r0, r0
    26d0:	08ca0000 	stmiaeq	sl, {}^	; <UNPREDICTABLE>
    26d4:	09ce0000 	stmibeq	lr, {}^	; <UNPREDICTABLE>
    26d8:	00010000 	andeq	r0, r1, r0
    26dc:	0009ce54 	andeq	ip, r9, r4, asr lr
    26e0:	0009d100 	andeq	sp, r9, r0, lsl #2
    26e4:	50000100 	andpl	r0, r0, r0, lsl #2
    26e8:	000009d1 	ldrdeq	r0, [r0], -r1
    26ec:	000009f4 	strdeq	r0, [r0], -r4
    26f0:	407d0006 	rsbsmi	r0, sp, r6
    26f4:	9f1c3406 	svcls	0x001c3406
	...
    2700:	000008d6 	ldrdeq	r0, [r0], -r6
    2704:	000008d8 	ldrdeq	r0, [r0], -r8
    2708:	d8530001 	ldmdale	r3, {r0}^
    270c:	ca000008 	bgt	2734 <bcm2835_spi_transfer+0x4>
    2710:	02000009 	andeq	r0, r0, #9
    2714:	ca007d00 	bgt	21b1c <__bss_end__+0xcab0>
    2718:	ce000009 	cdpgt	0, 0, cr0, cr0, cr9, {0}
    271c:	02000009 	andeq	r0, r0, #9
    2720:	ce409100 	sqtgts	f1, f0
    2724:	f4000009 	vst4.8	{d0-d3}, [r0], r9
    2728:	02000009 	andeq	r0, r0, #9
    272c:	00407d00 	subeq	r7, r0, r0, lsl #26
    2730:	00000000 	andeq	r0, r0, r0
    2734:	d6000000 	strle	r0, [r0], -r0
    2738:	02000008 	andeq	r0, r0, #8
    273c:	02000009 	andeq	r0, r0, #9
    2740:	029f3000 	addseq	r3, pc, #0
    2744:	1a000009 	bne	2770 <bcm2835_spi_transfer+0x40>
    2748:	01000009 	tsteq	r0, r9
    274c:	091a5600 	ldmdbeq	sl, {r9, sl, ip, lr}
    2750:	095a0000 	ldmdbeq	sl, {}^	; <UNPREDICTABLE>
    2754:	00010000 	andeq	r0, r1, r0
    2758:	00095a55 	andeq	r5, r9, r5, asr sl
    275c:	0009ce00 	andeq	ip, r9, r0, lsl #28
    2760:	56000100 	strpl	r0, [r0], -r0, lsl #2
	...
    276c:	000008d6 	ldrdeq	r0, [r0], -r6
    2770:	00000902 	andeq	r0, r0, r2, lsl #18
    2774:	9f300002 	svcls	0x00300002
    2778:	00000902 	andeq	r0, r0, r2, lsl #18
    277c:	00000918 	andeq	r0, r0, r8, lsl r9
    2780:	18550001 	ldmdane	r5, {r0}^
    2784:	1c000009 	stcne	0, cr0, [r0], {9}
    2788:	01000009 	tsteq	r0, r9
    278c:	091c5300 	ldmdbeq	ip, {r8, r9, ip, lr}
    2790:	09560000 	ldmdbeq	r6, {}^	; <UNPREDICTABLE>
    2794:	00010000 	andeq	r0, r1, r0
    2798:	00095656 	andeq	r5, r9, r6, asr r6
    279c:	00095c00 	andeq	r5, r9, r0, lsl #24
    27a0:	53000100 	movwpl	r0, #256	; 0x100
    27a4:	0000095c 	andeq	r0, r0, ip, asr r9
    27a8:	000009a8 	andeq	r0, r0, r8, lsr #19
    27ac:	00550001 	subseq	r0, r5, r1
    27b0:	00000000 	andeq	r0, r0, r0
    27b4:	1c000000 	stcne	0, cr0, [r0], {-0}
    27b8:	1e000009 	cdpne	0, 0, cr0, cr0, cr9, {0}
    27bc:	02000009 	andeq	r0, r0, #9
    27c0:	3c007700 	stccc	7, cr7, [r0], {-0}
    27c4:	42000009 	andmi	r0, r0, #9
    27c8:	01000009 	tsteq	r0, r9
    27cc:	09425100 	stmdbeq	r2, {r8, ip, lr}^
    27d0:	094f0000 	stmdbeq	pc, {}^	; <UNPREDICTABLE>
    27d4:	00020000 	andeq	r0, r2, r0
    27d8:	00000077 	andeq	r0, r0, r7, ror r0
    27dc:	00000000 	andeq	r0, r0, r0
    27e0:	091c0000 	ldmdbeq	ip, {}	; <UNPREDICTABLE>
    27e4:	091e0000 	ldmdbeq	lr, {}	; <UNPREDICTABLE>
    27e8:	00010000 	andeq	r0, r1, r0
    27ec:	00094251 	andeq	r4, r9, r1, asr r2
    27f0:	00094f00 	andeq	r4, r9, r0, lsl #30
    27f4:	51000100 	mrspl	r0, (UNDEF: 16)
	...
    2800:	0000096e 	andeq	r0, r0, lr, ror #18
    2804:	0000097c 	andeq	r0, r0, ip, ror r9
    2808:	00500001 	subseq	r0, r0, r1
    280c:	00000000 	andeq	r0, r0, r0
    2810:	08000000 	stmdaeq	r0, {}	; <UNPREDICTABLE>
    2814:	1a000008 	bne	283c <bcm2835_spi_transfernb+0x58>
    2818:	01000008 	tsteq	r0, r8
    281c:	081a5000 	ldmdaeq	sl, {ip, lr}
    2820:	08bc0000 	ldmeq	ip!, {}	; <UNPREDICTABLE>
    2824:	00040000 	andeq	r0, r4, r0
    2828:	9f5001f3 	svcls	0x005001f3
	...
    2834:	00000816 	andeq	r0, r0, r6, lsl r8
    2838:	0000088a 	andeq	r0, r0, sl, lsl #17
    283c:	8a540001 	bhi	1502848 <__bss_end__+0x14ed7dc>
    2840:	8d000008 	stchi	0, cr0, [r0, #-32]	; 0xffffffe0
    2844:	01000008 	tsteq	r0, r8
    2848:	088d5000 	stmeq	sp, {ip, lr}
    284c:	08bc0000 	ldmeq	ip!, {}	; <UNPREDICTABLE>
    2850:	00010000 	andeq	r0, r1, r0
    2854:	00000054 	andeq	r0, r0, r4, asr r0
    2858:	00000000 	andeq	r0, r0, r0
    285c:	00086800 	andeq	r6, r8, r0, lsl #16
    2860:	00087600 	andeq	r7, r8, r0, lsl #12
    2864:	75000600 	strvc	r0, [r0, #-1536]	; 0xfffffa00
    2868:	1aff0800 	bne	fffc4870 <__bss_end__+0xfffaf804>
    286c:	0000009f 	muleq	r0, pc, r0	; <UNPREDICTABLE>
    2870:	00000000 	andeq	r0, r0, r0
    2874:	00083200 	andeq	r3, r8, r0, lsl #4
    2878:	00084200 	andeq	r4, r8, r0, lsl #4
    287c:	55000100 	strpl	r0, [r0, #-256]	; 0xffffff00
	...
    2888:	00000842 	andeq	r0, r0, r2, asr #16
    288c:	0000084c 	andeq	r0, r0, ip, asr #16
    2890:	76550001 	ldrbvc	r0, [r5], -r1
    2894:	7c000008 	stcvc	0, cr0, [r0], {8}
    2898:	01000008 	tsteq	r0, r8
    289c:	087c5500 	ldmdaeq	ip!, {r8, sl, ip, lr}^
    28a0:	087f0000 	ldmdaeq	pc!, {}^	; <UNPREDICTABLE>
    28a4:	00010000 	andeq	r0, r1, r0
    28a8:	00000051 	andeq	r0, r0, r1, asr r0
    28ac:	00000000 	andeq	r0, r0, r0
    28b0:	00084c00 	andeq	r4, r8, r0, lsl #24
    28b4:	00084e00 	andeq	r4, r8, r0, lsl #28
    28b8:	54000100 	strpl	r0, [r0], #-256	; 0xffffff00
	...
    28c4:	00000852 	andeq	r0, r0, r2, asr r8
    28c8:	00000854 	andeq	r0, r0, r4, asr r8
    28cc:	94570001 	ldrbls	r0, [r7], #-1
    28d0:	bc000008 	stclt	0, cr0, [r0], {8}
    28d4:	01000008 	tsteq	r0, r8
    28d8:	00005700 	andeq	r5, r0, r0, lsl #14
    28dc:	00000000 	andeq	r0, r0, r0
    28e0:	08540000 	ldmdaeq	r4, {}^	; <UNPREDICTABLE>
    28e4:	08680000 	stmdaeq	r8!, {}^	; <UNPREDICTABLE>
    28e8:	00010000 	andeq	r0, r1, r0
    28ec:	00000050 	andeq	r0, r0, r0, asr r0
    28f0:	00000000 	andeq	r0, r0, r0
    28f4:	0007f400 	andeq	pc, r7, r0, lsl #8
    28f8:	0007fe00 	andeq	pc, r7, r0, lsl #28
    28fc:	50000100 	andpl	r0, r0, r0, lsl #2
    2900:	000007fe 	strdeq	r0, [r0], -lr
    2904:	00000808 	andeq	r0, r0, r8, lsl #16
    2908:	01f30004 	mvnseq	r0, r4
    290c:	00009f50 	andeq	r9, r0, r0, asr pc
    2910:	00000000 	andeq	r0, r0, r0
    2914:	07f40000 	ldrbeq	r0, [r4, r0]!
    2918:	08010000 	stmdaeq	r1, {}	; <UNPREDICTABLE>
    291c:	00050000 	andeq	r0, r5, r0
    2920:	01503403 	cmpeq	r0, r3, lsl #8
	...
    292c:	0007c800 	andeq	ip, r7, r0, lsl #16
    2930:	0007d000 	andeq	sp, r7, r0
    2934:	50000100 	andpl	r0, r0, r0, lsl #2
    2938:	000007d0 	ldrdeq	r0, [r0], -r0	; <UNPREDICTABLE>
    293c:	000007d7 	ldrdeq	r0, [r0], -r7
    2940:	d7510001 	ldrble	r0, [r1, -r1]
    2944:	f4000007 	vst4.8	{d0-d3}, [r0], r7
    2948:	04000007 	streq	r0, [r0], #-7
    294c:	5001f300 	andpl	pc, r1, r0, lsl #6
    2950:	0000009f 	muleq	r0, pc, r0	; <UNPREDICTABLE>
    2954:	00000000 	andeq	r0, r0, r0
    2958:	0007d800 	andeq	sp, r7, r0, lsl #16
    295c:	0007e800 	andeq	lr, r7, r0, lsl #16
    2960:	70000600 	andvc	r0, r0, r0, lsl #12
    2964:	1afe0900 	bne	fff84d6c <__bss_end__+0xfff6fd00>
    2968:	0000009f 	muleq	r0, pc, r0	; <UNPREDICTABLE>
    296c:	00000000 	andeq	r0, r0, r0
    2970:	00075800 	andeq	r5, r7, r0, lsl #16
    2974:	00076a00 	andeq	r6, r7, r0, lsl #20
    2978:	30000200 	andcc	r0, r0, r0, lsl #4
    297c:	0000009f 	muleq	r0, pc, r0	; <UNPREDICTABLE>
    2980:	00000000 	andeq	r0, r0, r0
    2984:	00075800 	andeq	r5, r7, r0, lsl #16
    2988:	00076a00 	andeq	r6, r7, r0, lsl #20
    298c:	37000200 	strcc	r0, [r0, -r0, lsl #4]
    2990:	0000009f 	muleq	r0, pc, r0	; <UNPREDICTABLE>
    2994:	00000000 	andeq	r0, r0, r0
    2998:	00076a00 	andeq	r6, r7, r0, lsl #20
    299c:	00077600 	andeq	r7, r7, r0, lsl #12
    29a0:	30000200 	andcc	r0, r0, r0, lsl #4
    29a4:	0000009f 	muleq	r0, pc, r0	; <UNPREDICTABLE>
    29a8:	00000000 	andeq	r0, r0, r0
    29ac:	00076a00 	andeq	r6, r7, r0, lsl #20
    29b0:	00077600 	andeq	r7, r7, r0, lsl #12
    29b4:	38000200 	stmdacc	r0, {r9}
    29b8:	0000009f 	muleq	r0, pc, r0	; <UNPREDICTABLE>
    29bc:	00000000 	andeq	r0, r0, r0
    29c0:	00077600 	andeq	r7, r7, r0, lsl #12
    29c4:	00078200 	andeq	r8, r7, r0, lsl #4
    29c8:	30000200 	andcc	r0, r0, r0, lsl #4
    29cc:	0000009f 	muleq	r0, pc, r0	; <UNPREDICTABLE>
    29d0:	00000000 	andeq	r0, r0, r0
    29d4:	00077600 	andeq	r7, r7, r0, lsl #12
    29d8:	00078200 	andeq	r8, r7, r0, lsl #4
    29dc:	39000200 	stmdbcc	r0, {r9}
    29e0:	0000009f 	muleq	r0, pc, r0	; <UNPREDICTABLE>
    29e4:	00000000 	andeq	r0, r0, r0
    29e8:	00078200 	andeq	r8, r7, r0, lsl #4
    29ec:	00078e00 	andeq	r8, r7, r0, lsl #28
    29f0:	30000200 	andcc	r0, r0, r0, lsl #4
    29f4:	0000009f 	muleq	r0, pc, r0	; <UNPREDICTABLE>
    29f8:	00000000 	andeq	r0, r0, r0
    29fc:	00078200 	andeq	r8, r7, r0, lsl #4
    2a00:	00078e00 	andeq	r8, r7, r0, lsl #28
    2a04:	3a000200 	bcc	320c <bcm2835_i2c_read+0xc8>
    2a08:	0000009f 	muleq	r0, pc, r0	; <UNPREDICTABLE>
    2a0c:	00000000 	andeq	r0, r0, r0
    2a10:	00072c00 	andeq	r2, r7, r0, lsl #24
    2a14:	00074200 	andeq	r4, r7, r0, lsl #4
    2a18:	54000100 	strpl	r0, [r0], #-256	; 0xffffff00
    2a1c:	00000744 	andeq	r0, r0, r4, asr #14
    2a20:	00000750 	andeq	r0, r0, r0, asr r7
    2a24:	00540001 	subseq	r0, r4, r1
    2a28:	00000000 	andeq	r0, r0, r0
    2a2c:	e8000000 	stmda	r0, {}	; <UNPREDICTABLE>
    2a30:	f6000006 			; <UNDEFINED> instruction: 0xf6000006
    2a34:	02000006 	andeq	r0, r0, #6
    2a38:	009f3400 	addseq	r3, pc, r0, lsl #8
    2a3c:	00000000 	andeq	r0, r0, r0
    2a40:	e8000000 	stmda	r0, {}	; <UNPREDICTABLE>
    2a44:	f6000006 			; <UNDEFINED> instruction: 0xf6000006
    2a48:	02000006 	andeq	r0, r0, #6
    2a4c:	009f3700 	addseq	r3, pc, r0, lsl #14
    2a50:	00000000 	andeq	r0, r0, r0
    2a54:	f6000000 			; <UNDEFINED> instruction: 0xf6000000
    2a58:	04000006 	streq	r0, [r0], #-6
    2a5c:	02000007 	andeq	r0, r0, #7
    2a60:	009f3400 	addseq	r3, pc, r0, lsl #8
    2a64:	00000000 	andeq	r0, r0, r0
    2a68:	f6000000 			; <UNDEFINED> instruction: 0xf6000000
    2a6c:	04000006 	streq	r0, [r0], #-6
    2a70:	02000007 	andeq	r0, r0, #7
    2a74:	009f3800 	addseq	r3, pc, r0, lsl #16
    2a78:	00000000 	andeq	r0, r0, r0
    2a7c:	04000000 	streq	r0, [r0], #-0
    2a80:	12000007 	andne	r0, r0, #7
    2a84:	02000007 	andeq	r0, r0, #7
    2a88:	009f3400 	addseq	r3, pc, r0, lsl #8
    2a8c:	00000000 	andeq	r0, r0, r0
    2a90:	04000000 	streq	r0, [r0], #-0
    2a94:	12000007 	andne	r0, r0, #7
    2a98:	02000007 	andeq	r0, r0, #7
    2a9c:	009f3900 	addseq	r3, pc, r0, lsl #18
    2aa0:	00000000 	andeq	r0, r0, r0
    2aa4:	12000000 	andne	r0, r0, #0
    2aa8:	1e000007 	cdpne	0, 0, cr0, cr0, cr7, {0}
    2aac:	02000007 	andeq	r0, r0, #7
    2ab0:	009f3400 	addseq	r3, pc, r0, lsl #8
    2ab4:	00000000 	andeq	r0, r0, r0
    2ab8:	12000000 	andne	r0, r0, #0
    2abc:	1e000007 	cdpne	0, 0, cr0, cr0, cr7, {0}
    2ac0:	02000007 	andeq	r0, r0, #7
    2ac4:	009f3a00 	addseq	r3, pc, r0, lsl #20
    2ac8:	00000000 	andeq	r0, r0, r0
    2acc:	1e000000 	cdpne	0, 0, cr0, cr0, cr0, {0}
    2ad0:	2a000007 	bcs	2af4 <bcm2835_aux_spi_begin+0x20>
    2ad4:	02000007 	andeq	r0, r0, #7
    2ad8:	009f3400 	addseq	r3, pc, r0, lsl #8
    2adc:	00000000 	andeq	r0, r0, r0
    2ae0:	1e000000 	cdpne	0, 0, cr0, cr0, cr0, {0}
    2ae4:	2a000007 	bcs	2b08 <bcm2835_aux_spi_begin+0x34>
    2ae8:	02000007 	andeq	r0, r0, #7
    2aec:	009f3b00 	addseq	r3, pc, r0, lsl #22
    2af0:	00000000 	andeq	r0, r0, r0
    2af4:	34000000 	strcc	r0, [r0], #-0
    2af8:	42000007 	andmi	r0, r0, #7
    2afc:	03000007 	movweq	r0, #7
    2b00:	9f300800 	svcls	0x00300800
    2b04:	00000744 	andeq	r0, r0, r4, asr #14
    2b08:	00000758 	andeq	r0, r0, r8, asr r7
    2b0c:	30080003 	andcc	r0, r8, r3
    2b10:	0000009f 	muleq	r0, pc, r0	; <UNPREDICTABLE>
    2b14:	00000000 	andeq	r0, r0, r0
    2b18:	00073400 	andeq	r3, r7, r0, lsl #8
    2b1c:	00074200 	andeq	r4, r7, r0, lsl #4
    2b20:	54000100 	strpl	r0, [r0], #-256	; 0xffffff00
    2b24:	00000744 	andeq	r0, r0, r4, asr #14
    2b28:	00000750 	andeq	r0, r0, r0, asr r7
    2b2c:	00540001 	subseq	r0, r4, r1
    2b30:	00000000 	andeq	r0, r0, r0
    2b34:	7c000000 	stcvc	0, cr0, [r0], {-0}
    2b38:	98000006 	stmdals	r0, {r1, r2}
    2b3c:	01000006 	tsteq	r0, r6
    2b40:	06985000 	ldreq	r5, [r8], r0
    2b44:	06ca0000 	strbeq	r0, [sl], r0
    2b48:	00040000 	andeq	r0, r4, r0
    2b4c:	9f5001f3 	svcls	0x005001f3
    2b50:	000006ca 	andeq	r0, r0, sl, asr #13
    2b54:	000006cc 	andeq	r0, r0, ip, asr #13
    2b58:	cc500001 	mrrcgt	0, 0, r0, r0, cr1	; <UNPREDICTABLE>
    2b5c:	d8000006 	stmdale	r0, {r1, r2}
    2b60:	04000006 	streq	r0, [r0], #-6
    2b64:	5001f300 	andpl	pc, r1, r0, lsl #6
    2b68:	0000009f 	muleq	r0, pc, r0	; <UNPREDICTABLE>
    2b6c:	00000000 	andeq	r0, r0, r0
    2b70:	00067c00 	andeq	r7, r6, r0, lsl #24
    2b74:	0006c200 	andeq	ip, r6, r0, lsl #4
    2b78:	38000200 	stmdacc	r0, {r9}
    2b7c:	0006c29f 	muleq	r6, pc, r2	; <UNPREDICTABLE>
    2b80:	0006c400 	andeq	ip, r6, r0, lsl #8
    2b84:	50000100 	andpl	r0, r0, r0, lsl #2
    2b88:	000006c4 	andeq	r0, r0, r4, asr #13
    2b8c:	000006cc 	andeq	r0, r0, ip, asr #13
    2b90:	9f380002 	svcls	0x00380002
    2b94:	000006cc 	andeq	r0, r0, ip, asr #13
    2b98:	000006d8 	ldrdeq	r0, [r0], -r8
    2b9c:	00500001 	subseq	r0, r0, r1
    2ba0:	00000000 	andeq	r0, r0, r0
    2ba4:	9e000000 	cdpls	0, 0, cr0, cr0, cr0, {0}
    2ba8:	a0000006 	andge	r0, r0, r6
    2bac:	0f000006 	svceq	0x00000006
    2bb0:	74007000 	strvc	r7, [r0], #-0
    2bb4:	1aff0800 	bne	fffc4bbc <__bss_end__+0xfffafb50>
    2bb8:	1a4e2431 	bne	138bc84 <__bss_end__+0x1376c18>
    2bbc:	9f1a3325 	svcls	0x001a3325
	...
    2bc8:	00000698 	muleq	r0, r8, r6
    2bcc:	0000069e 	muleq	r0, lr, r6
    2bd0:	c4500001 	ldrbgt	r0, [r0], #-1
    2bd4:	c7000006 	strgt	r0, [r0, -r6]
    2bd8:	01000006 	tsteq	r0, r6
    2bdc:	00005000 	andeq	r5, r0, r0
    2be0:	00000000 	andeq	r0, r0, r0
    2be4:	06540000 	ldrbeq	r0, [r4], -r0
    2be8:	06620000 	strbteq	r0, [r2], -r0
    2bec:	00010000 	andeq	r0, r1, r0
    2bf0:	00066250 	andeq	r6, r6, r0, asr r2
    2bf4:	00067400 	andeq	r7, r6, r0, lsl #8
    2bf8:	55000100 	strpl	r0, [r0, #-256]	; 0xffffff00
    2bfc:	00000674 	andeq	r0, r0, r4, ror r6
    2c00:	0000067c 	andeq	r0, r0, ip, ror r6
    2c04:	01f30004 	mvnseq	r0, r4
    2c08:	00009f50 	andeq	r9, r0, r0, asr pc
    2c0c:	00000000 	andeq	r0, r0, r0
    2c10:	06540000 	ldrbeq	r0, [r4], -r0
    2c14:	065e0000 	ldrbeq	r0, [lr], -r0
    2c18:	00010000 	andeq	r0, r1, r0
    2c1c:	00065e51 	andeq	r5, r6, r1, asr lr
    2c20:	00067400 	andeq	r7, r6, r0, lsl #8
    2c24:	54000100 	strpl	r0, [r0], #-256	; 0xffffff00
    2c28:	00000674 	andeq	r0, r0, r4, ror r6
    2c2c:	0000067c 	andeq	r0, r0, ip, ror r6
    2c30:	01f30004 	mvnseq	r0, r4
    2c34:	00009f51 	andeq	r9, r0, r1, asr pc
    2c38:	00000000 	andeq	r0, r0, r0
    2c3c:	065c0000 	ldrbeq	r0, [ip], -r0
    2c40:	065e0000 	ldrbeq	r0, [lr], -r0
    2c44:	00060000 	andeq	r0, r6, r0
    2c48:	00710070 	rsbseq	r0, r1, r0, ror r0
    2c4c:	065e9f1a 	uadd16eq	r9, lr, sl
    2c50:	06670000 	strbteq	r0, [r7], -r0
    2c54:	00010000 	andeq	r0, r1, r0
    2c58:	00066751 	andeq	r6, r6, r1, asr r7
    2c5c:	00066800 	andeq	r6, r6, r0, lsl #16
    2c60:	75000600 	strvc	r0, [r0, #-1536]	; 0xfffffa00
    2c64:	1a007400 	bne	1fc6c <__bss_end__+0xac00>
    2c68:	0000009f 	muleq	r0, pc, r0	; <UNPREDICTABLE>
    2c6c:	00000000 	andeq	r0, r0, r0
    2c70:	00066800 	andeq	r6, r6, r0, lsl #16
    2c74:	00066e00 	andeq	r6, r6, r0, lsl #28
    2c78:	75000700 	strvc	r0, [r0, #-1792]	; 0xfffff900
    2c7c:	00742000 	rsbseq	r2, r4, r0
    2c80:	066e9f1a 	uqadd16eq	r9, lr, sl
    2c84:	06770000 	ldrbteq	r0, [r7], -r0
    2c88:	00010000 	andeq	r0, r1, r0
    2c8c:	00067751 	andeq	r7, r6, r1, asr r7
    2c90:	00067c00 	andeq	r7, r6, r0, lsl #24
    2c94:	f3000900 	vmls.i8	d0, d0, d0
    2c98:	f3205001 	vhadd.u32	d5, d0, d1
    2c9c:	9f1a5101 	svcls	0x001a5101
	...
    2ca8:	00000634 	andeq	r0, r0, r4, lsr r6
    2cac:	00000642 	andeq	r0, r0, r2, asr #12
    2cb0:	42500001 	subsmi	r0, r0, #1
    2cb4:	45000006 	strmi	r0, [r0, #-6]
    2cb8:	01000006 	tsteq	r0, r6
    2cbc:	06455100 	strbeq	r5, [r5], -r0, lsl #2
    2cc0:	06460000 	strbeq	r0, [r6], -r0
    2cc4:	00040000 	andeq	r0, r4, r0
    2cc8:	9f5001f3 	svcls	0x005001f3
    2ccc:	00000646 	andeq	r0, r0, r6, asr #12
    2cd0:	0000064c 	andeq	r0, r0, ip, asr #12
    2cd4:	4c500001 	mrrcmi	0, 0, r0, r0, cr1	; <UNPREDICTABLE>
    2cd8:	4f000006 	svcmi	0x00000006
    2cdc:	01000006 	tsteq	r0, r6
    2ce0:	064f5100 	strbeq	r5, [pc], -r0, lsl #2
    2ce4:	06540000 	ldrbeq	r0, [r4], -r0
    2ce8:	00040000 	andeq	r0, r4, r0
    2cec:	9f5001f3 	svcls	0x005001f3
	...
    2cf8:	00000634 	andeq	r0, r0, r4, lsr r6
    2cfc:	0000063e 	andeq	r0, r0, lr, lsr r6
    2d00:	3e510001 	cdpcc	0, 5, cr0, cr1, cr1, {0}
    2d04:	46000006 	strmi	r0, [r0], -r6
    2d08:	04000006 	streq	r0, [r0], #-6
    2d0c:	5101f300 	mrspl	pc, SP_irq	; <UNPREDICTABLE>
    2d10:	0006469f 	muleq	r6, pc, r6	; <UNPREDICTABLE>
    2d14:	00064800 	andeq	r4, r6, r0, lsl #16
    2d18:	51000100 	mrspl	r0, (UNDEF: 16)
    2d1c:	00000648 	andeq	r0, r0, r8, asr #12
    2d20:	00000654 	andeq	r0, r0, r4, asr r6
    2d24:	01f30004 	mvnseq	r0, r4
    2d28:	00009f51 	andeq	r9, r0, r1, asr pc
    2d2c:	00000000 	andeq	r0, r0, r0
    2d30:	063c0000 	ldrteq	r0, [ip], -r0
    2d34:	06420000 	strbeq	r0, [r2], -r0
    2d38:	00010000 	andeq	r0, r1, r0
    2d3c:	00064250 	andeq	r4, r6, r0, asr r2
    2d40:	00064500 	andeq	r4, r6, r0, lsl #10
    2d44:	51000100 	mrspl	r0, (UNDEF: 16)
    2d48:	00000645 	andeq	r0, r0, r5, asr #12
    2d4c:	00000646 	andeq	r0, r0, r6, asr #12
    2d50:	01f30004 	mvnseq	r0, r4
    2d54:	00009f50 	andeq	r9, r0, r0, asr pc
    2d58:	00000000 	andeq	r0, r0, r0
    2d5c:	06460000 	strbeq	r0, [r6], -r0
    2d60:	064c0000 	strbeq	r0, [ip], -r0
    2d64:	00010000 	andeq	r0, r1, r0
    2d68:	00064c50 	andeq	r4, r6, r0, asr ip
    2d6c:	00064f00 	andeq	r4, r6, r0, lsl #30
    2d70:	51000100 	mrspl	r0, (UNDEF: 16)
    2d74:	0000064f 	andeq	r0, r0, pc, asr #12
    2d78:	00000654 	andeq	r0, r0, r4, asr r6
    2d7c:	01f30004 	mvnseq	r0, r4
    2d80:	00009f50 	andeq	r9, r0, r0, asr pc
    2d84:	00000000 	andeq	r0, r0, r0
    2d88:	06280000 	strteq	r0, [r8], -r0
    2d8c:	062d0000 	strteq	r0, [sp], -r0
    2d90:	00010000 	andeq	r0, r1, r0
    2d94:	00062d50 	andeq	r2, r6, r0, asr sp
    2d98:	00062e00 	andeq	r2, r6, r0, lsl #28
    2d9c:	f3000400 	vshl.u8	d0, d0, d0
    2da0:	2e9f5001 	cdpcs	0, 9, cr5, cr15, cr1, {0}
    2da4:	31000006 	tstcc	r0, r6
    2da8:	01000006 	tsteq	r0, r6
    2dac:	06315000 	ldrteq	r5, [r1], -r0
    2db0:	06320000 	ldrteq	r0, [r2], -r0
    2db4:	00040000 	andeq	r0, r4, r0
    2db8:	9f5001f3 	svcls	0x005001f3
	...
    2dc4:	00000628 	andeq	r0, r0, r8, lsr #12
    2dc8:	0000062d 	andeq	r0, r0, sp, lsr #12
    2dcc:	2d510001 	ldclcs	0, cr0, [r1, #-4]
    2dd0:	2e000006 	cdpcs	0, 0, cr0, cr0, cr6, {0}
    2dd4:	04000006 	streq	r0, [r0], #-6
    2dd8:	5101f300 	mrspl	pc, SP_irq	; <UNPREDICTABLE>
    2ddc:	00062e9f 	muleq	r6, pc, lr	; <UNPREDICTABLE>
    2de0:	00063100 	andeq	r3, r6, r0, lsl #2
    2de4:	51000100 	mrspl	r0, (UNDEF: 16)
    2de8:	00000631 	andeq	r0, r0, r1, lsr r6
    2dec:	00000632 	andeq	r0, r0, r2, lsr r6
    2df0:	01f30004 	mvnseq	r0, r4
    2df4:	00009f51 	andeq	r9, r0, r1, asr pc
    2df8:	00000000 	andeq	r0, r0, r0
    2dfc:	17a80000 	strne	r0, [r8, r0]!
    2e00:	17d80000 	ldrbne	r0, [r8, r0]
    2e04:	00060000 	andeq	r0, r6, r0
    2e08:	51049350 	tstpl	r4, r0, asr r3
    2e0c:	17d80493 	bfine	r0, r3, #9, #16
    2e10:	17ee0000 	strbne	r0, [lr, r0]!
    2e14:	00060000 	andeq	r0, r6, r0
    2e18:	00f503f3 	ldrshteq	r0, [r5], #51	; 0x33
    2e1c:	17ee9f2c 	strbne	r9, [lr, ip, lsr #30]!
    2e20:	17f10000 	ldrbne	r0, [r1, r0]!
    2e24:	00060000 	andeq	r0, r6, r0
    2e28:	51049350 	tstpl	r4, r0, asr r3
    2e2c:	17f10493 			; <UNDEFINED> instruction: 0x17f10493
    2e30:	186c0000 	stmdane	ip!, {}^	; <UNPREDICTABLE>
    2e34:	00060000 	andeq	r0, r6, r0
    2e38:	00f503f3 	ldrshteq	r0, [r5], #51	; 0x33
    2e3c:	00009f2c 	andeq	r9, r0, ip, lsr #30
    2e40:	00000000 	andeq	r0, r0, r0
    2e44:	17f60000 	ldrbne	r0, [r6, r0]!
    2e48:	18580000 	ldmdane	r8, {}^	; <UNPREDICTABLE>
    2e4c:	00060000 	andeq	r0, r6, r0
    2e50:	5b04935a 	blpl	127bc0 <__bss_end__+0x112b54>
    2e54:	00000493 	muleq	r0, r3, r4
    2e58:	00000000 	andeq	r0, r0, r0
    2e5c:	17d00000 	ldrbne	r0, [r0, r0]
    2e60:	17de0000 	ldrbne	r0, [lr, r0]
    2e64:	00060000 	andeq	r0, r6, r0
    2e68:	00430403 	subeq	r0, r3, r3, lsl #8
    2e6c:	00009f00 	andeq	r9, r0, r0, lsl #30
    2e70:	00000000 	andeq	r0, r0, r0
    2e74:	180a0000 	stmdane	sl, {}	; <UNPREDICTABLE>
    2e78:	18200000 	stmdane	r0!, {}	; <UNPREDICTABLE>
    2e7c:	00060000 	andeq	r0, r6, r0
    2e80:	57049356 	smlsdpl	r4, r6, r3, r9
    2e84:	00000493 	muleq	r0, r3, r4
    2e88:	00000000 	andeq	r0, r0, r0
    2e8c:	180a0000 	stmdane	sl, {}	; <UNPREDICTABLE>
    2e90:	18200000 	stmdane	r0!, {}	; <UNPREDICTABLE>
    2e94:	00060000 	andeq	r0, r6, r0
    2e98:	5b04935a 	blpl	127c08 <__bss_end__+0x112b9c>
    2e9c:	00000493 	muleq	r0, r3, r4
    2ea0:	00000000 	andeq	r0, r0, r0
    2ea4:	18120000 	ldmdane	r2, {}	; <UNPREDICTABLE>
    2ea8:	18200000 	stmdane	r0!, {}	; <UNPREDICTABLE>
    2eac:	00060000 	andeq	r0, r6, r0
    2eb0:	55049354 	strpl	r9, [r4, #-852]	; 0xfffffcac
    2eb4:	00000493 	muleq	r0, r3, r4
    2eb8:	00000000 	andeq	r0, r0, r0
    2ebc:	05b00000 	ldreq	r0, [r0, #0]!
    2ec0:	05bc0000 	ldreq	r0, [ip, #0]!
    2ec4:	00010000 	andeq	r0, r1, r0
    2ec8:	0005bc50 	andeq	fp, r5, r0, asr ip
    2ecc:	0005c800 	andeq	ip, r5, r0, lsl #16
    2ed0:	f3000400 	vshl.u8	d0, d0, d0
    2ed4:	c89f5001 	ldmgt	pc, {r0, ip, lr}	; <UNPREDICTABLE>
    2ed8:	d0000005 	andle	r0, r0, r5
    2edc:	01000005 	tsteq	r0, r5
    2ee0:	00005000 	andeq	r5, r0, r0
    2ee4:	00000000 	andeq	r0, r0, r0
    2ee8:	05b00000 	ldreq	r0, [r0, #0]!
    2eec:	05c00000 	strbeq	r0, [r0]
    2ef0:	00010000 	andeq	r0, r1, r0
    2ef4:	0005c051 	andeq	ip, r5, r1, asr r0
    2ef8:	0005c800 	andeq	ip, r5, r0, lsl #16
    2efc:	f3000400 	vshl.u8	d0, d0, d0
    2f00:	c89f5101 	ldmgt	pc, {r0, r8, ip, lr}	; <UNPREDICTABLE>
    2f04:	d0000005 	andle	r0, r0, r5
    2f08:	01000005 	tsteq	r0, r5
    2f0c:	00005100 	andeq	r5, r0, r0, lsl #2
    2f10:	00000000 	andeq	r0, r0, r0
    2f14:	05ba0000 	ldreq	r0, [sl, #0]!
    2f18:	05bc0000 	ldreq	r0, [ip, #0]!
    2f1c:	000d0000 	andeq	r0, sp, r0
    2f20:	ff080070 			; <UNDEFINED> instruction: 0xff080070
    2f24:	320b231a 	andcc	r2, fp, #1744830464	; 0x68000000
    2f28:	22007324 	andcs	r7, r0, #36, 6	; 0x90000000
    2f2c:	0005bc9f 	muleq	r5, pc, ip	; <UNPREDICTABLE>
    2f30:	0005c700 	andeq	ip, r5, r0, lsl #14
    2f34:	f3000e00 	vcge.f32	d0, d0, d0
    2f38:	ff085001 			; <UNDEFINED> instruction: 0xff085001
    2f3c:	320b231a 	andcc	r2, fp, #1744830464	; 0x68000000
    2f40:	22007324 	andcs	r7, r0, #36, 6	; 0x90000000
    2f44:	0000009f 	muleq	r0, pc, r0	; <UNPREDICTABLE>
    2f48:	00000000 	andeq	r0, r0, r0
    2f4c:	00059400 	andeq	r9, r5, r0, lsl #8
    2f50:	0005a000 	andeq	sl, r5, r0
    2f54:	50000100 	andpl	r0, r0, r0, lsl #2
    2f58:	000005a0 	andeq	r0, r0, r0, lsr #11
    2f5c:	000005a8 	andeq	r0, r0, r8, lsr #11
    2f60:	01f30004 	mvnseq	r0, r4
    2f64:	05a89f50 	streq	r9, [r8, #3920]!	; 0xf50
    2f68:	05aa0000 	streq	r0, [sl, #0]!
    2f6c:	00010000 	andeq	r0, r1, r0
    2f70:	0005aa50 	andeq	sl, r5, r0, asr sl
    2f74:	0005b000 	andeq	fp, r5, r0
    2f78:	f3000400 	vshl.u8	d0, d0, d0
    2f7c:	009f5001 	addseq	r5, pc, r1
    2f80:	00000000 	andeq	r0, r0, r0
    2f84:	9e000000 	cdpls	0, 0, cr0, cr0, cr0, {0}
    2f88:	a0000005 	andge	r0, r0, r5
    2f8c:	0d000005 	stceq	0, cr0, [r0, #-20]	; 0xffffffec
    2f90:	08007000 	stmdaeq	r0, {ip, sp, lr}
    2f94:	0b231aff 	bleq	8c9b98 <__bss_end__+0x8b4b2c>
    2f98:	00732432 	rsbseq	r2, r3, r2, lsr r4
    2f9c:	05a09f22 	streq	r9, [r0, #3874]!	; 0xf22
    2fa0:	05a70000 	streq	r0, [r7, #0]!
    2fa4:	000e0000 	andeq	r0, lr, r0
    2fa8:	085001f3 	ldmdaeq	r0, {r0, r1, r4, r5, r6, r7, r8}^
    2fac:	0b231aff 	bleq	8c9bb0 <__bss_end__+0x8b4b44>
    2fb0:	00732432 	rsbseq	r2, r3, r2, lsr r4
    2fb4:	00009f22 	andeq	r9, r0, r2, lsr #30
    2fb8:	00000000 	andeq	r0, r0, r0
    2fbc:	05580000 	ldrbeq	r0, [r8, #-0]
    2fc0:	056a0000 	strbeq	r0, [sl, #-0]!
    2fc4:	00010000 	andeq	r0, r1, r0
    2fc8:	00056a50 	andeq	r6, r5, r0, asr sl
    2fcc:	00058000 	andeq	r8, r5, r0
    2fd0:	f3000400 	vshl.u8	d0, d0, d0
    2fd4:	009f5001 	addseq	r5, pc, r1
    2fd8:	00000000 	andeq	r0, r0, r0
    2fdc:	64000000 	strvs	r0, [r0], #-0
    2fe0:	6a000005 	bvs	2ffc <bcm2835_i2c_setClockDivider+0x28>
    2fe4:	13000005 	movwne	r0, #5
    2fe8:	35007000 	strcc	r7, [r0, #-0]
    2fec:	1aff0825 	bne	fffc5088 <__bss_end__+0xfffb001c>
    2ff0:	24322223 	ldrtcs	r2, [r2], #-547	; 0xfffffddd
    2ff4:	01502403 	cmpeq	r0, r3, lsl #8
    2ff8:	9f220600 	svcls	0x00220600
    2ffc:	0000056a 	andeq	r0, r0, sl, ror #10
    3000:	0000057b 	andeq	r0, r0, fp, ror r5
    3004:	01f30014 	mvnseq	r0, r4, lsl r0
    3008:	08253550 	stmdaeq	r5!, {r4, r6, r8, sl, ip, sp}
    300c:	22231aff 	eorcs	r1, r3, #1044480	; 0xff000
    3010:	24032432 	strcs	r2, [r3], #-1074	; 0xfffffbce
    3014:	06000150 			; <UNDEFINED> instruction: 0x06000150
    3018:	00009f22 	andeq	r9, r0, r2, lsr #30
    301c:	00000000 	andeq	r0, r0, r0
    3020:	05640000 	strbeq	r0, [r4, #-0]!
    3024:	056a0000 	strbeq	r0, [sl, #-0]!
    3028:	00050000 	andeq	r0, r5, r0
    302c:	1a4f0070 	bne	13c31f4 <__bss_end__+0x13ae188>
    3030:	00056a9f 	muleq	r5, pc, sl	; <UNPREDICTABLE>
    3034:	00058000 	andeq	r8, r5, r0
    3038:	f3000600 	vmax.u8	d0, d0, d0
    303c:	1a4f5001 	bne	13d7048 <__bss_end__+0x13c1fdc>
    3040:	0000009f 	muleq	r0, pc, r0	; <UNPREDICTABLE>
    3044:	00000000 	andeq	r0, r0, r0
    3048:	00056400 	andeq	r6, r5, r0, lsl #8
    304c:	00056a00 	andeq	r6, r5, r0, lsl #20
    3050:	31000a00 	tstcc	r0, r0, lsl #20
    3054:	1a4f0070 	bne	13c321c <__bss_end__+0x13ae1b0>
    3058:	241aff08 	ldrcs	pc, [sl], #-3848	; 0xfffff0f8
    305c:	00056a9f 	muleq	r5, pc, sl	; <UNPREDICTABLE>
    3060:	00058000 	andeq	r8, r5, r0
    3064:	31000b00 	tstcc	r0, r0, lsl #22
    3068:	4f5001f3 	svcmi	0x005001f3
    306c:	1aff081a 	bne	fffc50dc <__bss_end__+0xfffb0070>
    3070:	00009f24 	andeq	r9, r0, r4, lsr #30
    3074:	00000000 	andeq	r0, r0, r0
    3078:	05300000 	ldreq	r0, [r0, #-0]!
    307c:	05460000 	strbeq	r0, [r6, #-0]
    3080:	00010000 	andeq	r0, r1, r0
    3084:	00054650 	andeq	r4, r5, r0, asr r6
    3088:	00055800 	andeq	r5, r5, r0, lsl #16
    308c:	f3000400 	vshl.u8	d0, d0, d0
    3090:	009f5001 	addseq	r5, pc, r1
    3094:	00000000 	andeq	r0, r0, r0
    3098:	40000000 	andmi	r0, r0, r0
    309c:	46000005 	strmi	r0, [r0], -r5
    30a0:	13000005 	movwne	r0, #5
    30a4:	35007000 	strcc	r7, [r0, #-0]
    30a8:	1aff0825 	bne	fffc5144 <__bss_end__+0xfffb00d8>
    30ac:	24322223 	ldrtcs	r2, [r2], #-547	; 0xfffffddd
    30b0:	01502403 	cmpeq	r0, r3, lsl #8
    30b4:	9f220600 	svcls	0x00220600
    30b8:	00000546 	andeq	r0, r0, r6, asr #10
    30bc:	00000553 	andeq	r0, r0, r3, asr r5
    30c0:	01f30014 	mvnseq	r0, r4, lsl r0
    30c4:	08253550 	stmdaeq	r5!, {r4, r6, r8, sl, ip, sp}
    30c8:	22231aff 	eorcs	r1, r3, #1044480	; 0xff000
    30cc:	24032432 	strcs	r2, [r3], #-1074	; 0xfffffbce
    30d0:	06000150 			; <UNDEFINED> instruction: 0x06000150
    30d4:	00009f22 	andeq	r9, r0, r2, lsr #30
    30d8:	00000000 	andeq	r0, r0, r0
    30dc:	05400000 	strbeq	r0, [r0, #-0]
    30e0:	05460000 	strbeq	r0, [r6, #-0]
    30e4:	00050000 	andeq	r0, r5, r0
    30e8:	1a4f0070 	bne	13c32b0 <__bss_end__+0x13ae244>
    30ec:	0005469f 	muleq	r5, pc, r6	; <UNPREDICTABLE>
    30f0:	00055800 	andeq	r5, r5, r0, lsl #16
    30f4:	f3000600 	vmax.u8	d0, d0, d0
    30f8:	1a4f5001 	bne	13d7104 <__bss_end__+0x13c2098>
    30fc:	0000009f 	muleq	r0, pc, r0	; <UNPREDICTABLE>
    3100:	00000000 	andeq	r0, r0, r0
    3104:	00054400 	andeq	r4, r5, r0, lsl #8
    3108:	00055300 	andeq	r5, r5, r0, lsl #6
    310c:	52000100 	andpl	r0, r0, #0, 2
	...
    3118:	00000508 	andeq	r0, r0, r8, lsl #10
    311c:	0000051a 	andeq	r0, r0, sl, lsl r5
    3120:	1a500001 	bne	140312c <__bss_end__+0x13ee0c0>
    3124:	30000005 	andcc	r0, r0, r5
    3128:	04000005 	streq	r0, [r0], #-5
    312c:	5001f300 	andpl	pc, r1, r0, lsl #6
    3130:	0000009f 	muleq	r0, pc, r0	; <UNPREDICTABLE>
    3134:	00000000 	andeq	r0, r0, r0
    3138:	00051400 	andeq	r1, r5, r0, lsl #8
    313c:	00051a00 	andeq	r1, r5, r0, lsl #20
    3140:	70001300 	andvc	r1, r0, r0, lsl #6
    3144:	08253500 	stmdaeq	r5!, {r8, sl, ip, sp}
    3148:	1f231aff 	svcne	0x00231aff
    314c:	24032432 	strcs	r2, [r3], #-1074	; 0xfffffbce
    3150:	06000150 			; <UNDEFINED> instruction: 0x06000150
    3154:	051a9f22 	ldreq	r9, [sl, #-3874]	; 0xfffff0de
    3158:	052b0000 	streq	r0, [fp, #-0]!
    315c:	00140000 	andseq	r0, r4, r0
    3160:	355001f3 	ldrbcc	r0, [r0, #-499]	; 0xfffffe0d
    3164:	1aff0825 	bne	fffc5200 <__bss_end__+0xfffb0194>
    3168:	24321f23 	ldrtcs	r1, [r2], #-3875	; 0xfffff0dd
    316c:	01502403 	cmpeq	r0, r3, lsl #8
    3170:	9f220600 	svcls	0x00220600
	...
    317c:	00000514 	andeq	r0, r0, r4, lsl r5
    3180:	0000051a 	andeq	r0, r0, sl, lsl r5
    3184:	00700005 	rsbseq	r0, r0, r5
    3188:	1a9f1a4f 	bne	fe7c9acc <__bss_end__+0xfe7b4a60>
    318c:	30000005 	andcc	r0, r0, r5
    3190:	06000005 	streq	r0, [r0], -r5
    3194:	5001f300 	andpl	pc, r1, r0, lsl #6
    3198:	009f1a4f 	addseq	r1, pc, pc, asr #20
    319c:	00000000 	andeq	r0, r0, r0
    31a0:	14000000 	strne	r0, [r0], #-0
    31a4:	1a000005 	bne	31c0 <bcm2835_i2c_read+0x7c>
    31a8:	0a000005 	beq	31c4 <bcm2835_i2c_read+0x80>
    31ac:	00703100 	rsbseq	r3, r0, r0, lsl #2
    31b0:	ff081a4f 			; <UNDEFINED> instruction: 0xff081a4f
    31b4:	1a9f241a 	bne	fe7cc224 <__bss_end__+0xfe7b71b8>
    31b8:	30000005 	andcc	r0, r0, r5
    31bc:	0b000005 	bleq	31d8 <bcm2835_i2c_read+0x94>
    31c0:	01f33100 	mvnseq	r3, r0, lsl #2
    31c4:	081a4f50 	ldmdaeq	sl, {r4, r6, r8, r9, sl, fp, lr}
    31c8:	9f241aff 	svcls	0x00241aff
	...
    31d4:	000004e0 	andeq	r0, r0, r0, ror #9
    31d8:	000004f6 	strdeq	r0, [r0], -r6
    31dc:	f6500001 			; <UNDEFINED> instruction: 0xf6500001
    31e0:	08000004 	stmdaeq	r0, {r2}
    31e4:	04000005 	streq	r0, [r0], #-5
    31e8:	5001f300 	andpl	pc, r1, r0, lsl #6
    31ec:	0000009f 	muleq	r0, pc, r0	; <UNPREDICTABLE>
    31f0:	00000000 	andeq	r0, r0, r0
    31f4:	0004f000 	andeq	pc, r4, r0
    31f8:	0004f600 	andeq	pc, r4, r0, lsl #12
    31fc:	70001300 	andvc	r1, r0, r0, lsl #6
    3200:	08253500 	stmdaeq	r5!, {r8, sl, ip, sp}
    3204:	1f231aff 	svcne	0x00231aff
    3208:	24032432 	strcs	r2, [r3], #-1074	; 0xfffffbce
    320c:	06000150 			; <UNDEFINED> instruction: 0x06000150
    3210:	04f69f22 	ldrbteq	r9, [r6], #3874	; 0xf22
    3214:	05030000 	streq	r0, [r3, #-0]
    3218:	00140000 	andseq	r0, r4, r0
    321c:	355001f3 	ldrbcc	r0, [r0, #-499]	; 0xfffffe0d
    3220:	1aff0825 	bne	fffc52bc <__bss_end__+0xfffb0250>
    3224:	24321f23 	ldrtcs	r1, [r2], #-3875	; 0xfffff0dd
    3228:	01502403 	cmpeq	r0, r3, lsl #8
    322c:	9f220600 	svcls	0x00220600
	...
    3238:	000004f0 	strdeq	r0, [r0], -r0	; <UNPREDICTABLE>
    323c:	000004f6 	strdeq	r0, [r0], -r6
    3240:	00700005 	rsbseq	r0, r0, r5
    3244:	f69f1a4f 			; <UNDEFINED> instruction: 0xf69f1a4f
    3248:	08000004 	stmdaeq	r0, {r2}
    324c:	06000005 	streq	r0, [r0], -r5
    3250:	5001f300 	andpl	pc, r1, r0, lsl #6
    3254:	009f1a4f 	addseq	r1, pc, pc, asr #20
    3258:	00000000 	andeq	r0, r0, r0
    325c:	f4000000 	vst4.8	{d0-d3}, [r0], r0
    3260:	03000004 	movweq	r0, #4
    3264:	01000005 	tsteq	r0, r5
    3268:	00005200 	andeq	r5, r0, r0, lsl #4
    326c:	00000000 	andeq	r0, r0, r0
    3270:	04b80000 	ldrteq	r0, [r8], #0
    3274:	04ca0000 	strbeq	r0, [sl], #0
    3278:	00010000 	andeq	r0, r1, r0
    327c:	0004ca50 	andeq	ip, r4, r0, asr sl
    3280:	0004e000 	andeq	lr, r4, r0
    3284:	f3000400 	vshl.u8	d0, d0, d0
    3288:	009f5001 	addseq	r5, pc, r1
    328c:	00000000 	andeq	r0, r0, r0
    3290:	c4000000 	strgt	r0, [r0], #-0
    3294:	ca000004 	bgt	32ac <bcm2835_i2c_read+0x168>
    3298:	13000004 	movwne	r0, #4
    329c:	35007000 	strcc	r7, [r0, #-0]
    32a0:	1aff0825 	bne	fffc533c <__bss_end__+0xfffb02d0>
    32a4:	24321c23 	ldrtcs	r1, [r2], #-3107	; 0xfffff3dd
    32a8:	01502403 	cmpeq	r0, r3, lsl #8
    32ac:	9f220600 	svcls	0x00220600
    32b0:	000004ca 	andeq	r0, r0, sl, asr #9
    32b4:	000004db 	ldrdeq	r0, [r0], -fp
    32b8:	01f30014 	mvnseq	r0, r4, lsl r0
    32bc:	08253550 	stmdaeq	r5!, {r4, r6, r8, sl, ip, sp}
    32c0:	1c231aff 			; <UNDEFINED> instruction: 0x1c231aff
    32c4:	24032432 	strcs	r2, [r3], #-1074	; 0xfffffbce
    32c8:	06000150 			; <UNDEFINED> instruction: 0x06000150
    32cc:	00009f22 	andeq	r9, r0, r2, lsr #30
    32d0:	00000000 	andeq	r0, r0, r0
    32d4:	04c40000 	strbeq	r0, [r4], #0
    32d8:	04ca0000 	strbeq	r0, [sl], #0
    32dc:	00050000 	andeq	r0, r5, r0
    32e0:	1a4f0070 	bne	13c34a8 <__bss_end__+0x13ae43c>
    32e4:	0004ca9f 	muleq	r4, pc, sl	; <UNPREDICTABLE>
    32e8:	0004e000 	andeq	lr, r4, r0
    32ec:	f3000600 	vmax.u8	d0, d0, d0
    32f0:	1a4f5001 	bne	13d72fc <__bss_end__+0x13c2290>
    32f4:	0000009f 	muleq	r0, pc, r0	; <UNPREDICTABLE>
    32f8:	00000000 	andeq	r0, r0, r0
    32fc:	0004c400 	andeq	ip, r4, r0, lsl #8
    3300:	0004ca00 	andeq	ip, r4, r0, lsl #20
    3304:	31000a00 	tstcc	r0, r0, lsl #20
    3308:	1a4f0070 	bne	13c34d0 <__bss_end__+0x13ae464>
    330c:	241aff08 	ldrcs	pc, [sl], #-3848	; 0xfffff0f8
    3310:	0004ca9f 	muleq	r4, pc, sl	; <UNPREDICTABLE>
    3314:	0004e000 	andeq	lr, r4, r0
    3318:	31000b00 	tstcc	r0, r0, lsl #22
    331c:	4f5001f3 	svcmi	0x005001f3
    3320:	1aff081a 	bne	fffc5390 <__bss_end__+0xfffb0324>
    3324:	00009f24 	andeq	r9, r0, r4, lsr #30
    3328:	00000000 	andeq	r0, r0, r0
    332c:	04900000 	ldreq	r0, [r0], #0
    3330:	04a60000 	strteq	r0, [r6], #0
    3334:	00010000 	andeq	r0, r1, r0
    3338:	0004a650 	andeq	sl, r4, r0, asr r6
    333c:	0004b800 	andeq	fp, r4, r0, lsl #16
    3340:	f3000400 	vshl.u8	d0, d0, d0
    3344:	009f5001 	addseq	r5, pc, r1
    3348:	00000000 	andeq	r0, r0, r0
    334c:	a0000000 	andge	r0, r0, r0
    3350:	a6000004 	strge	r0, [r0], -r4
    3354:	13000004 	movwne	r0, #4
    3358:	35007000 	strcc	r7, [r0, #-0]
    335c:	1aff0825 	bne	fffc53f8 <__bss_end__+0xfffb038c>
    3360:	24321c23 	ldrtcs	r1, [r2], #-3107	; 0xfffff3dd
    3364:	01502403 	cmpeq	r0, r3, lsl #8
    3368:	9f220600 	svcls	0x00220600
    336c:	000004a6 	andeq	r0, r0, r6, lsr #9
    3370:	000004b3 			; <UNDEFINED> instruction: 0x000004b3
    3374:	01f30014 	mvnseq	r0, r4, lsl r0
    3378:	08253550 	stmdaeq	r5!, {r4, r6, r8, sl, ip, sp}
    337c:	1c231aff 			; <UNDEFINED> instruction: 0x1c231aff
    3380:	24032432 	strcs	r2, [r3], #-1074	; 0xfffffbce
    3384:	06000150 			; <UNDEFINED> instruction: 0x06000150
    3388:	00009f22 	andeq	r9, r0, r2, lsr #30
    338c:	00000000 	andeq	r0, r0, r0
    3390:	04a00000 	strteq	r0, [r0], #0
    3394:	04a60000 	strteq	r0, [r6], #0
    3398:	00050000 	andeq	r0, r5, r0
    339c:	1a4f0070 	bne	13c3564 <__bss_end__+0x13ae4f8>
    33a0:	0004a69f 	muleq	r4, pc, r6	; <UNPREDICTABLE>
    33a4:	0004b800 	andeq	fp, r4, r0, lsl #16
    33a8:	f3000600 	vmax.u8	d0, d0, d0
    33ac:	1a4f5001 	bne	13d73b8 <__bss_end__+0x13c234c>
    33b0:	0000009f 	muleq	r0, pc, r0	; <UNPREDICTABLE>
    33b4:	00000000 	andeq	r0, r0, r0
    33b8:	0004a400 	andeq	sl, r4, r0, lsl #8
    33bc:	0004b300 	andeq	fp, r4, r0, lsl #6
    33c0:	52000100 	andpl	r0, r0, #0, 2
	...
    33cc:	00000468 	andeq	r0, r0, r8, ror #8
    33d0:	0000047a 	andeq	r0, r0, sl, ror r4
    33d4:	7a500001 	bvc	14033e0 <__bss_end__+0x13ee374>
    33d8:	90000004 	andls	r0, r0, r4
    33dc:	04000004 	streq	r0, [r0], #-4
    33e0:	5001f300 	andpl	pc, r1, r0, lsl #6
    33e4:	0000009f 	muleq	r0, pc, r0	; <UNPREDICTABLE>
    33e8:	00000000 	andeq	r0, r0, r0
    33ec:	00047400 	andeq	r7, r4, r0, lsl #8
    33f0:	00047a00 	andeq	r7, r4, r0, lsl #20
    33f4:	70001300 	andvc	r1, r0, r0, lsl #6
    33f8:	08253500 	stmdaeq	r5!, {r8, sl, ip, sp}
    33fc:	19231aff 	stmdbne	r3!, {r0, r1, r2, r3, r4, r5, r6, r7, r9, fp, ip}
    3400:	24032432 	strcs	r2, [r3], #-1074	; 0xfffffbce
    3404:	06000150 			; <UNDEFINED> instruction: 0x06000150
    3408:	047a9f22 	ldrbteq	r9, [sl], #-3874	; 0xfffff0de
    340c:	048b0000 	streq	r0, [fp], #0
    3410:	00140000 	andseq	r0, r4, r0
    3414:	355001f3 	ldrbcc	r0, [r0, #-499]	; 0xfffffe0d
    3418:	1aff0825 	bne	fffc54b4 <__bss_end__+0xfffb0448>
    341c:	24321923 	ldrtcs	r1, [r2], #-2339	; 0xfffff6dd
    3420:	01502403 	cmpeq	r0, r3, lsl #8
    3424:	9f220600 	svcls	0x00220600
	...
    3430:	00000474 	andeq	r0, r0, r4, ror r4
    3434:	0000047a 	andeq	r0, r0, sl, ror r4
    3438:	00700005 	rsbseq	r0, r0, r5
    343c:	7a9f1a4f 	bvc	fe7c9d80 <__bss_end__+0xfe7b4d14>
    3440:	90000004 	andls	r0, r0, r4
    3444:	06000004 	streq	r0, [r0], -r4
    3448:	5001f300 	andpl	pc, r1, r0, lsl #6
    344c:	009f1a4f 	addseq	r1, pc, pc, asr #20
    3450:	00000000 	andeq	r0, r0, r0
    3454:	74000000 	strvc	r0, [r0], #-0
    3458:	7a000004 	bvc	3470 <bcm2835_smi_end+0x18>
    345c:	0a000004 	beq	3474 <bcm2835_smi_end+0x1c>
    3460:	00703100 	rsbseq	r3, r0, r0, lsl #2
    3464:	ff081a4f 			; <UNDEFINED> instruction: 0xff081a4f
    3468:	7a9f241a 	bvc	fe7cc4d8 <__bss_end__+0xfe7b746c>
    346c:	90000004 	andls	r0, r0, r4
    3470:	0b000004 	bleq	3488 <bcm2835_smi_end+0x30>
    3474:	01f33100 	mvnseq	r3, r0, lsl #2
    3478:	081a4f50 	ldmdaeq	sl, {r4, r6, r8, r9, sl, fp, lr}
    347c:	9f241aff 	svcls	0x00241aff
	...
    3488:	00000440 	andeq	r0, r0, r0, asr #8
    348c:	00000456 	andeq	r0, r0, r6, asr r4
    3490:	56500001 	ldrbpl	r0, [r0], -r1
    3494:	68000004 	stmdavs	r0, {r2}
    3498:	04000004 	streq	r0, [r0], #-4
    349c:	5001f300 	andpl	pc, r1, r0, lsl #6
    34a0:	0000009f 	muleq	r0, pc, r0	; <UNPREDICTABLE>
    34a4:	00000000 	andeq	r0, r0, r0
    34a8:	00045000 	andeq	r5, r4, r0
    34ac:	00045600 	andeq	r5, r4, r0, lsl #12
    34b0:	70001300 	andvc	r1, r0, r0, lsl #6
    34b4:	08253500 	stmdaeq	r5!, {r8, sl, ip, sp}
    34b8:	19231aff 	stmdbne	r3!, {r0, r1, r2, r3, r4, r5, r6, r7, r9, fp, ip}
    34bc:	24032432 	strcs	r2, [r3], #-1074	; 0xfffffbce
    34c0:	06000150 			; <UNDEFINED> instruction: 0x06000150
    34c4:	04569f22 	ldrbeq	r9, [r6], #-3874	; 0xfffff0de
    34c8:	04630000 	strbteq	r0, [r3], #-0
    34cc:	00140000 	andseq	r0, r4, r0
    34d0:	355001f3 	ldrbcc	r0, [r0, #-499]	; 0xfffffe0d
    34d4:	1aff0825 	bne	fffc5570 <__bss_end__+0xfffb0504>
    34d8:	24321923 	ldrtcs	r1, [r2], #-2339	; 0xfffff6dd
    34dc:	01502403 	cmpeq	r0, r3, lsl #8
    34e0:	9f220600 	svcls	0x00220600
	...
    34ec:	00000450 	andeq	r0, r0, r0, asr r4
    34f0:	00000456 	andeq	r0, r0, r6, asr r4
    34f4:	00700005 	rsbseq	r0, r0, r5
    34f8:	569f1a4f 	ldrpl	r1, [pc], pc, asr #20
    34fc:	68000004 	stmdavs	r0, {r2}
    3500:	06000004 	streq	r0, [r0], -r4
    3504:	5001f300 	andpl	pc, r1, r0, lsl #6
    3508:	009f1a4f 	addseq	r1, pc, pc, asr #20
    350c:	00000000 	andeq	r0, r0, r0
    3510:	54000000 	strpl	r0, [r0], #-0
    3514:	63000004 	movwvs	r0, #4
    3518:	01000004 	tsteq	r0, r4
    351c:	00005200 	andeq	r5, r0, r0, lsl #4
    3520:	00000000 	andeq	r0, r0, r0
    3524:	04180000 	ldreq	r0, [r8], #-0
    3528:	042a0000 	strteq	r0, [sl], #-0
    352c:	00010000 	andeq	r0, r1, r0
    3530:	00042a50 	andeq	r2, r4, r0, asr sl
    3534:	00044000 	andeq	r4, r4, r0
    3538:	f3000400 	vshl.u8	d0, d0, d0
    353c:	009f5001 	addseq	r5, pc, r1
    3540:	00000000 	andeq	r0, r0, r0
    3544:	24000000 	strcs	r0, [r0], #-0
    3548:	2a000004 	bcs	3560 <bcm2835_smi_set_timing+0x48>
    354c:	13000004 	movwne	r0, #4
    3550:	35007000 	strcc	r7, [r0, #-0]
    3554:	1aff0825 	bne	fffc55f0 <__bss_end__+0xfffb0584>
    3558:	24321623 	ldrtcs	r1, [r2], #-1571	; 0xfffff9dd
    355c:	01502403 	cmpeq	r0, r3, lsl #8
    3560:	9f220600 	svcls	0x00220600
    3564:	0000042a 	andeq	r0, r0, sl, lsr #8
    3568:	0000043b 	andeq	r0, r0, fp, lsr r4
    356c:	01f30014 	mvnseq	r0, r4, lsl r0
    3570:	08253550 	stmdaeq	r5!, {r4, r6, r8, sl, ip, sp}
    3574:	16231aff 			; <UNDEFINED> instruction: 0x16231aff
    3578:	24032432 	strcs	r2, [r3], #-1074	; 0xfffffbce
    357c:	06000150 			; <UNDEFINED> instruction: 0x06000150
    3580:	00009f22 	andeq	r9, r0, r2, lsr #30
    3584:	00000000 	andeq	r0, r0, r0
    3588:	04240000 	strteq	r0, [r4], #-0
    358c:	042a0000 	strteq	r0, [sl], #-0
    3590:	00050000 	andeq	r0, r5, r0
    3594:	1a4f0070 	bne	13c375c <__bss_end__+0x13ae6f0>
    3598:	00042a9f 	muleq	r4, pc, sl	; <UNPREDICTABLE>
    359c:	00044000 	andeq	r4, r4, r0
    35a0:	f3000600 	vmax.u8	d0, d0, d0
    35a4:	1a4f5001 	bne	13d75b0 <__bss_end__+0x13c2544>
    35a8:	0000009f 	muleq	r0, pc, r0	; <UNPREDICTABLE>
    35ac:	00000000 	andeq	r0, r0, r0
    35b0:	00042400 	andeq	r2, r4, r0, lsl #8
    35b4:	00042a00 	andeq	r2, r4, r0, lsl #20
    35b8:	31000a00 	tstcc	r0, r0, lsl #20
    35bc:	1a4f0070 	bne	13c3784 <__bss_end__+0x13ae718>
    35c0:	241aff08 	ldrcs	pc, [sl], #-3848	; 0xfffff0f8
    35c4:	00042a9f 	muleq	r4, pc, sl	; <UNPREDICTABLE>
    35c8:	00044000 	andeq	r4, r4, r0
    35cc:	31000b00 	tstcc	r0, r0, lsl #22
    35d0:	4f5001f3 	svcmi	0x005001f3
    35d4:	1aff081a 	bne	fffc5644 <__bss_end__+0xfffb05d8>
    35d8:	00009f24 	andeq	r9, r0, r4, lsr #30
    35dc:	00000000 	andeq	r0, r0, r0
    35e0:	03f00000 	mvnseq	r0, #0
    35e4:	04060000 	streq	r0, [r6], #-0
    35e8:	00010000 	andeq	r0, r1, r0
    35ec:	00040650 	andeq	r0, r4, r0, asr r6
    35f0:	00041800 	andeq	r1, r4, r0, lsl #16
    35f4:	f3000400 	vshl.u8	d0, d0, d0
    35f8:	009f5001 	addseq	r5, pc, r1
	...
    3604:	06000004 	streq	r0, [r0], -r4
    3608:	13000004 	movwne	r0, #4
    360c:	35007000 	strcc	r7, [r0, #-0]
    3610:	1aff0825 	bne	fffc56ac <__bss_end__+0xfffb0640>
    3614:	24321623 	ldrtcs	r1, [r2], #-1571	; 0xfffff9dd
    3618:	01502403 	cmpeq	r0, r3, lsl #8
    361c:	9f220600 	svcls	0x00220600
    3620:	00000406 	andeq	r0, r0, r6, lsl #8
    3624:	00000413 	andeq	r0, r0, r3, lsl r4
    3628:	01f30014 	mvnseq	r0, r4, lsl r0
    362c:	08253550 	stmdaeq	r5!, {r4, r6, r8, sl, ip, sp}
    3630:	16231aff 			; <UNDEFINED> instruction: 0x16231aff
    3634:	24032432 	strcs	r2, [r3], #-1074	; 0xfffffbce
    3638:	06000150 			; <UNDEFINED> instruction: 0x06000150
    363c:	00009f22 	andeq	r9, r0, r2, lsr #30
    3640:	00000000 	andeq	r0, r0, r0
    3644:	04000000 	streq	r0, [r0], #-0
    3648:	04060000 	streq	r0, [r6], #-0
    364c:	00050000 	andeq	r0, r5, r0
    3650:	1a4f0070 	bne	13c3818 <__bss_end__+0x13ae7ac>
    3654:	0004069f 	muleq	r4, pc, r6	; <UNPREDICTABLE>
    3658:	00041800 	andeq	r1, r4, r0, lsl #16
    365c:	f3000600 	vmax.u8	d0, d0, d0
    3660:	1a4f5001 	bne	13d766c <__bss_end__+0x13c2600>
    3664:	0000009f 	muleq	r0, pc, r0	; <UNPREDICTABLE>
    3668:	00000000 	andeq	r0, r0, r0
    366c:	00040400 	andeq	r0, r4, r0, lsl #8
    3670:	00041300 	andeq	r1, r4, r0, lsl #6
    3674:	52000100 	andpl	r0, r0, #0, 2
	...
    3680:	000003c8 	andeq	r0, r0, r8, asr #7
    3684:	000003da 	ldrdeq	r0, [r0], -sl
    3688:	da500001 	ble	1403694 <__bss_end__+0x13ee628>
    368c:	f0000003 			; <UNDEFINED> instruction: 0xf0000003
    3690:	04000003 	streq	r0, [r0], #-3
    3694:	5001f300 	andpl	pc, r1, r0, lsl #6
    3698:	0000009f 	muleq	r0, pc, r0	; <UNPREDICTABLE>
    369c:	00000000 	andeq	r0, r0, r0
    36a0:	0003d400 	andeq	sp, r3, r0, lsl #8
    36a4:	0003da00 	andeq	sp, r3, r0, lsl #20
    36a8:	70001300 	andvc	r1, r0, r0, lsl #6
    36ac:	08253500 	stmdaeq	r5!, {r8, sl, ip, sp}
    36b0:	13231aff 			; <UNDEFINED> instruction: 0x13231aff
    36b4:	24032432 	strcs	r2, [r3], #-1074	; 0xfffffbce
    36b8:	06000150 			; <UNDEFINED> instruction: 0x06000150
    36bc:	03da9f22 	bicseq	r9, sl, #34, 30	; 0x88
    36c0:	03eb0000 	mvneq	r0, #0
    36c4:	00140000 	andseq	r0, r4, r0
    36c8:	355001f3 	ldrbcc	r0, [r0, #-499]	; 0xfffffe0d
    36cc:	1aff0825 	bne	fffc5768 <__bss_end__+0xfffb06fc>
    36d0:	24321323 	ldrtcs	r1, [r2], #-803	; 0xfffffcdd
    36d4:	01502403 	cmpeq	r0, r3, lsl #8
    36d8:	9f220600 	svcls	0x00220600
	...
    36e4:	000003d4 	ldrdeq	r0, [r0], -r4
    36e8:	000003da 	ldrdeq	r0, [r0], -sl
    36ec:	00700005 	rsbseq	r0, r0, r5
    36f0:	da9f1a4f 	ble	fe7ca034 <__bss_end__+0xfe7b4fc8>
    36f4:	f0000003 			; <UNDEFINED> instruction: 0xf0000003
    36f8:	06000003 	streq	r0, [r0], -r3
    36fc:	5001f300 	andpl	pc, r1, r0, lsl #6
    3700:	009f1a4f 	addseq	r1, pc, pc, asr #20
    3704:	00000000 	andeq	r0, r0, r0
    3708:	d4000000 	strle	r0, [r0], #-0
    370c:	da000003 	ble	3720 <bcm2835_delayMicroseconds+0x50>
    3710:	0a000003 	beq	3724 <bcm2835_delayMicroseconds+0x54>
    3714:	00703100 	rsbseq	r3, r0, r0, lsl #2
    3718:	ff081a4f 			; <UNDEFINED> instruction: 0xff081a4f
    371c:	da9f241a 	ble	fe7cc78c <__bss_end__+0xfe7b7720>
    3720:	f0000003 			; <UNDEFINED> instruction: 0xf0000003
    3724:	0b000003 	bleq	3738 <bcm2835_delayMicroseconds+0x68>
    3728:	01f33100 	mvnseq	r3, r0, lsl #2
    372c:	081a4f50 	ldmdaeq	sl, {r4, r6, r8, r9, sl, fp, lr}
    3730:	9f241aff 	svcls	0x00241aff
	...
    373c:	000003a0 	andeq	r0, r0, r0, lsr #7
    3740:	000003b6 			; <UNDEFINED> instruction: 0x000003b6
    3744:	b6500001 	ldrblt	r0, [r0], -r1
    3748:	c8000003 	stmdagt	r0, {r0, r1}
    374c:	04000003 	streq	r0, [r0], #-3
    3750:	5001f300 	andpl	pc, r1, r0, lsl #6
    3754:	0000009f 	muleq	r0, pc, r0	; <UNPREDICTABLE>
    3758:	00000000 	andeq	r0, r0, r0
    375c:	0003b000 	andeq	fp, r3, r0
    3760:	0003b600 	andeq	fp, r3, r0, lsl #12
    3764:	70001300 	andvc	r1, r0, r0, lsl #6
    3768:	08253500 	stmdaeq	r5!, {r8, sl, ip, sp}
    376c:	13231aff 			; <UNDEFINED> instruction: 0x13231aff
    3770:	24032432 	strcs	r2, [r3], #-1074	; 0xfffffbce
    3774:	06000150 			; <UNDEFINED> instruction: 0x06000150
    3778:	03b69f22 			; <UNDEFINED> instruction: 0x03b69f22
    377c:	03c30000 	biceq	r0, r3, #0
    3780:	00140000 	andseq	r0, r4, r0
    3784:	355001f3 	ldrbcc	r0, [r0, #-499]	; 0xfffffe0d
    3788:	1aff0825 	bne	fffc5824 <__bss_end__+0xfffb07b8>
    378c:	24321323 	ldrtcs	r1, [r2], #-803	; 0xfffffcdd
    3790:	01502403 	cmpeq	r0, r3, lsl #8
    3794:	9f220600 	svcls	0x00220600
	...
    37a0:	000003b0 			; <UNDEFINED> instruction: 0x000003b0
    37a4:	000003b6 			; <UNDEFINED> instruction: 0x000003b6
    37a8:	00700005 	rsbseq	r0, r0, r5
    37ac:	b69f1a4f 	ldrlt	r1, [pc], pc, asr #20
    37b0:	c8000003 	stmdagt	r0, {r0, r1}
    37b4:	06000003 	streq	r0, [r0], -r3
    37b8:	5001f300 	andpl	pc, r1, r0, lsl #6
    37bc:	009f1a4f 	addseq	r1, pc, pc, asr #20
    37c0:	00000000 	andeq	r0, r0, r0
    37c4:	b4000000 	strlt	r0, [r0], #-0
    37c8:	c3000003 	movwgt	r0, #3
    37cc:	01000003 	tsteq	r0, r3
    37d0:	00005200 	andeq	r5, r0, r0, lsl #4
    37d4:	00000000 	andeq	r0, r0, r0
    37d8:	038c0000 	orreq	r0, ip, #0
    37dc:	03940000 	orrseq	r0, r4, #0
    37e0:	00010000 	andeq	r0, r1, r0
    37e4:	00039450 	andeq	r9, r3, r0, asr r4
    37e8:	00039900 	andeq	r9, r3, r0, lsl #18
    37ec:	51000100 	mrspl	r0, (UNDEF: 16)
    37f0:	00000399 	muleq	r0, r9, r3
    37f4:	000003a0 	andeq	r0, r0, r0, lsr #7
    37f8:	01f30004 	mvnseq	r0, r4
    37fc:	00009f50 	andeq	r9, r0, r0, asr pc
    3800:	00000000 	andeq	r0, r0, r0
    3804:	038c0000 	orreq	r0, ip, #0
    3808:	03960000 	orrseq	r0, r6, #0
    380c:	00090000 	andeq	r0, r9, r0
    3810:	01502403 	cmpeq	r0, r3, lsl #8
    3814:	40230600 	eormi	r0, r3, r0, lsl #12
    3818:	0003969f 	muleq	r3, pc, r6	; <UNPREDICTABLE>
    381c:	00039900 	andeq	r9, r3, r0, lsl #18
    3820:	50000100 	andpl	r0, r0, r0, lsl #2
	...
    382c:	00000364 	andeq	r0, r0, r4, ror #6
    3830:	00000376 	andeq	r0, r0, r6, ror r3
    3834:	76500001 	ldrbvc	r0, [r0], -r1
    3838:	8c000003 	stchi	0, cr0, [r0], {3}
    383c:	04000003 	streq	r0, [r0], #-3
    3840:	5001f300 	andpl	pc, r1, r0, lsl #6
    3844:	0000009f 	muleq	r0, pc, r0	; <UNPREDICTABLE>
    3848:	00000000 	andeq	r0, r0, r0
    384c:	00037000 	andeq	r7, r3, r0
    3850:	00037600 	andeq	r7, r3, r0, lsl #12
    3854:	70001300 	andvc	r1, r0, r0, lsl #6
    3858:	08253500 	stmdaeq	r5!, {r8, sl, ip, sp}
    385c:	10231aff 	strdne	r1, [r3], -pc	; <UNPREDICTABLE>
    3860:	24032432 	strcs	r2, [r3], #-1074	; 0xfffffbce
    3864:	06000150 			; <UNDEFINED> instruction: 0x06000150
    3868:	03769f22 	cmneq	r6, #34, 30	; 0x88
    386c:	03850000 	orreq	r0, r5, #0
    3870:	00140000 	andseq	r0, r4, r0
    3874:	355001f3 	ldrbcc	r0, [r0, #-499]	; 0xfffffe0d
    3878:	1aff0825 	bne	fffc5914 <__bss_end__+0xfffb08a8>
    387c:	24321023 	ldrtcs	r1, [r2], #-35	; 0xffffffdd
    3880:	01502403 	cmpeq	r0, r3, lsl #8
    3884:	9f220600 	svcls	0x00220600
	...
    3890:	00000370 	andeq	r0, r0, r0, ror r3
    3894:	00000376 	andeq	r0, r0, r6, ror r3
    3898:	00700005 	rsbseq	r0, r0, r5
    389c:	769f1a4f 	ldrvc	r1, [pc], pc, asr #20
    38a0:	8c000003 	stchi	0, cr0, [r0], {3}
    38a4:	06000003 	streq	r0, [r0], -r3
    38a8:	5001f300 	andpl	pc, r1, r0, lsl #6
    38ac:	009f1a4f 	addseq	r1, pc, pc, asr #20
    38b0:	00000000 	andeq	r0, r0, r0
    38b4:	70000000 	andvc	r0, r0, r0
    38b8:	76000003 	strvc	r0, [r0], -r3
    38bc:	0a000003 	beq	38d0 <bcm2835_i2c_read_register_rs+0x28>
    38c0:	00703100 	rsbseq	r3, r0, r0, lsl #2
    38c4:	ff081a4f 			; <UNDEFINED> instruction: 0xff081a4f
    38c8:	769f241a 			; <UNDEFINED> instruction: 0x769f241a
    38cc:	8c000003 	stchi	0, cr0, [r0], {3}
    38d0:	0b000003 	bleq	38e4 <bcm2835_i2c_read_register_rs+0x3c>
    38d4:	01f33100 	mvnseq	r3, r0, lsl #2
    38d8:	081a4f50 	ldmdaeq	sl, {r4, r6, r8, r9, sl, fp, lr}
    38dc:	9f241aff 	svcls	0x00241aff
	...
    38e8:	0000034c 	andeq	r0, r0, ip, asr #6
    38ec:	00000356 	andeq	r0, r0, r6, asr r3
    38f0:	56500001 	ldrbpl	r0, [r0], -r1
    38f4:	60000003 	andvs	r0, r0, r3
    38f8:	01000003 	tsteq	r0, r3
    38fc:	03605400 	cmneq	r0, #0, 8
    3900:	03640000 	cmneq	r4, #0
    3904:	00040000 	andeq	r0, r4, r0
    3908:	9f5001f3 	svcls	0x005001f3
	...
    3914:	0000034c 	andeq	r0, r0, ip, asr #6
    3918:	00000358 	andeq	r0, r0, r8, asr r3
    391c:	24030009 	strcs	r0, [r3], #-9
    3920:	06000150 			; <UNDEFINED> instruction: 0x06000150
    3924:	589f4023 	ldmpl	pc, {r0, r1, r5, lr}	; <UNPREDICTABLE>
    3928:	5b000003 	blpl	393c <bcm2835_i2c_read_register_rs+0x94>
    392c:	01000003 	tsteq	r0, r3
    3930:	00005000 	andeq	r5, r0, r0
    3934:	00000000 	andeq	r0, r0, r0
    3938:	035c0000 	cmpeq	ip, #0
    393c:	035e0000 	cmpeq	lr, #0
    3940:	00010000 	andeq	r0, r1, r0
    3944:	00000050 	andeq	r0, r0, r0, asr r0
    3948:	00000000 	andeq	r0, r0, r0
    394c:	00031c00 	andeq	r1, r3, r0, lsl #24
    3950:	00032a00 	andeq	r2, r3, r0, lsl #20
    3954:	50000100 	andpl	r0, r0, r0, lsl #2
    3958:	0000032a 	andeq	r0, r0, sl, lsr #6
    395c:	0000034c 	andeq	r0, r0, ip, asr #6
    3960:	01f30004 	mvnseq	r0, r4
    3964:	00009f50 	andeq	r9, r0, r0, asr pc
    3968:	00000000 	andeq	r0, r0, r0
    396c:	03280000 			; <UNDEFINED> instruction: 0x03280000
    3970:	032a0000 			; <UNDEFINED> instruction: 0x032a0000
    3974:	00130000 	andseq	r0, r3, r0
    3978:	25350070 	ldrcs	r0, [r5, #-112]!	; 0xffffff90
    397c:	231aff08 	tstcs	sl, #8, 30	; <UNPREDICTABLE>
    3980:	03243210 			; <UNDEFINED> instruction: 0x03243210
    3984:	00015024 	andeq	r5, r1, r4, lsr #32
    3988:	2a9f2206 	bcs	fe7cc1a8 <__bss_end__+0xfe7b713c>
    398c:	35000003 	strcc	r0, [r0, #-3]
    3990:	14000003 	strne	r0, [r0], #-3
    3994:	5001f300 	andpl	pc, r1, r0, lsl #6
    3998:	ff082535 			; <UNDEFINED> instruction: 0xff082535
    399c:	3210231a 	andscc	r2, r0, #1744830464	; 0x68000000
    39a0:	50240324 	eorpl	r0, r4, r4, lsr #6
    39a4:	22060001 	andcs	r0, r6, #1
    39a8:	0000009f 	muleq	r0, pc, r0	; <UNPREDICTABLE>
    39ac:	00000000 	andeq	r0, r0, r0
    39b0:	00032800 	andeq	r2, r3, r0, lsl #16
    39b4:	00032a00 	andeq	r2, r3, r0, lsl #20
    39b8:	70000500 	andvc	r0, r0, r0, lsl #10
    39bc:	9f1a4f00 	svcls	0x001a4f00
    39c0:	0000032a 	andeq	r0, r0, sl, lsr #6
    39c4:	0000034c 	andeq	r0, r0, ip, asr #6
    39c8:	01f30006 	mvnseq	r0, r6
    39cc:	9f1a4f50 	svcls	0x001a4f50
	...
    39d8:	00000336 	andeq	r0, r0, r6, lsr r3
    39dc:	00000342 	andeq	r0, r0, r2, asr #6
    39e0:	00500001 	subseq	r0, r0, r1
    39e4:	00000000 	andeq	r0, r0, r0
    39e8:	ec000000 	stc	0, cr0, [r0], {-0}
    39ec:	fa000002 	blx	39fc <bcm2835_i2c_write_read_rs+0x24>
    39f0:	01000002 	tsteq	r0, r2
    39f4:	02fa5000 	rscseq	r5, sl, #0
    39f8:	031c0000 	tsteq	ip, #0
    39fc:	00040000 	andeq	r0, r4, r0
    3a00:	9f5001f3 	svcls	0x005001f3
	...
    3a0c:	000002f8 	strdeq	r0, [r0], -r8
    3a10:	000002fa 	strdeq	r0, [r0], -sl
    3a14:	00700013 	rsbseq	r0, r0, r3, lsl r0
    3a18:	ff082535 			; <UNDEFINED> instruction: 0xff082535
    3a1c:	320d231a 	andcc	r2, sp, #1744830464	; 0x68000000
    3a20:	50240324 	eorpl	r0, r4, r4, lsr #6
    3a24:	22060001 	andcs	r0, r6, #1
    3a28:	0002fa9f 	muleq	r2, pc, sl	; <UNPREDICTABLE>
    3a2c:	00030500 	andeq	r0, r3, r0, lsl #10
    3a30:	f3001400 	vshl.u8	d1, d0, d0
    3a34:	25355001 	ldrcs	r5, [r5, #-1]!
    3a38:	231aff08 	tstcs	sl, #8, 30	; <UNPREDICTABLE>
    3a3c:	0324320d 			; <UNDEFINED> instruction: 0x0324320d
    3a40:	00015024 	andeq	r5, r1, r4, lsr #32
    3a44:	009f2206 	addseq	r2, pc, r6, lsl #4
    3a48:	00000000 	andeq	r0, r0, r0
    3a4c:	f8000000 			; <UNDEFINED> instruction: 0xf8000000
    3a50:	fa000002 	blx	3a60 <bcm2835_i2c_write_read_rs+0x88>
    3a54:	05000002 	streq	r0, [r0, #-2]
    3a58:	4f007000 	svcmi	0x00007000
    3a5c:	02fa9f1a 	rscseq	r9, sl, #26, 30	; 0x68
    3a60:	031c0000 	tsteq	ip, #0
    3a64:	00060000 	andeq	r0, r6, r0
    3a68:	4f5001f3 	svcmi	0x005001f3
    3a6c:	00009f1a 	andeq	r9, r0, sl, lsl pc
    3a70:	00000000 	andeq	r0, r0, r0
    3a74:	03060000 	movweq	r0, #24576	; 0x6000
    3a78:	03120000 	tsteq	r2, #0
    3a7c:	00010000 	andeq	r0, r1, r0
    3a80:	00000050 	andeq	r0, r0, r0, asr r0
    3a84:	00000000 	andeq	r0, r0, r0
    3a88:	00029c00 	andeq	r9, r2, r0, lsl #24
    3a8c:	0002ae00 	andeq	sl, r2, r0, lsl #28
    3a90:	50000100 	andpl	r0, r0, r0, lsl #2
    3a94:	000002ae 	andeq	r0, r0, lr, lsr #5
    3a98:	000002c4 	andeq	r0, r0, r4, asr #5
    3a9c:	01f30004 	mvnseq	r0, r4
    3aa0:	00009f50 	andeq	r9, r0, r0, asr pc
    3aa4:	00000000 	andeq	r0, r0, r0
    3aa8:	02a80000 	adceq	r0, r8, #0
    3aac:	02ae0000 	adceq	r0, lr, #0
    3ab0:	00130000 	andseq	r0, r3, r0
    3ab4:	25350070 	ldrcs	r0, [r5, #-112]!	; 0xffffff90
    3ab8:	231aff08 	tstcs	sl, #8, 30	; <UNPREDICTABLE>
    3abc:	0324320a 			; <UNDEFINED> instruction: 0x0324320a
    3ac0:	00015024 	andeq	r5, r1, r4, lsr #32
    3ac4:	ae9f2206 	cdpge	2, 9, cr2, cr15, cr6, {0}
    3ac8:	bd000002 	stclt	0, cr0, [r0, #-8]
    3acc:	14000002 	strne	r0, [r0], #-2
    3ad0:	5001f300 	andpl	pc, r1, r0, lsl #6
    3ad4:	ff082535 			; <UNDEFINED> instruction: 0xff082535
    3ad8:	320a231a 	andcc	r2, sl, #1744830464	; 0x68000000
    3adc:	50240324 	eorpl	r0, r4, r4, lsr #6
    3ae0:	22060001 	andcs	r0, r6, #1
    3ae4:	0000009f 	muleq	r0, pc, r0	; <UNPREDICTABLE>
    3ae8:	00000000 	andeq	r0, r0, r0
    3aec:	0002a800 	andeq	sl, r2, r0, lsl #16
    3af0:	0002ae00 	andeq	sl, r2, r0, lsl #28
    3af4:	70000500 	andvc	r0, r0, r0, lsl #10
    3af8:	9f1a4f00 	svcls	0x001a4f00
    3afc:	000002ae 	andeq	r0, r0, lr, lsr #5
    3b00:	000002c4 	andeq	r0, r0, r4, asr #5
    3b04:	01f30006 	mvnseq	r0, r6
    3b08:	9f1a4f50 	svcls	0x001a4f50
	...
    3b14:	00000274 	andeq	r0, r0, r4, ror r2
    3b18:	00000286 	andeq	r0, r0, r6, lsl #5
    3b1c:	86500001 	ldrbhi	r0, [r0], -r1
    3b20:	9c000002 	stcls	0, cr0, [r0], {2}
    3b24:	04000002 	streq	r0, [r0], #-2
    3b28:	5001f300 	andpl	pc, r1, r0, lsl #6
    3b2c:	0000009f 	muleq	r0, pc, r0	; <UNPREDICTABLE>
    3b30:	00000000 	andeq	r0, r0, r0
    3b34:	00028000 	andeq	r8, r2, r0
    3b38:	00028600 	andeq	r8, r2, r0, lsl #12
    3b3c:	70001300 	andvc	r1, r0, r0, lsl #6
    3b40:	08253500 	stmdaeq	r5!, {r8, sl, ip, sp}
    3b44:	07231aff 			; <UNDEFINED> instruction: 0x07231aff
    3b48:	24032432 	strcs	r2, [r3], #-1074	; 0xfffffbce
    3b4c:	06000150 			; <UNDEFINED> instruction: 0x06000150
    3b50:	02869f22 	addeq	r9, r6, #34, 30	; 0x88
    3b54:	02950000 	addseq	r0, r5, #0
    3b58:	00140000 	andseq	r0, r4, r0
    3b5c:	355001f3 	ldrbcc	r0, [r0, #-499]	; 0xfffffe0d
    3b60:	1aff0825 	bne	fffc5bfc <__bss_end__+0xfffb0b90>
    3b64:	24320723 	ldrtcs	r0, [r2], #-1827	; 0xfffff8dd
    3b68:	01502403 	cmpeq	r0, r3, lsl #8
    3b6c:	9f220600 	svcls	0x00220600
	...
    3b78:	00000280 	andeq	r0, r0, r0, lsl #5
    3b7c:	00000286 	andeq	r0, r0, r6, lsl #5
    3b80:	00700005 	rsbseq	r0, r0, r5
    3b84:	869f1a4f 	ldrhi	r1, [pc], pc, asr #20
    3b88:	9c000002 	stcls	0, cr0, [r0], {2}
    3b8c:	06000002 	streq	r0, [r0], -r2
    3b90:	5001f300 	andpl	pc, r1, r0, lsl #6
    3b94:	009f1a4f 	addseq	r1, pc, pc, asr #20
    3b98:	00000000 	andeq	r0, r0, r0
    3b9c:	14000000 	strne	r0, [r0], #-0
    3ba0:	1f000002 	svcne	0x00000002
    3ba4:	01000002 	tsteq	r0, r2
    3ba8:	021f5000 	andseq	r5, pc, #0
    3bac:	022e0000 	eoreq	r0, lr, #0
    3bb0:	00010000 	andeq	r0, r1, r0
    3bb4:	00022e55 	andeq	r2, r2, r5, asr lr
    3bb8:	00023100 	andeq	r3, r2, r0, lsl #2
    3bbc:	50000100 	andpl	r0, r0, r0, lsl #2
    3bc0:	00000231 	andeq	r0, r0, r1, lsr r2
    3bc4:	00000232 	andeq	r0, r0, r2, lsr r2
    3bc8:	01f30004 	mvnseq	r0, r4
    3bcc:	00009f50 	andeq	r9, r0, r0, asr pc
    3bd0:	00000000 	andeq	r0, r0, r0
    3bd4:	02140000 	andseq	r0, r4, #0
    3bd8:	021f0000 	andseq	r0, pc, #0
    3bdc:	00010000 	andeq	r0, r1, r0
    3be0:	00021f51 	andeq	r1, r2, r1, asr pc
    3be4:	00022200 	andeq	r2, r2, r0, lsl #4
    3be8:	54000100 	strpl	r0, [r0], #-256	; 0xffffff00
    3bec:	00000222 	andeq	r0, r0, r2, lsr #4
    3bf0:	00000232 	andeq	r0, r0, r2, lsr r2
    3bf4:	01f30004 	mvnseq	r0, r4
    3bf8:	00009f51 	andeq	r9, r0, r1, asr pc
    3bfc:	00000000 	andeq	r0, r0, r0
    3c00:	02140000 	andseq	r0, r4, #0
    3c04:	021f0000 	andseq	r0, pc, #0
    3c08:	00010000 	andeq	r0, r1, r0
    3c0c:	00021f52 	andeq	r1, r2, r2, asr pc
    3c10:	00022e00 	andeq	r2, r2, r0, lsl #28
    3c14:	56000100 	strpl	r0, [r0], -r0, lsl #2
    3c18:	0000022e 	andeq	r0, r0, lr, lsr #4
    3c1c:	00000232 	andeq	r0, r0, r2, lsr r2
    3c20:	01f30004 	mvnseq	r0, r4
    3c24:	00009f52 	andeq	r9, r0, r2, asr pc
    3c28:	00000000 	andeq	r0, r0, r0
    3c2c:	02240000 	eoreq	r0, r4, #0
    3c30:	02260000 	eoreq	r0, r6, #0
    3c34:	00010000 	andeq	r0, r1, r0
    3c38:	00022650 	andeq	r2, r2, r0, asr r6
    3c3c:	00022800 	andeq	r2, r2, r0, lsl #16
    3c40:	70000600 	andvc	r0, r0, r0, lsl #12
    3c44:	27007400 	strcs	r7, [r0, -r0, lsl #8]
    3c48:	0002289f 	muleq	r2, pc, r8	; <UNPREDICTABLE>
    3c4c:	00022a00 	andeq	r2, r2, r0, lsl #20
    3c50:	71000600 	tstvc	r0, r0, lsl #12
    3c54:	27007400 	strcs	r7, [r0, -r0, lsl #8]
    3c58:	00022a9f 	muleq	r2, pc, sl	; <UNPREDICTABLE>
    3c5c:	00023100 	andeq	r3, r2, r0, lsl #2
    3c60:	51000100 	mrspl	r0, (UNDEF: 16)
	...
    3c6c:	000000c4 	andeq	r0, r0, r4, asr #1
    3c70:	000000c6 	andeq	r0, r0, r6, asr #1
    3c74:	c6500001 	ldrbgt	r0, [r0], -r1
    3c78:	58000000 	stmdapl	r0, {}	; <UNPREDICTABLE>
    3c7c:	04000001 	streq	r0, [r0], #-1
    3c80:	5001f300 	andpl	pc, r1, r0, lsl #6
    3c84:	0000009f 	muleq	r0, pc, r0	; <UNPREDICTABLE>
	...
    3c90:	00000a00 	andeq	r0, r0, r0, lsl #20
    3c94:	50000100 	andpl	r0, r0, r0, lsl #2
    3c98:	0000000a 	andeq	r0, r0, sl
    3c9c:	0000000d 	andeq	r0, r0, sp
    3ca0:	0d520001 	ldcleq	0, cr0, [r2, #-4]
    3ca4:	18000000 	stmdane	r0, {}	; <UNPREDICTABLE>
    3ca8:	04000000 	streq	r0, [r0], #-0
    3cac:	5001f300 	andpl	pc, r1, r0, lsl #6
    3cb0:	0000009f 	muleq	r0, pc, r0	; <UNPREDICTABLE>
	...
    3cbc:	00000e00 	andeq	r0, r0, r0, lsl #28
    3cc0:	03000600 	movweq	r0, #1536	; 0x600
    3cc4:	00004240 	andeq	r4, r0, r0, asr #4
    3cc8:	0000009f 	muleq	r0, pc, r0	; <UNPREDICTABLE>
    3ccc:	00000000 	andeq	r0, r0, r0
    3cd0:	00001800 	andeq	r1, r0, r0, lsl #16
    3cd4:	00002000 	andeq	r2, r0, r0
    3cd8:	50000100 	andpl	r0, r0, r0, lsl #2
    3cdc:	00000020 	andeq	r0, r0, r0, lsr #32
    3ce0:	00000025 	andeq	r0, r0, r5, lsr #32
    3ce4:	25520001 	ldrbcs	r0, [r2, #-1]
    3ce8:	2c000000 	stccs	0, cr0, [r0], {-0}
    3cec:	04000000 	streq	r0, [r0], #-0
    3cf0:	5001f300 	andpl	pc, r1, r0, lsl #6
    3cf4:	0000009f 	muleq	r0, pc, r0	; <UNPREDICTABLE>
    3cf8:	00000000 	andeq	r0, r0, r0
    3cfc:	00001800 	andeq	r1, r0, r0, lsl #16
    3d00:	00001c00 	andeq	r1, r0, r0, lsl #24
    3d04:	51000100 	mrspl	r0, (UNDEF: 16)
    3d08:	0000001c 	andeq	r0, r0, ip, lsl r0
    3d0c:	00000025 	andeq	r0, r0, r5, lsr #32
    3d10:	25530001 	ldrbcs	r0, [r3, #-1]
    3d14:	2c000000 	stccs	0, cr0, [r0], {-0}
    3d18:	04000000 	streq	r0, [r0], #-0
    3d1c:	5101f300 	mrspl	pc, SP_irq	; <UNPREDICTABLE>
    3d20:	0000009f 	muleq	r0, pc, r0	; <UNPREDICTABLE>
    3d24:	00000000 	andeq	r0, r0, r0
    3d28:	00002c00 	andeq	r2, r0, r0, lsl #24
    3d2c:	00003d00 	andeq	r3, r0, r0, lsl #26
    3d30:	03000500 	movweq	r0, #1280	; 0x500
    3d34:	00015020 	andeq	r5, r1, r0, lsr #32
	...
    3d40:	0000002c 	andeq	r0, r0, ip, lsr #32
    3d44:	0000003e 	andeq	r0, r0, lr, lsr r0
    3d48:	1c030006 	stcne	0, cr0, [r3], {6}
    3d4c:	9f000150 	svcls	0x00000150
	...
    3d58:	00000068 	andeq	r0, r0, r8, rrx
    3d5c:	00000076 	andeq	r0, r0, r6, ror r0
    3d60:	76500001 	ldrbvc	r0, [r0], -r1
    3d64:	7b000000 	blvc	3d6c <bcm2835_pwm_set_data+0x44>
    3d68:	01000000 	mrseq	r0, (UNDEF: 0)
    3d6c:	007b5100 	rsbseq	r5, fp, r0, lsl #2
    3d70:	00c40000 	sbceq	r0, r4, r0
    3d74:	00040000 	andeq	r0, r4, r0
    3d78:	9f5001f3 	svcls	0x005001f3
	...
    3d84:	00000068 	andeq	r0, r0, r8, rrx
    3d88:	00000072 	andeq	r0, r0, r2, ror r0
    3d8c:	72510001 	subsvc	r0, r1, #1
    3d90:	7b000000 	blvc	3d98 <malloc_aligned+0x14>
    3d94:	02000000 	andeq	r0, r0, #0
    3d98:	7b007d00 	blvc	231a0 <__bss_end__+0xe134>
    3d9c:	c4000000 	strgt	r0, [r0], #-0
    3da0:	04000000 	streq	r0, [r0], #-0
    3da4:	5101f300 	mrspl	pc, SP_irq	; <UNPREDICTABLE>
    3da8:	0000009f 	muleq	r0, pc, r0	; <UNPREDICTABLE>
    3dac:	00000000 	andeq	r0, r0, r0
    3db0:	00006800 	andeq	r6, r0, r0, lsl #16
    3db4:	00007800 	andeq	r7, r0, r0, lsl #16
    3db8:	52000100 	andpl	r0, r0, #0, 2
    3dbc:	00000078 	andeq	r0, r0, r8, ror r0
    3dc0:	0000007b 	andeq	r0, r0, fp, ror r0
    3dc4:	6c910002 	ldcvs	0, cr0, [r1], {2}
    3dc8:	0000007b 	andeq	r0, r0, fp, ror r0
    3dcc:	000000c4 	andeq	r0, r0, r4, asr #1
    3dd0:	01f30004 	mvnseq	r0, r4
    3dd4:	00009f52 	andeq	r9, r0, r2, asr pc
    3dd8:	00000000 	andeq	r0, r0, r0
    3ddc:	00820000 	addeq	r0, r2, r0
    3de0:	00840000 	addeq	r0, r4, r0
    3de4:	00010000 	andeq	r0, r1, r0
    3de8:	00008450 	andeq	r8, r0, r0, asr r4
    3dec:	0000b400 	andeq	fp, r0, r0, lsl #8
    3df0:	54000100 	strpl	r0, [r0], #-256	; 0xffffff00
    3df4:	000000b4 	strheq	r0, [r0], -r4
    3df8:	000000c4 	andeq	r0, r0, r4, asr #1
    3dfc:	00500001 	subseq	r0, r0, r1
    3e00:	00000000 	andeq	r0, r0, r0
    3e04:	9c000000 	stcls	0, cr0, [r0], {-0}
    3e08:	b4000000 	strlt	r0, [r0], #-0
    3e0c:	01000000 	mrseq	r0, (UNDEF: 0)
    3e10:	00005500 	andeq	r5, r0, r0, lsl #10
    3e14:	00000000 	andeq	r0, r0, r0
    3e18:	016c0000 	cmneq	ip, r0
    3e1c:	017c0000 	cmneq	ip, r0
    3e20:	00010000 	andeq	r0, r1, r0
    3e24:	00017c50 	andeq	r7, r1, r0, asr ip
    3e28:	00018200 	andeq	r8, r1, r0, lsl #4
    3e2c:	f3000400 	vshl.u8	d0, d0, d0
    3e30:	829f5001 	addshi	r5, pc, #1
    3e34:	88000001 	stmdahi	r0, {r0}
    3e38:	01000001 	tsteq	r0, r1
    3e3c:	01885000 	orreq	r5, r8, r0
    3e40:	018d0000 	orreq	r0, sp, r0
    3e44:	00010000 	andeq	r0, r1, r0
    3e48:	00018d52 	andeq	r8, r1, r2, asr sp
    3e4c:	00019c00 	andeq	r9, r1, r0, lsl #24
    3e50:	f3000400 	vshl.u8	d0, d0, d0
    3e54:	009f5001 	addseq	r5, pc, r1
    3e58:	00000000 	andeq	r0, r0, r0
    3e5c:	7c000000 	stcvc	0, cr0, [r0], {-0}
    3e60:	82000001 	andhi	r0, r0, #1
    3e64:	01000001 	tsteq	r0, r1
    3e68:	00005000 	andeq	r5, r0, r0
    3e6c:	00000000 	andeq	r0, r0, r0
    3e70:	01860000 	orreq	r0, r6, r0
    3e74:	018d0000 	orreq	r0, sp, r0
    3e78:	00010000 	andeq	r0, r1, r0
    3e7c:	00018d52 	andeq	r8, r1, r2, asr sp
    3e80:	00018e00 	andeq	r8, r1, r0, lsl #28
    3e84:	f3000400 	vshl.u8	d0, d0, d0
    3e88:	009f5001 	addseq	r5, pc, r1
    3e8c:	00000000 	andeq	r0, r0, r0
    3e90:	86000000 	strhi	r0, [r0], -r0
    3e94:	8e000001 	cdphi	0, 0, cr0, cr0, cr1, {0}
    3e98:	06000001 	streq	r0, [r0], -r1
    3e9c:	42b80300 	adcsmi	r0, r8, #0, 6
    3ea0:	009f0000 	addseq	r0, pc, r0
    3ea4:	00000000 	andeq	r0, r0, r0
    3ea8:	9c000000 	stcls	0, cr0, [r0], {-0}
    3eac:	a6000001 	strge	r0, [r0], -r1
    3eb0:	01000001 	tsteq	r0, r1
    3eb4:	01a65000 			; <UNDEFINED> instruction: 0x01a65000
    3eb8:	01a80000 			; <UNDEFINED> instruction: 0x01a80000
    3ebc:	00040000 	andeq	r0, r4, r0
    3ec0:	9f5001f3 	svcls	0x005001f3
    3ec4:	000001a8 	andeq	r0, r0, r8, lsr #3
    3ec8:	000001a9 	andeq	r0, r0, r9, lsr #3
    3ecc:	a9500001 	ldmdbge	r0, {r0}^
    3ed0:	b0000001 	andlt	r0, r0, r1
    3ed4:	04000001 	streq	r0, [r0], #-1
    3ed8:	5001f300 	andpl	pc, r1, r0, lsl #6
    3edc:	0000009f 	muleq	r0, pc, r0	; <UNPREDICTABLE>
    3ee0:	00000000 	andeq	r0, r0, r0
    3ee4:	0001b000 	andeq	fp, r1, r0
    3ee8:	0001d800 	andeq	sp, r1, r0, lsl #16
    3eec:	50000100 	andpl	r0, r0, r0, lsl #2
    3ef0:	000001d8 	ldrdeq	r0, [r0], -r8
    3ef4:	000001db 	ldrdeq	r0, [r0], -fp
    3ef8:	db520001 	blle	1483f04 <__bss_end__+0x146ee98>
    3efc:	e4000001 	str	r0, [r0], #-1
    3f00:	04000001 	streq	r0, [r0], #-1
    3f04:	5001f300 	andpl	pc, r1, r0, lsl #6
    3f08:	0000009f 	muleq	r0, pc, r0	; <UNPREDICTABLE>
    3f0c:	00000000 	andeq	r0, r0, r0
    3f10:	0001b000 	andeq	fp, r1, r0
    3f14:	0001ce00 	andeq	ip, r1, r0, lsl #28
    3f18:	51000100 	mrspl	r0, (UNDEF: 16)
    3f1c:	000001ce 	andeq	r0, r0, lr, asr #3
    3f20:	000001db 	ldrdeq	r0, [r0], -fp
    3f24:	db530001 	blle	14c3f30 <__bss_end__+0x14aeec4>
    3f28:	e4000001 	str	r0, [r0], #-1
    3f2c:	04000001 	streq	r0, [r0], #-1
    3f30:	5101f300 	mrspl	pc, SP_irq	; <UNPREDICTABLE>
    3f34:	0000009f 	muleq	r0, pc, r0	; <UNPREDICTABLE>
    3f38:	00000000 	andeq	r0, r0, r0
    3f3c:	0001ca00 	andeq	ip, r1, r0, lsl #20
    3f40:	0001ce00 	andeq	ip, r1, r0, lsl #28
    3f44:	51000100 	mrspl	r0, (UNDEF: 16)
    3f48:	000001ce 	andeq	r0, r0, lr, asr #3
    3f4c:	000001db 	ldrdeq	r0, [r0], -fp
    3f50:	db530001 	blle	14c3f5c <__bss_end__+0x14aeef0>
    3f54:	e4000001 	str	r0, [r0], #-1
    3f58:	04000001 	streq	r0, [r0], #-1
    3f5c:	5101f300 	mrspl	pc, SP_irq	; <UNPREDICTABLE>
    3f60:	0000009f 	muleq	r0, pc, r0	; <UNPREDICTABLE>
    3f64:	00000000 	andeq	r0, r0, r0
    3f68:	0001ca00 	andeq	ip, r1, r0, lsl #20
    3f6c:	0001d800 	andeq	sp, r1, r0, lsl #16
    3f70:	50000100 	andpl	r0, r0, r0, lsl #2
    3f74:	000001d8 	ldrdeq	r0, [r0], -r8
    3f78:	000001db 	ldrdeq	r0, [r0], -fp
    3f7c:	db520001 	blle	1483f88 <__bss_end__+0x146ef1c>
    3f80:	e4000001 	str	r0, [r0], #-1
    3f84:	04000001 	streq	r0, [r0], #-1
    3f88:	5001f300 	andpl	pc, r1, r0, lsl #6
    3f8c:	0000009f 	muleq	r0, pc, r0	; <UNPREDICTABLE>
    3f90:	00000000 	andeq	r0, r0, r0
    3f94:	0001e400 	andeq	lr, r1, r0, lsl #8
    3f98:	0001ec00 	andeq	lr, r1, r0, lsl #24
    3f9c:	50000100 	andpl	r0, r0, r0, lsl #2
    3fa0:	000001ec 	andeq	r0, r0, ip, ror #3
    3fa4:	000001f8 	strdeq	r0, [r0], -r8
    3fa8:	01f30004 	mvnseq	r0, r4
    3fac:	00009f50 	andeq	r9, r0, r0, asr pc
    3fb0:	00000000 	andeq	r0, r0, r0
    3fb4:	01e40000 	mvneq	r0, r0
    3fb8:	01ee0000 	mvneq	r0, r0
    3fbc:	000a0000 	andeq	r0, sl, r0
    3fc0:	01502403 	cmpeq	r0, r3, lsl #8
    3fc4:	94230600 	strtls	r0, [r3], #-1536	; 0xfffffa00
    3fc8:	01ee9f01 	mvneq	r9, r1, lsl #30
    3fcc:	01f10000 	mvnseq	r0, r0
    3fd0:	00010000 	andeq	r0, r1, r0
    3fd4:	00000050 	andeq	r0, r0, r0, asr r0
    3fd8:	00000000 	andeq	r0, r0, r0
    3fdc:	0001f800 	andeq	pc, r1, r0, lsl #16
    3fe0:	00020d00 	andeq	r0, r2, r0, lsl #26
    3fe4:	50000100 	andpl	r0, r0, r0, lsl #2
    3fe8:	0000020d 	andeq	r0, r0, sp, lsl #4
    3fec:	00000214 	andeq	r0, r0, r4, lsl r2
    3ff0:	01f30004 	mvnseq	r0, r4
    3ff4:	00009f50 	andeq	r9, r0, r0, asr pc
    3ff8:	00000000 	andeq	r0, r0, r0
    3ffc:	01f80000 	mvnseq	r0, r0
    4000:	020d0000 	andeq	r0, sp, #0
    4004:	00010000 	andeq	r0, r1, r0
    4008:	00020d51 	andeq	r0, r2, r1, asr sp
    400c:	00021400 	andeq	r1, r2, r0, lsl #8
    4010:	f3000400 	vshl.u8	d0, d0, d0
    4014:	009f5101 	addseq	r5, pc, r1, lsl #2
    4018:	00000000 	andeq	r0, r0, r0
    401c:	34000000 	strcc	r0, [r0], #-0
    4020:	5c000002 	stcpl	0, cr0, [r0], {2}
    4024:	01000002 	tsteq	r0, r2
    4028:	025c5000 	subseq	r5, ip, #0
    402c:	02740000 	rsbseq	r0, r4, #0
    4030:	00040000 	andeq	r0, r4, r0
    4034:	9f5001f3 	svcls	0x005001f3
	...
    4040:	00000234 	andeq	r0, r0, r4, lsr r2
    4044:	00000268 	andeq	r0, r0, r8, ror #4
    4048:	68510001 	ldmdavs	r1, {r0}^
    404c:	74000002 	strvc	r0, [r0], #-2
    4050:	04000002 	streq	r0, [r0], #-2
    4054:	5101f300 	mrspl	pc, SP_irq	; <UNPREDICTABLE>
    4058:	0000009f 	muleq	r0, pc, r0	; <UNPREDICTABLE>
    405c:	00000000 	andeq	r0, r0, r0
    4060:	00024000 	andeq	r4, r2, r0
    4064:	00025c00 	andeq	r5, r2, r0, lsl #24
    4068:	70001700 	andvc	r1, r0, r0, lsl #14
    406c:	3a33f700 	bcc	d01c74 <__bss_end__+0xcecc08>
    4070:	f71b33f7 			; <UNDEFINED> instruction: 0xf71b33f7
    4074:	1aff0800 	bne	fffc607c <__bss_end__+0xfffb1010>
    4078:	24032432 	strcs	r2, [r3], #-1074	; 0xfffffbce
    407c:	06000150 			; <UNDEFINED> instruction: 0x06000150
    4080:	025c9f22 	subseq	r9, ip, #34, 30	; 0x88
    4084:	026d0000 	rsbeq	r0, sp, #0
    4088:	00180000 	andseq	r0, r8, r0
    408c:	f75001f3 			; <UNDEFINED> instruction: 0xf75001f3
    4090:	33f73a33 	mvnscc	r3, #208896	; 0x33000
    4094:	0800f71b 	stmdaeq	r0, {r0, r1, r3, r4, r8, r9, sl, ip, sp, lr, pc}
    4098:	24321aff 	ldrtcs	r1, [r2], #-2815	; 0xfffff501
    409c:	01502403 	cmpeq	r0, r3, lsl #8
    40a0:	9f220600 	svcls	0x00220600
	...
    40ac:	00000240 	andeq	r0, r0, r0, asr #4
    40b0:	0000025c 	andeq	r0, r0, ip, asr r2
    40b4:	00700007 	rsbseq	r0, r0, r7
    40b8:	1e331d3a 	mrcne	13, 1, r1, cr3, cr10, {1}
    40bc:	00025c9f 	muleq	r2, pc, ip	; <UNPREDICTABLE>
    40c0:	00027400 	andeq	r7, r2, r0, lsl #8
    40c4:	f3000800 	vsub.i8	d0, d0, d0
    40c8:	1d3a5001 	ldcne	0, cr5, [sl, #-4]!
    40cc:	009f1e33 	addseq	r1, pc, r3, lsr lr	; <UNPREDICTABLE>
    40d0:	00000000 	andeq	r0, r0, r0
    40d4:	66000000 	strvs	r0, [r0], -r0
    40d8:	6a000002 	bvs	40e8 <_IO_stdin_used+0x20>
    40dc:	05000002 	streq	r0, [r0, #-2]
    40e0:	00733700 	rsbseq	r3, r3, r0, lsl #14
    40e4:	026a9f24 	rsbeq	r9, sl, #36, 30	; 0x90
    40e8:	026d0000 	rsbeq	r0, sp, #0
    40ec:	00010000 	andeq	r0, r1, r0
    40f0:	00000052 	andeq	r0, r0, r2, asr r0
    40f4:	00000000 	andeq	r0, r0, r0
    40f8:	00026600 	andeq	r6, r2, r0, lsl #12
    40fc:	00026800 	andeq	r6, r2, r0, lsl #16
    4100:	71000900 	tstvc	r0, r0, lsl #18
    4104:	1aff0800 	bne	fffc610c <__bss_end__+0xfffb10a0>
    4108:	9f240073 	svcls	0x00240073
    410c:	00000268 	andeq	r0, r0, r8, ror #4
    4110:	0000026d 	andeq	r0, r0, sp, ror #4
    4114:	01f3000a 	mvnseq	r0, sl
    4118:	1aff0851 	bne	fffc6264 <__bss_end__+0xfffb11f8>
    411c:	9f240073 	svcls	0x00240073
	...
    4128:	000002c4 	andeq	r0, r0, r4, asr #5
    412c:	000002cc 	andeq	r0, r0, ip, asr #5
    4130:	cc500001 	mrrcgt	0, 0, r0, r0, cr1	; <UNPREDICTABLE>
    4134:	d1000002 	tstle	r0, r2
    4138:	01000002 	tsteq	r0, r2
    413c:	02d15100 	sbcseq	r5, r1, #0, 2
    4140:	02d80000 	sbcseq	r0, r8, #0
    4144:	00040000 	andeq	r0, r4, r0
    4148:	9f5001f3 	svcls	0x005001f3
	...
    4154:	000002c4 	andeq	r0, r0, r4, asr #5
    4158:	000002ce 	andeq	r0, r0, lr, asr #5
    415c:	24030009 	strcs	r0, [r3], #-9
    4160:	06000150 			; <UNDEFINED> instruction: 0x06000150
    4164:	ce9f1c23 	cdpgt	12, 9, cr1, cr15, cr3, {1}
    4168:	d1000002 	tstle	r0, r2
    416c:	01000002 	tsteq	r0, r2
    4170:	00005000 	andeq	r5, r0, r0
    4174:	00000000 	andeq	r0, r0, r0
    4178:	02d80000 	sbcseq	r0, r8, #0
    417c:	02e00000 	rsceq	r0, r0, #0
    4180:	00010000 	andeq	r0, r1, r0
    4184:	0002e050 	andeq	lr, r2, r0, asr r0
    4188:	0002e500 	andeq	lr, r2, r0, lsl #10
    418c:	51000100 	mrspl	r0, (UNDEF: 16)
    4190:	000002e5 	andeq	r0, r0, r5, ror #5
    4194:	000002ec 	andeq	r0, r0, ip, ror #5
    4198:	01f30004 	mvnseq	r0, r4
    419c:	00009f50 	andeq	r9, r0, r0, asr pc
    41a0:	00000000 	andeq	r0, r0, r0
    41a4:	02d80000 	sbcseq	r0, r8, #0
    41a8:	02e20000 	rsceq	r0, r2, #0
    41ac:	00090000 	andeq	r0, r9, r0
    41b0:	01502403 	cmpeq	r0, r3, lsl #8
    41b4:	28230600 	stmdacs	r3!, {r9, sl}
    41b8:	0002e29f 	muleq	r2, pc, r2	; <UNPREDICTABLE>
    41bc:	0002e500 	andeq	lr, r2, r0, lsl #10
    41c0:	50000100 	andpl	r0, r0, r0, lsl #2
	...
    41cc:	00000580 	andeq	r0, r0, r0, lsl #11
    41d0:	0000058d 	andeq	r0, r0, sp, lsl #11
    41d4:	8d500001 	ldclhi	0, cr0, [r0, #-4]
    41d8:	94000005 	strls	r0, [r0], #-5
    41dc:	04000005 	streq	r0, [r0], #-5
    41e0:	5001f300 	andpl	pc, r1, r0, lsl #6
    41e4:	0000009f 	muleq	r0, pc, r0	; <UNPREDICTABLE>
    41e8:	00000000 	andeq	r0, r0, r0
    41ec:	0005d000 	andeq	sp, r5, r0
    41f0:	00060200 	andeq	r0, r6, r0, lsl #4
    41f4:	50000100 	andpl	r0, r0, r0, lsl #2
    41f8:	00000602 	andeq	r0, r0, r2, lsl #12
    41fc:	00000628 	andeq	r0, r0, r8, lsr #12
    4200:	01f30004 	mvnseq	r0, r4
    4204:	00009f50 	andeq	r9, r0, r0, asr pc
    4208:	00000000 	andeq	r0, r0, r0
    420c:	07b40000 	ldreq	r0, [r4, r0]!
    4210:	07bc0000 	ldreq	r0, [ip, r0]!
    4214:	00010000 	andeq	r0, r1, r0
    4218:	0007bc50 	andeq	fp, r7, r0, asr ip
    421c:	0007c800 	andeq	ip, r7, r0, lsl #16
    4220:	f3000400 	vshl.u8	d0, d0, d0
    4224:	009f5001 	addseq	r5, pc, r1
    4228:	00000000 	andeq	r0, r0, r0
    422c:	b4000000 	strlt	r0, [r0], #-0
    4230:	be000007 	cdplt	0, 0, cr0, cr0, cr7, {0}
    4234:	09000007 	stmdbeq	r0, {r0, r1, r2}
    4238:	50340300 	eorspl	r0, r4, r0, lsl #6
    423c:	23060001 	movwcs	r0, #24577	; 0x6001
    4240:	07be9f08 	ldreq	r9, [lr, r8, lsl #30]!
    4244:	07c10000 	strbeq	r0, [r1, r0]
    4248:	00010000 	andeq	r0, r1, r0
    424c:	00000050 	andeq	r0, r0, r0, asr r0
    4250:	00000000 	andeq	r0, r0, r0
    4254:	000c6800 	andeq	r6, ip, r0, lsl #16
    4258:	000c7600 	andeq	r7, ip, r0, lsl #12
    425c:	50000100 	andpl	r0, r0, r0, lsl #2
    4260:	00000c76 	andeq	r0, r0, r6, ror ip
    4264:	00000c8a 	andeq	r0, r0, sl, lsl #25
    4268:	01f30004 	mvnseq	r0, r4
    426c:	0c8a9f50 	stceq	15, cr9, [sl], {80}	; 0x50
    4270:	0c8c0000 	stceq	0, cr0, [ip], {0}
    4274:	00010000 	andeq	r0, r1, r0
    4278:	00000050 	andeq	r0, r0, r0, asr r0
    427c:	00000000 	andeq	r0, r0, r0
    4280:	000c9600 	andeq	r9, ip, r0, lsl #12
    4284:	000c9a00 	andeq	r9, ip, r0, lsl #20
    4288:	70001200 	andvc	r1, r0, r0, lsl #4
    428c:	7025f77f 	eorvc	pc, r5, pc, ror r7	; <UNPREDICTABLE>
    4290:	88e59b80 	stmiahi	r5!, {r7, r8, r9, fp, ip, pc}^
    4294:	1b25f77f 	blne	982098 <__bss_end__+0x96d02c>
    4298:	1c3100f7 	ldcne	0, cr0, [r1], #-988	; 0xfffffc24
    429c:	000c9a9f 	muleq	ip, pc, sl	; <UNPREDICTABLE>
    42a0:	000c9d00 	andeq	r9, ip, r0, lsl #26
    42a4:	70001200 	andvc	r1, r0, r0, lsl #4
    42a8:	7025f700 	eorvc	pc, r5, r0, lsl #14
    42ac:	88e59b81 	stmiahi	r5!, {r0, r7, r8, r9, fp, ip, pc}^
    42b0:	1b25f77f 	blne	9820b4 <__bss_end__+0x96d048>
    42b4:	1c3100f7 	ldcne	0, cr0, [r1], #-988	; 0xfffffc24
    42b8:	0000009f 	muleq	r0, pc, r0	; <UNPREDICTABLE>
    42bc:	00000000 	andeq	r0, r0, r0
    42c0:	00186c00 	andseq	r6, r8, r0, lsl #24
    42c4:	00189a00 	andseq	r9, r8, r0, lsl #20
    42c8:	50000100 	andpl	r0, r0, r0, lsl #2
    42cc:	0000189a 	muleq	r0, sl, r8
    42d0:	000018c2 	andeq	r1, r0, r2, asr #17
    42d4:	01f30004 	mvnseq	r0, r4
    42d8:	18c29f50 	stmiane	r2, {r4, r6, r8, r9, sl, fp, ip, pc}^
    42dc:	18c40000 	stmiane	r4, {}^	; <UNPREDICTABLE>
    42e0:	00010000 	andeq	r0, r1, r0
    42e4:	0018c450 	andseq	ip, r8, r0, asr r4
    42e8:	0018f200 	andseq	pc, r8, r0, lsl #4
    42ec:	f3000400 	vshl.u8	d0, d0, d0
    42f0:	f29f5001 	vaddl.s16	<illegal reg q2.5>, d15, d1
    42f4:	fc000018 	stc2	0, cr0, [r0], {24}
    42f8:	01000018 	tsteq	r0, r8, lsl r0
    42fc:	18fc5000 	ldmne	ip!, {ip, lr}^
    4300:	19340000 	ldmdbne	r4!, {}	; <UNPREDICTABLE>
    4304:	00040000 	andeq	r0, r4, r0
    4308:	9f5001f3 	svcls	0x005001f3
	...
    4314:	0000186c 	andeq	r1, r0, ip, ror #16
    4318:	000018a4 	andeq	r1, r0, r4, lsr #17
    431c:	a4510001 	ldrbge	r0, [r1], #-1
    4320:	c2000018 	andgt	r0, r0, #24
    4324:	04000018 	streq	r0, [r0], #-24	; 0xffffffe8
    4328:	5101f300 	mrspl	pc, SP_irq	; <UNPREDICTABLE>
    432c:	0018c29f 	mulseq	r8, pc, r2	; <UNPREDICTABLE>
    4330:	0018c700 	andseq	ip, r8, r0, lsl #14
    4334:	51000100 	mrspl	r0, (UNDEF: 16)
    4338:	000018c7 	andeq	r1, r0, r7, asr #17
    433c:	000018f2 	strdeq	r1, [r0], -r2
    4340:	01f30004 	mvnseq	r0, r4
    4344:	18f29f51 	ldmne	r2!, {r0, r4, r6, r8, r9, sl, fp, ip, pc}^
    4348:	18fc0000 	ldmne	ip!, {}^	; <UNPREDICTABLE>
    434c:	00010000 	andeq	r0, r1, r0
    4350:	0018fc51 	andseq	pc, r8, r1, asr ip	; <UNPREDICTABLE>
    4354:	00193400 	andseq	r3, r9, r0, lsl #8
    4358:	f3000400 	vshl.u8	d0, d0, d0
    435c:	009f5101 	addseq	r5, pc, r1, lsl #2
    4360:	00000000 	andeq	r0, r0, r0
    4364:	7a000000 	bvc	436c <bcm2835_byte_reverse_table+0x22c>
    4368:	a4000018 	strge	r0, [r0], #-24	; 0xffffffe8
    436c:	01000018 	tsteq	r0, r8, lsl r0
    4370:	18a45100 	stmiane	r4!, {r8, ip, lr}
    4374:	18c20000 	stmiane	r2, {}^	; <UNPREDICTABLE>
    4378:	00040000 	andeq	r0, r4, r0
    437c:	9f5101f3 	svcls	0x005101f3
    4380:	000018f2 	strdeq	r1, [r0], -r2
    4384:	000018fc 	strdeq	r1, [r0], -ip
    4388:	fc510001 	mrrc2	0, 0, r0, r1, cr1
    438c:	18000018 	stmdane	r0, {r3, r4}
    4390:	04000019 	streq	r0, [r0], #-25	; 0xffffffe7
    4394:	5101f300 	mrspl	pc, SP_irq	; <UNPREDICTABLE>
    4398:	0000009f 	muleq	r0, pc, r0	; <UNPREDICTABLE>
    439c:	00000000 	andeq	r0, r0, r0
    43a0:	00187a00 	andseq	r7, r8, r0, lsl #20
    43a4:	00189a00 	andseq	r9, r8, r0, lsl #20
    43a8:	50000100 	andpl	r0, r0, r0, lsl #2
    43ac:	0000189a 	muleq	r0, sl, r8
    43b0:	000018c2 	andeq	r1, r0, r2, asr #17
    43b4:	01f30004 	mvnseq	r0, r4
    43b8:	18f29f50 	ldmne	r2!, {r4, r6, r8, r9, sl, fp, ip, pc}^
    43bc:	18fc0000 	ldmne	ip!, {}^	; <UNPREDICTABLE>
    43c0:	00010000 	andeq	r0, r1, r0
    43c4:	0018fc50 	andseq	pc, r8, r0, asr ip	; <UNPREDICTABLE>
    43c8:	00191800 	andseq	r1, r9, r0, lsl #16
    43cc:	f3000400 	vshl.u8	d0, d0, d0
    43d0:	009f5001 	addseq	r5, pc, r1
    43d4:	00000000 	andeq	r0, r0, r0
    43d8:	84000000 	strhi	r0, [r0], #-0
    43dc:	ba000018 	blt	4444 <bcm2835_byte_reverse_table+0x304>
    43e0:	01000018 	tsteq	r0, r8, lsl r0
    43e4:	18f25300 	ldmne	r2!, {r8, r9, ip, lr}^
    43e8:	19010000 	stmdbne	r1, {}	; <UNPREDICTABLE>
    43ec:	00010000 	andeq	r0, r1, r0
    43f0:	00000053 	andeq	r0, r0, r3, asr r0
    43f4:	00000000 	andeq	r0, r0, r0
    43f8:	0018b600 	andseq	fp, r8, r0, lsl #12
    43fc:	0018ba00 	andseq	fp, r8, r0, lsl #20
    4400:	50000100 	andpl	r0, r0, r0, lsl #2
    4404:	000018ba 			; <UNDEFINED> instruction: 0x000018ba
    4408:	000018be 			; <UNDEFINED> instruction: 0x000018be
    440c:	06510001 	ldrbeq	r0, [r1], -r1
    4410:	0a000019 	beq	447c <bcm2835_byte_reverse_table+0x33c>
    4414:	01000019 	tsteq	r0, r9, lsl r0
    4418:	190a5000 	stmdbne	sl, {ip, lr}
    441c:	19170000 	ldmdbne	r7, {}	; <UNPREDICTABLE>
    4420:	00010000 	andeq	r0, r1, r0
    4424:	00000051 	andeq	r0, r0, r1, asr r0
    4428:	00000000 	andeq	r0, r0, r0
    442c:	0018f600 	andseq	pc, r8, r0, lsl #12
    4430:	0018fc00 	andseq	pc, r8, r0, lsl #24
    4434:	32000200 	andcc	r0, r0, #0, 4
    4438:	0000009f 	muleq	r0, pc, r0	; <UNPREDICTABLE>
    443c:	00000000 	andeq	r0, r0, r0
    4440:	0018ae00 	andseq	sl, r8, r0, lsl #28
    4444:	0018be00 	andseq	fp, r8, r0, lsl #28
    4448:	59000100 	stmdbpl	r0, {r8}
    444c:	000018fc 	strdeq	r1, [r0], -ip
    4450:	00001914 	andeq	r1, r0, r4, lsl r9
    4454:	14590001 	ldrbne	r0, [r9], #-1
    4458:	17000019 	smladne	r0, r9, r0, r0
    445c:	01000019 	tsteq	r0, r9, lsl r0
    4460:	00005000 	andeq	r5, r0, r0
    4464:	00000000 	andeq	r0, r0, r0
    4468:	18ae0000 	stmiane	lr!, {}	; <UNPREDICTABLE>
    446c:	18b40000 	ldmne	r4!, {}	; <UNPREDICTABLE>
    4470:	00010000 	andeq	r0, r1, r0
    4474:	0018fc59 	andseq	pc, r8, r9, asr ip	; <UNPREDICTABLE>
    4478:	00190200 	andseq	r0, r9, r0, lsl #4
    447c:	59000100 	stmdbpl	r0, {r8}
	...
    4488:	000018ba 			; <UNDEFINED> instruction: 0x000018ba
    448c:	000018be 			; <UNDEFINED> instruction: 0x000018be
    4490:	0a510001 	beq	144449c <__bss_end__+0x142f430>
    4494:	17000019 	smladne	r0, r9, r0, r0
    4498:	01000019 	tsteq	r0, r9, lsl r0
    449c:	00005100 	andeq	r5, r0, r0, lsl #2
    44a0:	00000000 	andeq	r0, r0, r0
    44a4:	18ba0000 	ldmne	sl!, {}	; <UNPREDICTABLE>
    44a8:	18be0000 	ldmne	lr!, {}	; <UNPREDICTABLE>
    44ac:	00010000 	andeq	r0, r1, r0
    44b0:	00190a59 	andseq	r0, r9, r9, asr sl
    44b4:	00191400 	andseq	r1, r9, r0, lsl #8
    44b8:	59000100 	stmdbpl	r0, {r8}
    44bc:	00001914 	andeq	r1, r0, r4, lsl r9
    44c0:	00001917 	andeq	r1, r0, r7, lsl r9
    44c4:	00500001 	subseq	r0, r0, r1
    44c8:	00000000 	andeq	r0, r0, r0
    44cc:	c2000000 	andgt	r0, r0, #0
    44d0:	c7000018 	smladgt	r0, r8, r0, r0
    44d4:	01000018 	tsteq	r0, r8, lsl r0
    44d8:	18c75100 	stmiane	r7, {r8, ip, lr}^
    44dc:	18c80000 	stmiane	r8, {}^	; <UNPREDICTABLE>
    44e0:	00040000 	andeq	r0, r4, r0
    44e4:	9f5101f3 	svcls	0x005101f3
	...
    44f0:	000018e0 	andeq	r1, r0, r0, ror #17
    44f4:	000018e6 	andeq	r1, r0, r6, ror #17
    44f8:	9f300002 	svcls	0x00300002
    44fc:	00001918 	andeq	r1, r0, r8, lsl r9
    4500:	0000191c 	andeq	r1, r0, ip, lsl r9
    4504:	9f300002 	svcls	0x00300002
	...
    4510:	00001934 	andeq	r1, r0, r4, lsr r9
    4514:	0000194f 	andeq	r1, r0, pc, asr #18
    4518:	4f500001 	svcmi	0x00500001
    451c:	50000019 	andpl	r0, r0, r9, lsl r0
    4520:	04000019 	streq	r0, [r0], #-25	; 0xffffffe7
    4524:	5001f300 	andpl	pc, r1, r0, lsl #6
    4528:	0019509f 	mulseq	r9, pc, r0	; <UNPREDICTABLE>
    452c:	00195400 	andseq	r5, r9, r0, lsl #8
    4530:	50000100 	andpl	r0, r0, r0, lsl #2
    4534:	00001954 	andeq	r1, r0, r4, asr r9
    4538:	00001980 	andeq	r1, r0, r0, lsl #19
    453c:	01f30004 	mvnseq	r0, r4
    4540:	00009f50 	andeq	r9, r0, r0, asr pc
    4544:	00000000 	andeq	r0, r0, r0
    4548:	19340000 	ldmdbne	r4!, {}	; <UNPREDICTABLE>
    454c:	19480000 	stmdbne	r8, {}^	; <UNPREDICTABLE>
    4550:	00010000 	andeq	r0, r1, r0
    4554:	00194851 	andseq	r4, r9, r1, asr r8
    4558:	00195000 	andseq	r5, r9, r0
    455c:	f3000400 	vshl.u8	d0, d0, d0
    4560:	509f5101 	addspl	r5, pc, r1, lsl #2
    4564:	58000019 	stmdapl	r0, {r0, r3, r4}
    4568:	01000019 	tsteq	r0, r9, lsl r0
    456c:	19585100 	ldmdbne	r8, {r8, ip, lr}^
    4570:	19800000 	stmibne	r0, {}	; <UNPREDICTABLE>
    4574:	00040000 	andeq	r0, r4, r0
    4578:	9f5101f3 	svcls	0x005101f3
	...
    4584:	00001946 	andeq	r1, r0, r6, asr #18
    4588:	00001948 	andeq	r1, r0, r8, asr #18
    458c:	00510001 	subseq	r0, r1, r1
    4590:	00000000 	andeq	r0, r0, r0
    4594:	52000000 	andpl	r0, r0, #0
    4598:	66000019 			; <UNDEFINED> instruction: 0x66000019
    459c:	13000019 	movwne	r0, #25
    45a0:	35007300 	strcc	r7, [r0, #-768]	; 0xfffffd00
    45a4:	1aff0825 	bne	fffc6640 <__bss_end__+0xfffb15d4>
    45a8:	24322623 	ldrtcs	r2, [r2], #-1571	; 0xfffff9dd
    45ac:	01502403 	cmpeq	r0, r3, lsl #8
    45b0:	9f220600 	svcls	0x00220600
	...
    45bc:	00001952 	andeq	r1, r0, r2, asr r9
    45c0:	00001966 	andeq	r1, r0, r6, ror #18
    45c4:	00730005 	rsbseq	r0, r3, r5
    45c8:	009f1a4f 	addseq	r1, pc, pc, asr #20
    45cc:	00000000 	andeq	r0, r0, r0
    45d0:	50000000 	andpl	r0, r0, r0
    45d4:	5800001c 	stmdapl	r0, {r2, r3, r4}
    45d8:	0600001c 			; <UNDEFINED> instruction: 0x0600001c
    45dc:	04935000 	ldreq	r5, [r3], #0
    45e0:	58049351 	stmdapl	r4, {r0, r4, r6, r8, r9, ip, pc}
    45e4:	6600001c 			; <UNDEFINED> instruction: 0x6600001c
    45e8:	0600001c 			; <UNDEFINED> instruction: 0x0600001c
    45ec:	f503f300 			; <UNDEFINED> instruction: 0xf503f300
    45f0:	009f2c00 	addseq	r2, pc, r0, lsl #24
    45f4:	00000000 	andeq	r0, r0, r0
    45f8:	50000000 	andpl	r0, r0, r0
    45fc:	5800001c 	stmdapl	r0, {r2, r3, r4}
    4600:	0600001c 			; <UNDEFINED> instruction: 0x0600001c
    4604:	04935200 	ldreq	r5, [r3], #512	; 0x200
    4608:	58049353 	stmdapl	r4, {r0, r1, r4, r6, r8, r9, ip, pc}
    460c:	6600001c 			; <UNDEFINED> instruction: 0x6600001c
    4610:	0600001c 			; <UNDEFINED> instruction: 0x0600001c
    4614:	f503f300 			; <UNDEFINED> instruction: 0xf503f300
    4618:	009f2c02 	addseq	r2, pc, r2, lsl #24
    461c:	00000000 	andeq	r0, r0, r0
    4620:	Address 0x00004620 is out of bounds.


Disassembly of section .debug_ranges:

00000000 <.debug_ranges>:
   0:	00000000 	andeq	r0, r0, r0
   4:	00000004 	andeq	r0, r0, r4
   8:	00000006 	andeq	r0, r0, r6
   c:	0000000e 	andeq	r0, r0, lr
	...
  18:	000001ca 	andeq	r0, r0, sl, asr #3
  1c:	000001d0 	ldrdeq	r0, [r0], -r0	; <UNPREDICTABLE>
  20:	000001d4 	ldrdeq	r0, [r0], -r4
  24:	000001e4 	andeq	r0, r0, r4, ror #3
	...
  30:	000001ca 	andeq	r0, r0, sl, asr #3
  34:	000001d0 	ldrdeq	r0, [r0], -r0	; <UNPREDICTABLE>
  38:	000001d4 	ldrdeq	r0, [r0], -r4
  3c:	000001e4 	andeq	r0, r0, r4, ror #3
	...
  48:	00000658 	andeq	r0, r0, r8, asr r6
  4c:	0000065a 	andeq	r0, r0, sl, asr r6
  50:	0000065c 	andeq	r0, r0, ip, asr r6
  54:	00000668 	andeq	r0, r0, r8, ror #12
	...
  60:	00000668 	andeq	r0, r0, r8, ror #12
  64:	00000670 	andeq	r0, r0, r0, ror r6
  68:	00000674 	andeq	r0, r0, r4, ror r6
  6c:	0000067c 	andeq	r0, r0, ip, ror r6
	...
  78:	00000684 	andeq	r0, r0, r4, lsl #13
  7c:	00000688 	andeq	r0, r0, r8, lsl #13
  80:	0000068a 	andeq	r0, r0, sl, lsl #13
  84:	000006c2 	andeq	r0, r0, r2, asr #13
  88:	000006c4 	andeq	r0, r0, r4, asr #13
  8c:	000006ca 	andeq	r0, r0, sl, asr #13
	...
  98:	0000068c 	andeq	r0, r0, ip, lsl #13
  9c:	0000068e 	andeq	r0, r0, lr, lsl #13
  a0:	00000698 	muleq	r0, r8, r6
  a4:	0000069e 	muleq	r0, lr, r6
  a8:	000006c4 	andeq	r0, r0, r4, asr #13
  ac:	000006ca 	andeq	r0, r0, sl, asr #13
	...
  b8:	00000734 	andeq	r0, r0, r4, lsr r7
  bc:	0000073c 	andeq	r0, r0, ip, lsr r7
  c0:	0000073e 	andeq	r0, r0, lr, lsr r7
  c4:	00000742 	andeq	r0, r0, r2, asr #14
  c8:	00000744 	andeq	r0, r0, r4, asr #14
  cc:	0000074c 	andeq	r0, r0, ip, asr #14
	...
  d8:	0000078e 	andeq	r0, r0, lr, lsl #15
  dc:	00000796 	muleq	r0, r6, r7
  e0:	0000079a 	muleq	r0, sl, r7
  e4:	000007a4 	andeq	r0, r0, r4, lsr #15
	...
  f0:	000007d8 	ldrdeq	r0, [r0], -r8
  f4:	000007e8 	andeq	r0, r0, r8, ror #15
  f8:	000007ec 	andeq	r0, r0, ip, ror #15
  fc:	000007f4 	strdeq	r0, [r0], -r4
	...
 108:	00000842 	andeq	r0, r0, r2, asr #16
 10c:	0000084c 	andeq	r0, r0, ip, asr #16
 110:	00000876 	andeq	r0, r0, r6, ror r8
 114:	00000884 	andeq	r0, r0, r4, lsl #17
	...
 120:	0000084c 	andeq	r0, r0, ip, asr #16
 124:	0000084e 	andeq	r0, r0, lr, asr #16
 128:	00000884 	andeq	r0, r0, r4, lsl #17
 12c:	00000890 	muleq	r0, r0, r8
	...
 138:	00000852 	andeq	r0, r0, r2, asr r8
 13c:	00000854 	andeq	r0, r0, r4, asr r8
 140:	00000894 	muleq	r0, r4, r8
 144:	000008bc 			; <UNDEFINED> instruction: 0x000008bc
	...
 150:	00000854 	andeq	r0, r0, r4, asr r8
 154:	00000856 	andeq	r0, r0, r6, asr r8
 158:	00000858 	andeq	r0, r0, r8, asr r8
 15c:	00000868 	andeq	r0, r0, r8, ror #16
	...
 168:	000008d6 	ldrdeq	r0, [r0], -r6
 16c:	000008d8 	ldrdeq	r0, [r0], -r8
 170:	000008da 	ldrdeq	r0, [r0], -sl
 174:	000008de 	ldrdeq	r0, [r0], -lr
 178:	000008e0 	andeq	r0, r0, r0, ror #17
 17c:	000008e2 	andeq	r0, r0, r2, ror #17
 180:	000008e6 	andeq	r0, r0, r6, ror #17
 184:	000008e8 	andeq	r0, r0, r8, ror #17
 188:	000008f2 	strdeq	r0, [r0], -r2
 18c:	000008f4 	strdeq	r0, [r0], -r4
 190:	00000934 	andeq	r0, r0, r4, lsr r9
 194:	00000938 	andeq	r0, r0, r8, lsr r9
 198:	0000093c 	andeq	r0, r0, ip, lsr r9
 19c:	00000942 	andeq	r0, r0, r2, asr #18
	...
 1a8:	000008e2 	andeq	r0, r0, r2, ror #17
 1ac:	000008e6 	andeq	r0, r0, r6, ror #17
 1b0:	000008f8 	strdeq	r0, [r0], -r8
 1b4:	000008fa 	strdeq	r0, [r0], -sl
 1b8:	0000096c 	andeq	r0, r0, ip, ror #18
 1bc:	0000096e 	andeq	r0, r0, lr, ror #18
 1c0:	00000996 	muleq	r0, r6, r9
 1c4:	000009a6 	andeq	r0, r0, r6, lsr #19
	...
 1d0:	000008fa 	strdeq	r0, [r0], -sl
 1d4:	000008fc 	strdeq	r0, [r0], -ip
 1d8:	000008fe 	strdeq	r0, [r0], -lr
 1dc:	00000902 	andeq	r0, r0, r2, lsl #18
 1e0:	0000091c 	andeq	r0, r0, ip, lsl r9
 1e4:	0000091e 	andeq	r0, r0, lr, lsl r9
 1e8:	00000942 	andeq	r0, r0, r2, asr #18
 1ec:	0000095c 	andeq	r0, r0, ip, asr r9
	...
 1f8:	0000095c 	andeq	r0, r0, ip, asr r9
 1fc:	0000096c 	andeq	r0, r0, ip, ror #18
 200:	0000096e 	andeq	r0, r0, lr, ror #18
 204:	00000974 	andeq	r0, r0, r4, ror r9
 208:	00000976 	andeq	r0, r0, r6, ror r9
 20c:	0000097c 	andeq	r0, r0, ip, ror r9
	...
 218:	000009a6 	andeq	r0, r0, r6, lsr #19
 21c:	000009ae 	andeq	r0, r0, lr, lsr #19
 220:	000009b2 			; <UNDEFINED> instruction: 0x000009b2
 224:	000009be 			; <UNDEFINED> instruction: 0x000009be
	...
 230:	00000a22 	andeq	r0, r0, r2, lsr #20
 234:	00000a2c 	andeq	r0, r0, ip, lsr #20
 238:	00000a5c 	andeq	r0, r0, ip, asr sl
 23c:	00000a60 	andeq	r0, r0, r0, ror #20
 240:	00000a62 	andeq	r0, r0, r2, ror #20
 244:	00000a64 	andeq	r0, r0, r4, ror #20
 248:	00000aaa 	andeq	r0, r0, sl, lsr #21
 24c:	00000ab2 			; <UNDEFINED> instruction: 0x00000ab2
	...
 258:	00000a36 	andeq	r0, r0, r6, lsr sl
 25c:	00000a3a 	andeq	r0, r0, sl, lsr sl
 260:	00000a3e 	andeq	r0, r0, lr, lsr sl
 264:	00000a46 	andeq	r0, r0, r6, asr #20
	...
 270:	00000a46 	andeq	r0, r0, r6, asr #20
 274:	00000a52 	andeq	r0, r0, r2, asr sl
 278:	00000aca 	andeq	r0, r0, sl, asr #21
 27c:	00000aec 	andeq	r0, r0, ip, ror #21
	...
 288:	00000a70 	andeq	r0, r0, r0, ror sl
 28c:	00000a72 	andeq	r0, r0, r2, ror sl
 290:	00000a74 	andeq	r0, r0, r4, ror sl
 294:	00000a76 	andeq	r0, r0, r6, ror sl
 298:	00000a78 	andeq	r0, r0, r8, ror sl
 29c:	00000a7e 	andeq	r0, r0, lr, ror sl
 2a0:	00000ab2 			; <UNDEFINED> instruction: 0x00000ab2
 2a4:	00000ab8 			; <UNDEFINED> instruction: 0x00000ab8
	...
 2b0:	00000a72 	andeq	r0, r0, r2, ror sl
 2b4:	00000a74 	andeq	r0, r0, r4, ror sl
 2b8:	00000a76 	andeq	r0, r0, r6, ror sl
 2bc:	00000a78 	andeq	r0, r0, r8, ror sl
 2c0:	00000a8c 	andeq	r0, r0, ip, lsl #21
 2c4:	00000a90 	muleq	r0, r0, sl
 2c8:	00000a92 	muleq	r0, r2, sl
 2cc:	00000a94 	muleq	r0, r4, sl
 2d0:	00000a9c 	muleq	r0, ip, sl
 2d4:	00000aaa 	andeq	r0, r0, sl, lsr #21
	...
 2e0:	00000b48 	andeq	r0, r0, r8, asr #22
 2e4:	00000b4a 	andeq	r0, r0, sl, asr #22
 2e8:	00000b4e 	andeq	r0, r0, lr, asr #22
 2ec:	00000b56 	andeq	r0, r0, r6, asr fp
 2f0:	00000b86 	andeq	r0, r0, r6, lsl #23
 2f4:	00000b8c 	andeq	r0, r0, ip, lsl #23
	...
 300:	00000b56 	andeq	r0, r0, r6, asr fp
 304:	00000b5e 	andeq	r0, r0, lr, asr fp
 308:	00000b8c 	andeq	r0, r0, ip, lsl #23
 30c:	00000bac 	andeq	r0, r0, ip, lsr #23
	...
 318:	00000b5e 	andeq	r0, r0, lr, asr fp
 31c:	00000b62 	andeq	r0, r0, r2, ror #22
 320:	00000b68 	andeq	r0, r0, r8, ror #22
 324:	00000b72 	andeq	r0, r0, r2, ror fp
	...
 330:	00000bbc 			; <UNDEFINED> instruction: 0x00000bbc
 334:	00000bc6 	andeq	r0, r0, r6, asr #23
 338:	00000bc8 	andeq	r0, r0, r8, asr #23
 33c:	00000bce 	andeq	r0, r0, lr, asr #23
	...
 348:	00000bf6 	strdeq	r0, [r0], -r6
 34c:	00000bf8 	strdeq	r0, [r0], -r8
 350:	00000bfc 	strdeq	r0, [r0], -ip
 354:	00000c02 	andeq	r0, r0, r2, lsl #24
	...
 360:	00000c52 	andeq	r0, r0, r2, asr ip
 364:	00000c5a 	andeq	r0, r0, sl, asr ip
 368:	00000c5e 	andeq	r0, r0, lr, asr ip
 36c:	00000c68 	andeq	r0, r0, r8, ror #24
	...
 378:	00000f7c 	andeq	r0, r0, ip, ror pc
 37c:	00000f80 	andeq	r0, r0, r0, lsl #31
 380:	00000f86 	andeq	r0, r0, r6, lsl #31
 384:	00000f8e 	andeq	r0, r0, lr, lsl #31
	...
 390:	00000fa6 	andeq	r0, r0, r6, lsr #31
 394:	00000fae 	andeq	r0, r0, lr, lsr #31
 398:	00000fb0 			; <UNDEFINED> instruction: 0x00000fb0
 39c:	00000fba 			; <UNDEFINED> instruction: 0x00000fba
	...
 3a8:	00001082 	andeq	r1, r0, r2, lsl #1
 3ac:	0000108a 	andeq	r1, r0, sl, lsl #1
 3b0:	0000108e 	andeq	r1, r0, lr, lsl #1
 3b4:	00001098 	muleq	r0, r8, r0
	...
 3c0:	0000115e 	andeq	r1, r0, lr, asr r1
 3c4:	00001166 	andeq	r1, r0, r6, ror #2
 3c8:	00001168 	andeq	r1, r0, r8, ror #2
 3cc:	00001170 	andeq	r1, r0, r0, ror r1
 3d0:	00001188 	andeq	r1, r0, r8, lsl #3
 3d4:	0000118c 	andeq	r1, r0, ip, lsl #3
 3d8:	00001190 	muleq	r0, r0, r1
 3dc:	0000119c 	muleq	r0, ip, r1
	...
 3e8:	00001226 	andeq	r1, r0, r6, lsr #4
 3ec:	00001228 	andeq	r1, r0, r8, lsr #4
 3f0:	00001230 	andeq	r1, r0, r0, lsr r2
 3f4:	00001232 	andeq	r1, r0, r2, lsr r2
 3f8:	00001244 	andeq	r1, r0, r4, asr #4
 3fc:	00001254 	andeq	r1, r0, r4, asr r2
 400:	00001358 	andeq	r1, r0, r8, asr r3
 404:	00001362 	andeq	r1, r0, r2, ror #6
	...
 410:	00001254 	andeq	r1, r0, r4, asr r2
 414:	00001258 	andeq	r1, r0, r8, asr r2
 418:	00001362 	andeq	r1, r0, r2, ror #6
 41c:	00001374 	andeq	r1, r0, r4, ror r3
	...
 428:	00001258 	andeq	r1, r0, r8, asr r2
 42c:	00001262 	andeq	r1, r0, r2, ror #4
 430:	00001374 	andeq	r1, r0, r4, ror r3
 434:	000013a4 	andeq	r1, r0, r4, lsr #7
	...
 440:	00001262 	andeq	r1, r0, r2, ror #4
 444:	00001270 	andeq	r1, r0, r0, ror r2
 448:	00001294 	muleq	r0, r4, r2
 44c:	0000129a 	muleq	r0, sl, r2
 450:	000012b4 			; <UNDEFINED> instruction: 0x000012b4
 454:	000012b6 			; <UNDEFINED> instruction: 0x000012b6
 458:	000012b8 			; <UNDEFINED> instruction: 0x000012b8
 45c:	000012c6 	andeq	r1, r0, r6, asr #5
 460:	00001316 	andeq	r1, r0, r6, lsl r3
 464:	00001318 	andeq	r1, r0, r8, lsl r3
	...
 470:	00001270 	andeq	r1, r0, r0, ror r2
 474:	00001278 	andeq	r1, r0, r8, ror r2
 478:	000012c6 	andeq	r1, r0, r6, asr #5
 47c:	000012ca 	andeq	r1, r0, sl, asr #5
	...
 488:	0000128a 	andeq	r1, r0, sl, lsl #5
 48c:	00001290 	muleq	r0, r0, r2
 490:	000012a6 	andeq	r1, r0, r6, lsr #5
 494:	000012b0 			; <UNDEFINED> instruction: 0x000012b0
	...
 4a0:	000012d0 	ldrdeq	r1, [r0], -r0
 4a4:	000012e0 	andeq	r1, r0, r0, ror #5
 4a8:	000012f0 	strdeq	r1, [r0], -r0
 4ac:	000012fc 	strdeq	r1, [r0], -ip
	...
 4b8:	000012e4 	andeq	r1, r0, r4, ror #5
 4bc:	000012e8 	andeq	r1, r0, r8, ror #5
 4c0:	00001300 	andeq	r1, r0, r0, lsl #6
 4c4:	00001302 	andeq	r1, r0, r2, lsl #6
 4c8:	00001304 	andeq	r1, r0, r4, lsl #6
 4cc:	0000130e 	andeq	r1, r0, lr, lsl #6
	...
 4d8:	000015d8 	ldrdeq	r1, [r0], -r8
 4dc:	000015e2 	andeq	r1, r0, r2, ror #11
 4e0:	000015e6 	andeq	r1, r0, r6, ror #11
 4e4:	000015f0 	strdeq	r1, [r0], -r0
	...
 4f0:	0000187a 	andeq	r1, r0, sl, ror r8
 4f4:	000018be 			; <UNDEFINED> instruction: 0x000018be
 4f8:	000018f2 	strdeq	r1, [r0], -r2
 4fc:	00001910 	andeq	r1, r0, r0, lsl r9
 500:	00001914 	andeq	r1, r0, r4, lsl r9
 504:	00001918 	andeq	r1, r0, r8, lsl r9
	...
 510:	00001892 	muleq	r0, r2, r8
 514:	00001894 	muleq	r0, r4, r8
 518:	0000189a 	muleq	r0, sl, r8
 51c:	0000189c 	muleq	r0, ip, r8
 520:	000018a2 	andeq	r1, r0, r2, lsr #17
 524:	000018a4 	andeq	r1, r0, r4, lsr #17
 528:	000018ae 	andeq	r1, r0, lr, lsr #17
 52c:	000018b4 			; <UNDEFINED> instruction: 0x000018b4
 530:	000018fc 	strdeq	r1, [r0], -ip
 534:	00001902 	andeq	r1, r0, r2, lsl #18
	...
 540:	000018ba 			; <UNDEFINED> instruction: 0x000018ba
 544:	000018be 			; <UNDEFINED> instruction: 0x000018be
 548:	00001902 	andeq	r1, r0, r2, lsl #18
 54c:	00001904 	andeq	r1, r0, r4, lsl #18
 550:	0000190a 	andeq	r1, r0, sl, lsl #18
 554:	00001910 	andeq	r1, r0, r0, lsl r9
 558:	00001914 	andeq	r1, r0, r4, lsl r9
 55c:	00001918 	andeq	r1, r0, r8, lsl r9
	...
 568:	000018e0 	andeq	r1, r0, r0, ror #17
 56c:	000018e6 	andeq	r1, r0, r6, ror #17
 570:	00001918 	andeq	r1, r0, r8, lsl r9
 574:	0000191c 	andeq	r1, r0, ip, lsl r9
	...
 580:	00001946 	andeq	r1, r0, r6, asr #18
 584:	00001948 	andeq	r1, r0, r8, asr #18
 588:	0000194c 	andeq	r1, r0, ip, asr #18
 58c:	00001952 	andeq	r1, r0, r2, asr r9
	...
 598:	00001952 	andeq	r1, r0, r2, asr r9
 59c:	0000196a 	andeq	r1, r0, sl, ror #18
 5a0:	0000196e 	andeq	r1, r0, lr, ror #18
 5a4:	00001980 	andeq	r1, r0, r0, lsl #19
	...
 5b0:	00001af4 	strdeq	r1, [r0], -r4
 5b4:	00001afc 	strdeq	r1, [r0], -ip
 5b8:	00001afe 	strdeq	r1, [r0], -lr
 5bc:	00001b06 	andeq	r1, r0, r6, lsl #22
 5c0:	00001b16 	andeq	r1, r0, r6, lsl fp
 5c4:	00001b1a 	andeq	r1, r0, sl, lsl fp
 5c8:	00001b1e 	andeq	r1, r0, lr, lsl fp
 5cc:	00001b2a 	andeq	r1, r0, sl, lsr #22
	...
 5d8:	00001b2a 	andeq	r1, r0, sl, lsr #22
 5dc:	00001b2c 	andeq	r1, r0, ip, lsr #22
 5e0:	00001b36 	andeq	r1, r0, r6, lsr fp
 5e4:	00001b38 	andeq	r1, r0, r8, lsr fp
 5e8:	00001b3a 	andeq	r1, r0, sl, lsr fp
 5ec:	00001b3e 	andeq	r1, r0, lr, lsr fp
 5f0:	00001b4c 	andeq	r1, r0, ip, asr #22
 5f4:	00001b58 	andeq	r1, r0, r8, asr fp
	...
 600:	00001b7a 	andeq	r1, r0, sl, ror fp
 604:	00001b7e 	andeq	r1, r0, lr, ror fp
 608:	00001b86 	andeq	r1, r0, r6, lsl #23
 60c:	00001b88 	andeq	r1, r0, r8, lsl #23
 610:	00001ba4 	andeq	r1, r0, r4, lsr #23
 614:	00001ba8 	andeq	r1, r0, r8, lsr #23
 618:	00001bbe 			; <UNDEFINED> instruction: 0x00001bbe
 61c:	00001bce 	andeq	r1, r0, lr, asr #23
	...
 628:	00001b8a 	andeq	r1, r0, sl, lsl #23
 62c:	00001b94 	muleq	r0, r4, fp
 630:	00001bce 	andeq	r1, r0, lr, asr #23
 634:	00001bd4 	ldrdeq	r1, [r0], -r4
	...
 640:	00001c90 	muleq	r0, r0, ip
 644:	00001c94 	muleq	r0, r4, ip
 648:	00001ca2 	andeq	r1, r0, r2, lsr #25
 64c:	00001cac 	andeq	r1, r0, ip, lsr #25
 650:	00001cb0 			; <UNDEFINED> instruction: 0x00001cb0
 654:	00001cb4 			; <UNDEFINED> instruction: 0x00001cb4
 658:	00001cb8 			; <UNDEFINED> instruction: 0x00001cb8
 65c:	00001cc0 	andeq	r1, r0, r0, asr #25
	...
 668:	00001c9c 	muleq	r0, ip, ip
 66c:	00001c9e 	muleq	r0, lr, ip
 670:	00001cac 	andeq	r1, r0, ip, lsr #25
 674:	00001cb0 			; <UNDEFINED> instruction: 0x00001cb0
 678:	00001cb4 			; <UNDEFINED> instruction: 0x00001cb4
 67c:	00001cb8 			; <UNDEFINED> instruction: 0x00001cb8
 680:	00001cc0 	andeq	r1, r0, r0, asr #25
 684:	00001ccc 	andeq	r1, r0, ip, asr #25
	...
 690:	00001d4c 	andeq	r1, r0, ip, asr #26
 694:	00001d4e 	andeq	r1, r0, lr, asr #26
 698:	00001d50 	andeq	r1, r0, r0, asr sp
 69c:	00001d52 	andeq	r1, r0, r2, asr sp
 6a0:	00001d54 	andeq	r1, r0, r4, asr sp
 6a4:	00001d56 	andeq	r1, r0, r6, asr sp
 6a8:	00001d58 	andeq	r1, r0, r8, asr sp
 6ac:	00001d5c 	andeq	r1, r0, ip, asr sp
 6b0:	00001d7e 	andeq	r1, r0, lr, ror sp
 6b4:	00001d82 	andeq	r1, r0, r2, lsl #27
 6b8:	00001d86 	andeq	r1, r0, r6, lsl #27
 6bc:	00001d8a 	andeq	r1, r0, sl, lsl #27
	...
 6c8:	00001db8 			; <UNDEFINED> instruction: 0x00001db8
 6cc:	00001dc2 	andeq	r1, r0, r2, asr #27
 6d0:	00001dda 	ldrdeq	r1, [r0], -sl
 6d4:	00001dde 	ldrdeq	r1, [r0], -lr
 6d8:	00001de2 	andeq	r1, r0, r2, ror #27
 6dc:	00001de6 	andeq	r1, r0, r6, ror #27
	...
 6e8:	00001dcc 	andeq	r1, r0, ip, asr #27
 6ec:	00001dda 	ldrdeq	r1, [r0], -sl
 6f0:	00001de6 	andeq	r1, r0, r6, ror #27
 6f4:	00001dea 	andeq	r1, r0, sl, ror #27
 6f8:	00001dee 	andeq	r1, r0, lr, ror #27
 6fc:	00001e00 	andeq	r1, r0, r0, lsl #28
	...
 708:	00001e14 	andeq	r1, r0, r4, lsl lr
 70c:	00001e1e 	andeq	r1, r0, lr, lsl lr
 710:	00001e36 	andeq	r1, r0, r6, lsr lr
 714:	00001e3a 	andeq	r1, r0, sl, lsr lr
 718:	00001e3e 	andeq	r1, r0, lr, lsr lr
 71c:	00001e42 	andeq	r1, r0, r2, asr #28
	...
 728:	00001e28 	andeq	r1, r0, r8, lsr #28
 72c:	00001e36 	andeq	r1, r0, r6, lsr lr
 730:	00001e42 	andeq	r1, r0, r2, asr #28
 734:	00001e46 	andeq	r1, r0, r6, asr #28
 738:	00001e4a 	andeq	r1, r0, sl, asr #28
 73c:	00001e5c 	andeq	r1, r0, ip, asr lr
	...
 748:	00001f54 	andeq	r1, r0, r4, asr pc
 74c:	00001f82 	andeq	r1, r0, r2, lsl #31
 750:	0000209a 	muleq	r0, sl, r0
 754:	000020f8 	strdeq	r2, [r0], -r8
	...
 760:	00001f86 	andeq	r1, r0, r6, lsl #31
 764:	00001f8a 	andeq	r1, r0, sl, lsl #31
 768:	00001f8e 	andeq	r1, r0, lr, lsl #31
 76c:	00001f9a 	muleq	r0, sl, pc	; <UNPREDICTABLE>
	...
